

Microchip MPLAB XC8 Assembler V2.35 build 20211206165544 
                                                                                               Wed Sep 14 16:41:35 2022

Microchip MPLAB XC8 C Compiler v2.35 (Free license) build 20211206165544 Og1 
     1                           	processor	16F887
     2                           	pagewidth 120
     3                           	opt	flic
     4                           	psect	idataBANK1,global,class=CODE,delta=2,noexec
     5                           	psect	cinit,global,class=CODE,merge=1,delta=2
     6                           	psect	bssBANK1,global,class=BANK1,space=1,delta=1,noexec
     7                           	psect	dataBANK1,global,class=BANK1,space=1,delta=1,noexec
     8                           	psect	cstackBANK1,global,class=BANK1,space=1,delta=1,noexec
     9                           	psect	cstackCOMMON,global,class=COMMON,space=1,delta=1,noexec
    10                           	psect	cstackBANK0,global,class=BANK0,space=1,delta=1,noexec
    11                           	psect	maintext,global,class=CODE,split=1,delta=2
    12                           	psect	text1,local,class=CODE,merge=1,delta=2
    13                           	psect	text2,local,class=CODE,merge=1,delta=2
    14                           	psect	text3,local,class=CODE,merge=1,delta=2
    15                           	psect	text4,local,class=CODE,merge=1,delta=2
    16                           	psect	text5,local,class=CODE,merge=1,delta=2
    17                           	psect	text6,local,class=CODE,merge=1,delta=2,group=1
    18                           	psect	text7,local,class=CODE,merge=1,delta=2
    19                           	psect	text8,local,class=CODE,merge=1,delta=2
    20                           	psect	text9,local,class=CODE,merge=1,delta=2
    21                           	psect	text10,local,class=CODE,merge=1,delta=2
    22                           	psect	text11,local,class=CODE,merge=1,delta=2
    23                           	psect	text12,local,class=CODE,merge=1,delta=2
    24                           	psect	intentry,global,class=CODE,delta=2
    25                           	psect	text13,local,class=CODE,merge=1,delta=2
    26                           	psect	text14,local,class=CODE,merge=1,delta=2,group=1
    27                           	psect	text15,local,class=CODE,merge=1,delta=2,group=1
    28                           	psect	text16,local,class=CODE,merge=1,delta=2,group=1
    29                           	psect	text17,local,class=CODE,merge=1,delta=2,group=1
    30                           	psect	text18,local,class=CODE,merge=1,delta=2,group=1
    31                           	psect	text19,local,class=CODE,merge=1,delta=2,group=1
    32                           	psect	text20,local,class=CODE,merge=1,delta=2
    33                           	psect	idloc,global,abs,ovrld,class=IDLOC,space=5,delta=2,noexec
    34                           	psect	config,global,abs,ovrld,class=CONFIG,space=4,delta=2,noexec
    35                           	dabs	1,0x7E,2
    36  0000                     
    37                           ; Version 2.40
    38                           ; Generated 17/11/2021 GMT
    39                           ; 
    40                           ; Copyright © 2021, Microchip Technology Inc. and its subsidiaries ("Microchip")
    41                           ; All rights reserved.
    42                           ; 
    43                           ; This software is developed by Microchip Technology Inc. and its subsidiaries ("Microch
      +                          ip").
    44                           ; 
    45                           ; Redistribution and use in source and binary forms, with or without modification, are
    46                           ; permitted provided that the following conditions are met:
    47                           ; 
    48                           ;     1. Redistributions of source code must retain the above copyright notice, this lis
      +                          t of
    49                           ;        conditions and the following disclaimer.
    50                           ; 
    51                           ;     2. Redistributions in binary form must reproduce the above copyright notice, this 
      +                          list
    52                           ;        of conditions and the following disclaimer in the documentation and/or other
    53                           ;        materials provided with the distribution. Publication is not required when
    54                           ;        this file is used in an embedded application.
    55                           ; 
    56                           ;     3. Microchip's name may not be used to endorse or promote products derived from th
      +                          is
    57                           ;        software without specific prior written permission.
    58                           ; 
    59                           ; THIS SOFTWARE IS PROVIDED BY MICROCHIP "AS IS" AND ANY EXPRESS OR IMPLIED WARRANTIES,
    60                           ; INCLUDING, BUT NOT LIMITED TO, THE IMPLIED WARRANTIES OF MERCHANTABILITY AND FITNESS F
      +                          OR
    61                           ; PURPOSE ARE DISCLAIMED.  IN NO EVENT SHALL MICROCHIP BE LIABLE FOR ANY DIRECT, INDIREC
      +                          T,
    62                           ; INCIDENTAL, SPECIAL, EXEMPLARY, OR CONSEQUENTIAL DAMAGES (INCLUDING BUT NOT LIMITED TO
    63                           ; PROCUREMENT OF SUBSTITUTE GOODS OR SERVICES; LOSS OF USE, DATA OR PROFITS; OR BUSINESS
    64                           ; INTERRUPTION) HOWSOEVER CAUSED AND ON ANY THEORY OF LIABILITY, WHETHER IN CONTRACT, ST
      +                          RICT
    65                           ; LIABILITY, OR TORT (INCLUDING NEGLIGENCE OR OTHERWISE) ARISING IN ANY WAY OUT OF THE U
      +                          SE OF
    66                           ; THIS SOFTWARE, EVEN IF ADVISED OF THE POSSIBILITY OF SUCH DAMAGE.
    67                           ; 
    68                           ; 
    69                           ; Code-generator required, PIC16F887 Definitions
    70                           ; 
    71                           ; SFR Addresses
    72  0000                     	;# 
    73  0001                     	;# 
    74  0002                     	;# 
    75  0003                     	;# 
    76  0004                     	;# 
    77  0005                     	;# 
    78  0006                     	;# 
    79  0007                     	;# 
    80  0008                     	;# 
    81  0009                     	;# 
    82  000A                     	;# 
    83  000B                     	;# 
    84  000C                     	;# 
    85  000D                     	;# 
    86  000E                     	;# 
    87  000E                     	;# 
    88  000F                     	;# 
    89  0010                     	;# 
    90  0011                     	;# 
    91  0012                     	;# 
    92  0013                     	;# 
    93  0014                     	;# 
    94  0015                     	;# 
    95  0015                     	;# 
    96  0016                     	;# 
    97  0017                     	;# 
    98  0018                     	;# 
    99  0019                     	;# 
   100  001A                     	;# 
   101  001B                     	;# 
   102  001B                     	;# 
   103  001C                     	;# 
   104  001D                     	;# 
   105  001E                     	;# 
   106  001F                     	;# 
   107  0081                     	;# 
   108  0085                     	;# 
   109  0086                     	;# 
   110  0087                     	;# 
   111  0088                     	;# 
   112  0089                     	;# 
   113  008C                     	;# 
   114  008D                     	;# 
   115  008E                     	;# 
   116  008F                     	;# 
   117  0090                     	;# 
   118  0091                     	;# 
   119  0092                     	;# 
   120  0093                     	;# 
   121  0093                     	;# 
   122  0093                     	;# 
   123  0094                     	;# 
   124  0095                     	;# 
   125  0096                     	;# 
   126  0097                     	;# 
   127  0098                     	;# 
   128  0099                     	;# 
   129  009A                     	;# 
   130  009B                     	;# 
   131  009C                     	;# 
   132  009D                     	;# 
   133  009E                     	;# 
   134  009F                     	;# 
   135  0105                     	;# 
   136  0107                     	;# 
   137  0108                     	;# 
   138  0109                     	;# 
   139  010C                     	;# 
   140  010C                     	;# 
   141  010D                     	;# 
   142  010E                     	;# 
   143  010F                     	;# 
   144  0185                     	;# 
   145  0187                     	;# 
   146  0188                     	;# 
   147  0189                     	;# 
   148  018C                     	;# 
   149  018D                     	;# 
   150  0000                     	;# 
   151  0001                     	;# 
   152  0002                     	;# 
   153  0003                     	;# 
   154  0004                     	;# 
   155  0005                     	;# 
   156  0006                     	;# 
   157  0007                     	;# 
   158  0008                     	;# 
   159  0009                     	;# 
   160  000A                     	;# 
   161  000B                     	;# 
   162  000C                     	;# 
   163  000D                     	;# 
   164  000E                     	;# 
   165  000E                     	;# 
   166  000F                     	;# 
   167  0010                     	;# 
   168  0011                     	;# 
   169  0012                     	;# 
   170  0013                     	;# 
   171  0014                     	;# 
   172  0015                     	;# 
   173  0015                     	;# 
   174  0016                     	;# 
   175  0017                     	;# 
   176  0018                     	;# 
   177  0019                     	;# 
   178  001A                     	;# 
   179  001B                     	;# 
   180  001B                     	;# 
   181  001C                     	;# 
   182  001D                     	;# 
   183  001E                     	;# 
   184  001F                     	;# 
   185  0081                     	;# 
   186  0085                     	;# 
   187  0086                     	;# 
   188  0087                     	;# 
   189  0088                     	;# 
   190  0089                     	;# 
   191  008C                     	;# 
   192  008D                     	;# 
   193  008E                     	;# 
   194  008F                     	;# 
   195  0090                     	;# 
   196  0091                     	;# 
   197  0092                     	;# 
   198  0093                     	;# 
   199  0093                     	;# 
   200  0093                     	;# 
   201  0094                     	;# 
   202  0095                     	;# 
   203  0096                     	;# 
   204  0097                     	;# 
   205  0098                     	;# 
   206  0099                     	;# 
   207  009A                     	;# 
   208  009B                     	;# 
   209  009C                     	;# 
   210  009D                     	;# 
   211  009E                     	;# 
   212  009F                     	;# 
   213  0105                     	;# 
   214  0107                     	;# 
   215  0108                     	;# 
   216  0109                     	;# 
   217  010C                     	;# 
   218  010C                     	;# 
   219  010D                     	;# 
   220  010E                     	;# 
   221  010F                     	;# 
   222  0185                     	;# 
   223  0187                     	;# 
   224  0188                     	;# 
   225  0189                     	;# 
   226  018C                     	;# 
   227  018D                     	;# 
   228  0000                     	;# 
   229  0001                     	;# 
   230  0002                     	;# 
   231  0003                     	;# 
   232  0004                     	;# 
   233  0005                     	;# 
   234  0006                     	;# 
   235  0007                     	;# 
   236  0008                     	;# 
   237  0009                     	;# 
   238  000A                     	;# 
   239  000B                     	;# 
   240  000C                     	;# 
   241  000D                     	;# 
   242  000E                     	;# 
   243  000E                     	;# 
   244  000F                     	;# 
   245  0010                     	;# 
   246  0011                     	;# 
   247  0012                     	;# 
   248  0013                     	;# 
   249  0014                     	;# 
   250  0015                     	;# 
   251  0015                     	;# 
   252  0016                     	;# 
   253  0017                     	;# 
   254  0018                     	;# 
   255  0019                     	;# 
   256  001A                     	;# 
   257  001B                     	;# 
   258  001B                     	;# 
   259  001C                     	;# 
   260  001D                     	;# 
   261  001E                     	;# 
   262  001F                     	;# 
   263  0081                     	;# 
   264  0085                     	;# 
   265  0086                     	;# 
   266  0087                     	;# 
   267  0088                     	;# 
   268  0089                     	;# 
   269  008C                     	;# 
   270  008D                     	;# 
   271  008E                     	;# 
   272  008F                     	;# 
   273  0090                     	;# 
   274  0091                     	;# 
   275  0092                     	;# 
   276  0093                     	;# 
   277  0093                     	;# 
   278  0093                     	;# 
   279  0094                     	;# 
   280  0095                     	;# 
   281  0096                     	;# 
   282  0097                     	;# 
   283  0098                     	;# 
   284  0099                     	;# 
   285  009A                     	;# 
   286  009B                     	;# 
   287  009C                     	;# 
   288  009D                     	;# 
   289  009E                     	;# 
   290  009F                     	;# 
   291  0105                     	;# 
   292  0107                     	;# 
   293  0108                     	;# 
   294  0109                     	;# 
   295  010C                     	;# 
   296  010C                     	;# 
   297  010D                     	;# 
   298  010E                     	;# 
   299  010F                     	;# 
   300  0185                     	;# 
   301  0187                     	;# 
   302  0188                     	;# 
   303  0189                     	;# 
   304  018C                     	;# 
   305  018D                     	;# 
   306  0000                     	;# 
   307  0001                     	;# 
   308  0002                     	;# 
   309  0003                     	;# 
   310  0004                     	;# 
   311  0005                     	;# 
   312  0006                     	;# 
   313  0007                     	;# 
   314  0008                     	;# 
   315  0009                     	;# 
   316  000A                     	;# 
   317  000B                     	;# 
   318  000C                     	;# 
   319  000D                     	;# 
   320  000E                     	;# 
   321  000E                     	;# 
   322  000F                     	;# 
   323  0010                     	;# 
   324  0011                     	;# 
   325  0012                     	;# 
   326  0013                     	;# 
   327  0014                     	;# 
   328  0015                     	;# 
   329  0015                     	;# 
   330  0016                     	;# 
   331  0017                     	;# 
   332  0018                     	;# 
   333  0019                     	;# 
   334  001A                     	;# 
   335  001B                     	;# 
   336  001B                     	;# 
   337  001C                     	;# 
   338  001D                     	;# 
   339  001E                     	;# 
   340  001F                     	;# 
   341  0081                     	;# 
   342  0085                     	;# 
   343  0086                     	;# 
   344  0087                     	;# 
   345  0088                     	;# 
   346  0089                     	;# 
   347  008C                     	;# 
   348  008D                     	;# 
   349  008E                     	;# 
   350  008F                     	;# 
   351  0090                     	;# 
   352  0091                     	;# 
   353  0092                     	;# 
   354  0093                     	;# 
   355  0093                     	;# 
   356  0093                     	;# 
   357  0094                     	;# 
   358  0095                     	;# 
   359  0096                     	;# 
   360  0097                     	;# 
   361  0098                     	;# 
   362  0099                     	;# 
   363  009A                     	;# 
   364  009B                     	;# 
   365  009C                     	;# 
   366  009D                     	;# 
   367  009E                     	;# 
   368  009F                     	;# 
   369  0105                     	;# 
   370  0107                     	;# 
   371  0108                     	;# 
   372  0109                     	;# 
   373  010C                     	;# 
   374  010C                     	;# 
   375  010D                     	;# 
   376  010E                     	;# 
   377  010F                     	;# 
   378  0185                     	;# 
   379  0187                     	;# 
   380  0188                     	;# 
   381  0189                     	;# 
   382  018C                     	;# 
   383  018D                     	;# 
   384  0000                     	;# 
   385  0001                     	;# 
   386  0002                     	;# 
   387  0003                     	;# 
   388  0004                     	;# 
   389  0005                     	;# 
   390  0006                     	;# 
   391  0007                     	;# 
   392  0008                     	;# 
   393  0009                     	;# 
   394  000A                     	;# 
   395  000B                     	;# 
   396  000C                     	;# 
   397  000D                     	;# 
   398  000E                     	;# 
   399  000E                     	;# 
   400  000F                     	;# 
   401  0010                     	;# 
   402  0011                     	;# 
   403  0012                     	;# 
   404  0013                     	;# 
   405  0014                     	;# 
   406  0015                     	;# 
   407  0015                     	;# 
   408  0016                     	;# 
   409  0017                     	;# 
   410  0018                     	;# 
   411  0019                     	;# 
   412  001A                     	;# 
   413  001B                     	;# 
   414  001B                     	;# 
   415  001C                     	;# 
   416  001D                     	;# 
   417  001E                     	;# 
   418  001F                     	;# 
   419  0081                     	;# 
   420  0085                     	;# 
   421  0086                     	;# 
   422  0087                     	;# 
   423  0088                     	;# 
   424  0089                     	;# 
   425  008C                     	;# 
   426  008D                     	;# 
   427  008E                     	;# 
   428  008F                     	;# 
   429  0090                     	;# 
   430  0091                     	;# 
   431  0092                     	;# 
   432  0093                     	;# 
   433  0093                     	;# 
   434  0093                     	;# 
   435  0094                     	;# 
   436  0095                     	;# 
   437  0096                     	;# 
   438  0097                     	;# 
   439  0098                     	;# 
   440  0099                     	;# 
   441  009A                     	;# 
   442  009B                     	;# 
   443  009C                     	;# 
   444  009D                     	;# 
   445  009E                     	;# 
   446  009F                     	;# 
   447  0105                     	;# 
   448  0107                     	;# 
   449  0108                     	;# 
   450  0109                     	;# 
   451  010C                     	;# 
   452  010C                     	;# 
   453  010D                     	;# 
   454  010E                     	;# 
   455  010F                     	;# 
   456  0185                     	;# 
   457  0187                     	;# 
   458  0188                     	;# 
   459  0189                     	;# 
   460  018C                     	;# 
   461  018D                     	;# 
   462  0000                     	;# 
   463  0001                     	;# 
   464  0002                     	;# 
   465  0003                     	;# 
   466  0004                     	;# 
   467  0005                     	;# 
   468  0006                     	;# 
   469  0007                     	;# 
   470  0008                     	;# 
   471  0009                     	;# 
   472  000A                     	;# 
   473  000B                     	;# 
   474  000C                     	;# 
   475  000D                     	;# 
   476  000E                     	;# 
   477  000E                     	;# 
   478  000F                     	;# 
   479  0010                     	;# 
   480  0011                     	;# 
   481  0012                     	;# 
   482  0013                     	;# 
   483  0014                     	;# 
   484  0015                     	;# 
   485  0015                     	;# 
   486  0016                     	;# 
   487  0017                     	;# 
   488  0018                     	;# 
   489  0019                     	;# 
   490  001A                     	;# 
   491  001B                     	;# 
   492  001B                     	;# 
   493  001C                     	;# 
   494  001D                     	;# 
   495  001E                     	;# 
   496  001F                     	;# 
   497  0081                     	;# 
   498  0085                     	;# 
   499  0086                     	;# 
   500  0087                     	;# 
   501  0088                     	;# 
   502  0089                     	;# 
   503  008C                     	;# 
   504  008D                     	;# 
   505  008E                     	;# 
   506  008F                     	;# 
   507  0090                     	;# 
   508  0091                     	;# 
   509  0092                     	;# 
   510  0093                     	;# 
   511  0093                     	;# 
   512  0093                     	;# 
   513  0094                     	;# 
   514  0095                     	;# 
   515  0096                     	;# 
   516  0097                     	;# 
   517  0098                     	;# 
   518  0099                     	;# 
   519  009A                     	;# 
   520  009B                     	;# 
   521  009C                     	;# 
   522  009D                     	;# 
   523  009E                     	;# 
   524  009F                     	;# 
   525  0105                     	;# 
   526  0107                     	;# 
   527  0108                     	;# 
   528  0109                     	;# 
   529  010C                     	;# 
   530  010C                     	;# 
   531  010D                     	;# 
   532  010E                     	;# 
   533  010F                     	;# 
   534  0185                     	;# 
   535  0187                     	;# 
   536  0188                     	;# 
   537  0189                     	;# 
   538  018C                     	;# 
   539  018D                     	;# 
   540                           
   541                           	psect	idataBANK1
   542  07FB                     __pidataBANK1:
   543                           
   544                           ;initializer for _OLD_TEMP
   545  07FB  3496               	retlw	150
   546  07FC  3400               	retlw	0
   547                           
   548                           ;initializer for _last_mov
   549  07FD  3405               	retlw	5
   550  07FE  3400               	retlw	0
   551  0015                     _CCPR1L	set	21
   552  0012                     _T2CONbits	set	18
   553  001D                     _CCP2CONbits	set	29
   554  001D                     _CCP2CON	set	29
   555  0017                     _CCP1CONbits	set	23
   556  0017                     _CCP1CON	set	23
   557  001E                     _ADRESH	set	30
   558  0019                     _TXREG	set	25
   559  0018                     _RCSTAbits	set	24
   560  001F                     _ADCON0bits	set	31
   561  000C                     _PIR1bits	set	12
   562  0006                     _PORTBbits	set	6
   563  000B                     _INTCONbits	set	11
   564  0092                     _PR2	set	146
   565  0087                     _TRISCbits	set	135
   566  009E                     _ADRESL	set	158
   567  008C                     _PIE1bits	set	140
   568  009F                     _ADCON1bits	set	159
   569  0099                     _SPBRG	set	153
   570  009A                     _SPBRGH	set	154
   571  0098                     _TXSTAbits	set	152
   572  008F                     _OSCCONbits	set	143
   573  0096                     _IOCBbits	set	150
   574  0095                     _WPUBbits	set	149
   575  0081                     _OPTION_REGbits	set	129
   576  0086                     _TRISBbits	set	134
   577  0085                     _TRISAbits	set	133
   578  0187                     _BAUDCTLbits	set	391
   579  0189                     _ANSELH	set	393
   580  0188                     _ANSEL	set	392
   581                           
   582                           	psect	cinit
   583  0013                     start_initialization:	
   584                           ; #config settings
   585                           
   586  0013                     __initialization:
   587                           
   588                           ; Initialize objects allocated to BANK1
   589  0013  1683               	bsf	3,5	;RP0=1, select bank1
   590  0014  1303               	bcf	3,6	;RP1=0, select bank1
   591  0015  120A  118A  27FB  120A  118A  	fcall	__pidataBANK1	;fetch initializer
   592  001A  00D4               	movwf	__pdataBANK1& (0+127)
   593  001B  120A  118A  27FC  120A  118A  	fcall	__pidataBANK1+1	;fetch initializer
   594  0020  00D5               	movwf	(__pdataBANK1+1)& (0+127)
   595  0021  120A  118A  27FD  120A  118A  	fcall	__pidataBANK1+2	;fetch initializer
   596  0026  00D6               	movwf	(__pdataBANK1+2)& (0+127)
   597  0027  120A  118A  27FE  120A  118A  	fcall	__pidataBANK1+3	;fetch initializer
   598  002C  00D7               	movwf	(__pdataBANK1+3)& (0+127)
   599                           
   600                           ; Clear objects allocated to BANK1
   601  002D  01D0               	clrf	__pbssBANK1& (0+127)
   602  002E  01D1               	clrf	(__pbssBANK1+1)& (0+127)
   603  002F  01D2               	clrf	(__pbssBANK1+2)& (0+127)
   604  0030  01D3               	clrf	(__pbssBANK1+3)& (0+127)
   605  0031                     end_of_initialization:	
   606                           ;End of C runtime variable initialization code
   607                           
   608  0031                     __end_of__initialization:
   609  0031  0183               	clrf	3
   610  0032  120A  158A  2A49   	ljmp	_main	;jump to C main() function
   611                           
   612                           	psect	bssBANK1
   613  00D0                     __pbssBANK1:
   614  00D0                     _TEMP_POT:
   615  00D0                     	ds	2
   616  00D2                     _switch_servo:
   617  00D2                     	ds	2
   618                           
   619                           	psect	dataBANK1
   620  00D4                     __pdataBANK1:
   621  00D4                     _OLD_TEMP:
   622  00D4                     	ds	2
   623  00D6                     _last_mov:
   624  00D6                     	ds	2
   625                           
   626                           	psect	cstackBANK1
   627  00A0                     __pcstackBANK1:
   628  00A0                     ??___fltol:
   629                           
   630                           ; 1 bytes @ 0x0
   631  00A0                     	ds	5
   632  00A5                     ?_map:
   633  00A5                     map@x:	
   634                           ; 2 bytes @ 0x5
   635                           
   636                           
   637                           ; 2 bytes @ 0x5
   638  00A5                     	ds	2
   639  00A7                     map@x0:
   640                           
   641                           ; 1 bytes @ 0x7
   642  00A7                     	ds	1
   643  00A8                     map@x1:
   644                           
   645                           ; 2 bytes @ 0x8
   646  00A8                     	ds	2
   647  00AA                     map@y0:
   648                           
   649                           ; 2 bytes @ 0xA
   650  00AA                     	ds	2
   651  00AC                     map@y1:
   652                           
   653                           ; 2 bytes @ 0xC
   654  00AC                     	ds	2
   655  00AE                     ??_slave:
   656                           
   657                           ; 1 bytes @ 0xE
   658  00AE                     	ds	4
   659  00B2                     ??_adc_ch_switch:
   660  00B2                     ??_USART_send:	
   661                           ; 1 bytes @ 0x12
   662                           
   663  00B2                     ?_pwm_duty_cycle:	
   664                           ; 1 bytes @ 0x12
   665                           
   666  00B2                     ??_int_osc_MHz:	
   667                           ; 1 bytes @ 0x12
   668                           
   669  00B2                     ??_pwm_init:	
   670                           ; 1 bytes @ 0x12
   671                           
   672  00B2                     ?_adc_init:	
   673                           ; 1 bytes @ 0x12
   674                           
   675  00B2                     ?___lldiv:	
   676                           ; 1 bytes @ 0x12
   677                           
   678  00B2                     USART_send@data:	
   679                           ; 4 bytes @ 0x12
   680                           
   681  00B2                     adc_init@vref_plus:	
   682                           ; 1 bytes @ 0x12
   683                           
   684  00B2                     pwm_duty_cycle@duty_cycle:	
   685                           ; 1 bytes @ 0x12
   686                           
   687  00B2                     ___lldiv@divisor:	
   688                           ; 2 bytes @ 0x12
   689                           
   690                           
   691                           ; 4 bytes @ 0x12
   692  00B2                     	ds	1
   693  00B3                     ?_motor_dc:
   694  00B3                     adc_init@vref_minus:	
   695                           ; 1 bytes @ 0x13
   696                           
   697  00B3                     motor_dc@temp:	
   698                           ; 1 bytes @ 0x13
   699                           
   700                           
   701                           ; 2 bytes @ 0x13
   702  00B3                     	ds	1
   703  00B4                     ??_pwm_duty_cycle:
   704  00B4                     ??_adc_init:	
   705                           ; 1 bytes @ 0x14
   706                           
   707  00B4                     int_osc_MHz@freq:	
   708                           ; 1 bytes @ 0x14
   709                           
   710  00B4                     adc_ch_switch@channels:	
   711                           ; 1 bytes @ 0x14
   712                           
   713  00B4                     pwm_init@channel:	
   714                           ; 1 bytes @ 0x14
   715                           
   716                           
   717                           ; 1 bytes @ 0x14
   718  00B4                     	ds	1
   719  00B5                     ??_motor_dc:
   720                           
   721                           ; 1 bytes @ 0x15
   722  00B5                     	ds	1
   723  00B6                     ?_servo:
   724  00B6                     adc_init@adc_cs:	
   725                           ; 1 bytes @ 0x16
   726                           
   727  00B6                     servo@mov:	
   728                           ; 1 bytes @ 0x16
   729                           
   730  00B6                     ___lldiv@dividend:	
   731                           ; 2 bytes @ 0x16
   732                           
   733                           
   734                           ; 4 bytes @ 0x16
   735  00B6                     	ds	2
   736  00B8                     ??_servo:
   737                           
   738                           ; 1 bytes @ 0x18
   739  00B8                     	ds	2
   740  00BA                     ??___lldiv:
   741                           
   742                           ; 1 bytes @ 0x1A
   743  00BA                     	ds	1
   744  00BB                     ___lldiv@quotient:
   745                           
   746                           ; 4 bytes @ 0x1B
   747  00BB                     	ds	4
   748  00BF                     ___lldiv@counter:
   749                           
   750                           ; 1 bytes @ 0x1F
   751  00BF                     	ds	1
   752  00C0                     ?_USART_set:
   753  00C0                     USART_set@baudrate:	
   754                           ; 1 bytes @ 0x20
   755                           
   756                           
   757                           ; 4 bytes @ 0x20
   758  00C0                     	ds	4
   759  00C4                     ??_USART_set:
   760                           
   761                           ; 1 bytes @ 0x24
   762  00C4                     	ds	12
   763  00D0                     ??_setup:
   764  00D0                     ??_main:	
   765                           ; 1 bytes @ 0x30
   766                           
   767                           
   768                           	psect	cstackCOMMON
   769  0070                     __pcstackCOMMON:	
   770                           ; 1 bytes @ 0x30
   771                           
   772  0070                     ?_setup:
   773  0070                     ?_adc_ch_switch:	
   774                           ; 1 bytes @ 0x0
   775                           
   776  0070                     ?_USART_send:	
   777                           ; 1 bytes @ 0x0
   778                           
   779  0070                     ?_int_osc_MHz:	
   780                           ; 1 bytes @ 0x0
   781                           
   782  0070                     ?_pwm_init:	
   783                           ; 1 bytes @ 0x0
   784                           
   785  0070                     ?_slave:	
   786                           ; 1 bytes @ 0x0
   787                           
   788  0070                     ?_main:	
   789                           ; 1 bytes @ 0x0
   790                           
   791  0070                     ?_adc_read:	
   792                           ; 1 bytes @ 0x0
   793                           
   794  0070                     ?__Umul8_16:	
   795                           ; 2 bytes @ 0x0
   796                           
   797  0070                     ?___xxtofl:	
   798                           ; 2 bytes @ 0x0
   799                           
   800  0070                     __Umul8_16@multiplicand:	
   801                           ; 4 bytes @ 0x0
   802                           
   803  0070                     ___xxtofl@val:	
   804                           ; 1 bytes @ 0x0
   805                           
   806                           
   807                           ; 4 bytes @ 0x0
   808  0070                     	ds	2
   809  0072                     ??_adc_read:
   810  0072                     ??__Umul8_16:	
   811                           ; 1 bytes @ 0x2
   812                           
   813                           
   814                           ; 1 bytes @ 0x2
   815  0072                     	ds	2
   816  0074                     ??___xxtofl:
   817  0074                     __Umul8_16@product:	
   818                           ; 1 bytes @ 0x4
   819                           
   820                           
   821                           ; 2 bytes @ 0x4
   822  0074                     	ds	2
   823  0076                     __Umul8_16@word_mpld:
   824                           
   825                           ; 2 bytes @ 0x6
   826  0076                     	ds	2
   827  0078                     __Umul8_16@multiplier:
   828  0078                     ___xxtofl@sign:	
   829                           ; 1 bytes @ 0x8
   830                           
   831                           
   832                           ; 1 bytes @ 0x8
   833  0078                     	ds	1
   834  0079                     ___xxtofl@exp:
   835                           
   836                           ; 1 bytes @ 0x9
   837  0079                     	ds	1
   838  007A                     ___xxtofl@arg:
   839                           
   840                           ; 4 bytes @ 0xA
   841  007A                     	ds	4
   842  007E                     ??_map:
   843                           
   844                           	psect	cstackBANK0
   845  0020                     __pcstackBANK0:	
   846                           ; 1 bytes @ 0xE
   847                           
   848  0020                     ?___fldiv:
   849  0020                     ___fldiv@a:	
   850                           ; 4 bytes @ 0x0
   851                           
   852                           
   853                           ; 4 bytes @ 0x0
   854  0020                     	ds	4
   855  0024                     ___fldiv@b:
   856                           
   857                           ; 4 bytes @ 0x4
   858  0024                     	ds	4
   859  0028                     ??___fldiv:
   860                           
   861                           ; 1 bytes @ 0x8
   862  0028                     	ds	5
   863  002D                     ___fldiv@rem:
   864                           
   865                           ; 4 bytes @ 0xD
   866  002D                     	ds	4
   867  0031                     ___fldiv@sign:
   868                           
   869                           ; 1 bytes @ 0x11
   870  0031                     	ds	1
   871  0032                     ___fldiv@new_exp:
   872                           
   873                           ; 2 bytes @ 0x12
   874  0032                     	ds	2
   875  0034                     ___fldiv@grs:
   876                           
   877                           ; 4 bytes @ 0x14
   878  0034                     	ds	4
   879  0038                     ___fldiv@bexp:
   880                           
   881                           ; 1 bytes @ 0x18
   882  0038                     	ds	1
   883  0039                     ___fldiv@aexp:
   884                           
   885                           ; 1 bytes @ 0x19
   886  0039                     	ds	1
   887  003A                     ?___flmul:
   888  003A                     ___flmul@b:	
   889                           ; 4 bytes @ 0x1A
   890                           
   891                           
   892                           ; 4 bytes @ 0x1A
   893  003A                     	ds	4
   894  003E                     ___flmul@a:
   895                           
   896                           ; 4 bytes @ 0x1E
   897  003E                     	ds	4
   898  0042                     ??___flmul:
   899                           
   900                           ; 1 bytes @ 0x22
   901  0042                     	ds	5
   902  0047                     ___flmul@sign:
   903                           
   904                           ; 1 bytes @ 0x27
   905  0047                     	ds	1
   906  0048                     ___flmul@grs:
   907                           
   908                           ; 4 bytes @ 0x28
   909  0048                     	ds	4
   910  004C                     ___flmul@aexp:
   911                           
   912                           ; 1 bytes @ 0x2C
   913  004C                     	ds	1
   914  004D                     ___flmul@bexp:
   915                           
   916                           ; 1 bytes @ 0x2D
   917  004D                     	ds	1
   918  004E                     ___flmul@prod:
   919                           
   920                           ; 4 bytes @ 0x2E
   921  004E                     	ds	4
   922  0052                     ___flmul@temp:
   923                           
   924                           ; 2 bytes @ 0x32
   925  0052                     	ds	2
   926  0054                     ?___fladd:
   927  0054                     ___fladd@b:	
   928                           ; 4 bytes @ 0x34
   929                           
   930                           
   931                           ; 4 bytes @ 0x34
   932  0054                     	ds	4
   933  0058                     ___fladd@a:
   934                           
   935                           ; 4 bytes @ 0x38
   936  0058                     	ds	4
   937  005C                     ??___fladd:
   938                           
   939                           ; 1 bytes @ 0x3C
   940  005C                     	ds	8
   941  0064                     ___fladd@signs:
   942                           
   943                           ; 1 bytes @ 0x44
   944  0064                     	ds	1
   945  0065                     ___fladd@aexp:
   946                           
   947                           ; 1 bytes @ 0x45
   948  0065                     	ds	1
   949  0066                     ___fladd@bexp:
   950                           
   951                           ; 1 bytes @ 0x46
   952  0066                     	ds	1
   953  0067                     ___fladd@grs:
   954                           
   955                           ; 1 bytes @ 0x47
   956  0067                     	ds	1
   957  0068                     ?___fltol:
   958  0068                     ___fltol@f1:	
   959                           ; 4 bytes @ 0x48
   960                           
   961                           
   962                           ; 4 bytes @ 0x48
   963  0068                     	ds	4
   964  006C                     ___fltol@sign1:
   965                           
   966                           ; 1 bytes @ 0x4C
   967  006C                     	ds	1
   968  006D                     ___fltol@exp1:
   969                           
   970                           ; 1 bytes @ 0x4D
   971  006D                     	ds	1
   972                           
   973                           	psect	maintext
   974  0A49                     __pmaintext:	
   975 ;;
   976 ;;Main: autosize = 0, tempsize = 0, incstack = 0, save=0
   977 ;;
   978 ;; *************** function _main *****************
   979 ;; Defined at:
   980 ;;		line 94 in file "main_slave_p1.c"
   981 ;; Parameters:    Size  Location     Type
   982 ;;		None
   983 ;; Auto vars:     Size  Location     Type
   984 ;;		None
   985 ;; Return value:  Size  Location     Type
   986 ;;                  1    wreg      void 
   987 ;; Registers used:
   988 ;;		wreg, fsr0l, fsr0h, status,2, status,0, btemp+1, pclath, cstack
   989 ;; Tracked objects:
   990 ;;		On entry : B00/0
   991 ;;		On exit  : 0/0
   992 ;;		Unchanged: 0/0
   993 ;; Data sizes:     COMMON   BANK0   BANK1   BANK3   BANK2
   994 ;;      Params:         0       0       0       0       0
   995 ;;      Locals:         0       0       0       0       0
   996 ;;      Temps:          0       0       0       0       0
   997 ;;      Totals:         0       0       0       0       0
   998 ;;Total ram usage:        0 bytes
   999 ;; Hardware stack levels required when called: 7
  1000 ;; This function calls:
  1001 ;;		_adc_ch_switch
  1002 ;;		_motor_dc
  1003 ;;		_servo
  1004 ;;		_setup
  1005 ;; This function is called by:
  1006 ;;		Startup code after reset
  1007 ;; This function uses a non-reentrant model
  1008 ;;
  1009                           
  1010  0A49                     _main:	
  1011                           ;psect for function _main
  1012                           
  1013  0A49                     l2732:	
  1014                           ;incstack = 0
  1015                           ; Regs used in _main: [wreg-fsr0h+status,2+status,0+btemp+1+pclath+cstack]
  1016                           
  1017                           
  1018                           ;main_slave_p1.c: 95:     setup();
  1019  0A49  120A  158A  236C  120A  158A  	fcall	_setup
  1020  0A4E                     l69:	
  1021                           ;main_slave_p1.c: 96:     while(1){
  1022                           
  1023                           
  1024                           ;main_slave_p1.c: 97:         adc_ch_switch(1);
  1025  0A4E  3001               	movlw	1
  1026  0A4F  120A  158A  268F  120A  158A  	fcall	_adc_ch_switch
  1027  0A54                     l2734:
  1028                           
  1029                           ;main_slave_p1.c: 98:         motor_dc(TEMP_POT);
  1030  0A54  1683               	bsf	3,5	;RP0=1, select bank1
  1031  0A55  1303               	bcf	3,6	;RP1=0, select bank1
  1032  0A56  0851               	movf	(_TEMP_POT+1)^(0+128),w
  1033  0A57  00B4               	movwf	(motor_dc@temp+1)^(0+128)
  1034  0A58  0850               	movf	_TEMP_POT^(0+128),w
  1035  0A59  00B3               	movwf	motor_dc@temp^(0+128)
  1036  0A5A  120A  158A  2295  120A  158A  	fcall	_motor_dc
  1037  0A5F                     l2736:
  1038                           
  1039                           ;main_slave_p1.c: 99:         servo(switch_servo);
  1040  0A5F  1683               	bsf	3,5	;RP0=1, select bank1
  1041  0A60  1303               	bcf	3,6	;RP1=0, select bank1
  1042  0A61  0853               	movf	(_switch_servo+1)^(0+128),w
  1043  0A62  00B7               	movwf	(servo@mov+1)^(0+128)
  1044  0A63  0852               	movf	_switch_servo^(0+128),w
  1045  0A64  00B6               	movwf	servo@mov^(0+128)
  1046  0A65  120A  158A  22F6  120A  158A  	fcall	_servo
  1047  0A6A  2A4E               	goto	l69
  1048  0A6B  120A  118A  2810   	ljmp	start
  1049  0A6E                     __end_of_main:
  1050                           
  1051                           	psect	text1
  1052  0B6C                     __ptext1:	
  1053 ;; *************** function _setup *****************
  1054 ;; Defined at:
  1055 ;;		line 145 in file "main_slave_p1.c"
  1056 ;; Parameters:    Size  Location     Type
  1057 ;;		None
  1058 ;; Auto vars:     Size  Location     Type
  1059 ;;		None
  1060 ;; Return value:  Size  Location     Type
  1061 ;;                  1    wreg      void 
  1062 ;; Registers used:
  1063 ;;		wreg, fsr0l, fsr0h, status,2, status,0, pclath, cstack
  1064 ;; Tracked objects:
  1065 ;;		On entry : 0/0
  1066 ;;		On exit  : 0/0
  1067 ;;		Unchanged: 0/0
  1068 ;; Data sizes:     COMMON   BANK0   BANK1   BANK3   BANK2
  1069 ;;      Params:         0       0       0       0       0
  1070 ;;      Locals:         0       0       0       0       0
  1071 ;;      Temps:          0       0       0       0       0
  1072 ;;      Totals:         0       0       0       0       0
  1073 ;;Total ram usage:        0 bytes
  1074 ;; Hardware stack levels used: 1
  1075 ;; Hardware stack levels required when called: 6
  1076 ;; This function calls:
  1077 ;;		_USART_set
  1078 ;;		_adc_init
  1079 ;;		_int_osc_MHz
  1080 ;;		_pwm_init
  1081 ;; This function is called by:
  1082 ;;		_main
  1083 ;; This function uses a non-reentrant model
  1084 ;;
  1085                           
  1086  0B6C                     _setup:	
  1087                           ;psect for function _setup
  1088                           
  1089  0B6C                     l2592:	
  1090                           ;incstack = 0
  1091                           ; Regs used in _setup: [wreg-fsr0h+status,2+status,0+pclath+cstack]
  1092                           
  1093                           
  1094                           ;main_slave_p1.c: 146:     int_osc_MHz(1);
  1095  0B6C  3001               	movlw	1
  1096  0B6D  120A  158A  22C3  120A  158A  	fcall	_int_osc_MHz
  1097  0B72                     l2594:
  1098                           
  1099                           ;main_slave_p1.c: 149:     ANSEL = 0x01;
  1100  0B72  3001               	movlw	1
  1101  0B73  1683               	bsf	3,5	;RP0=1, select bank3
  1102  0B74  1703               	bsf	3,6	;RP1=1, select bank3
  1103  0B75  0088               	movwf	8	;volatile
  1104  0B76                     l2596:
  1105                           
  1106                           ;main_slave_p1.c: 150:     ANSELH = 0;
  1107  0B76  0189               	clrf	9	;volatile
  1108  0B77                     l2598:
  1109                           
  1110                           ;main_slave_p1.c: 151:     TRISAbits.TRISA0 = 1;
  1111  0B77  1683               	bsf	3,5	;RP0=1, select bank1
  1112  0B78  1303               	bcf	3,6	;RP1=0, select bank1
  1113  0B79  1405               	bsf	5,0	;volatile
  1114  0B7A                     l2600:
  1115                           
  1116                           ;main_slave_p1.c: 153:     TRISBbits.TRISB0 = 0;
  1117  0B7A  1006               	bcf	6,0	;volatile
  1118  0B7B                     l2602:
  1119                           
  1120                           ;main_slave_p1.c: 154:     PORTBbits.RB0 = 0;
  1121  0B7B  1283               	bcf	3,5	;RP0=0, select bank0
  1122  0B7C  1303               	bcf	3,6	;RP1=0, select bank0
  1123  0B7D  1006               	bcf	6,0	;volatile
  1124  0B7E                     l2604:
  1125                           
  1126                           ;main_slave_p1.c: 155:     TRISBbits.TRISB1 = 1;
  1127  0B7E  1683               	bsf	3,5	;RP0=1, select bank1
  1128  0B7F  1303               	bcf	3,6	;RP1=0, select bank1
  1129  0B80  1486               	bsf	6,1	;volatile
  1130  0B81                     l2606:
  1131                           
  1132                           ;main_slave_p1.c: 156:     PORTBbits.RB1 = 0;
  1133  0B81  1283               	bcf	3,5	;RP0=0, select bank0
  1134  0B82  1303               	bcf	3,6	;RP1=0, select bank0
  1135  0B83  1086               	bcf	6,1	;volatile
  1136  0B84                     l2608:
  1137                           
  1138                           ;main_slave_p1.c: 157:     OPTION_REGbits.nRBPU = 0;
  1139  0B84  1683               	bsf	3,5	;RP0=1, select bank1
  1140  0B85  1303               	bcf	3,6	;RP1=0, select bank1
  1141  0B86  1381               	bcf	1,7	;volatile
  1142  0B87                     l2610:
  1143                           
  1144                           ;main_slave_p1.c: 158:     WPUBbits.WPUB = 0x02;
  1145  0B87  3002               	movlw	2
  1146  0B88  0095               	movwf	21	;volatile
  1147  0B89                     l2612:
  1148                           
  1149                           ;main_slave_p1.c: 160:     pwm_init(1);
  1150  0B89  3001               	movlw	1
  1151  0B8A  120A  158A  2330  120A  158A  	fcall	_pwm_init
  1152  0B8F                     l2614:
  1153                           
  1154                           ;main_slave_p1.c: 161:     USART_set(9600);
  1155  0B8F  3000               	movlw	0
  1156  0B90  1683               	bsf	3,5	;RP0=1, select bank1
  1157  0B91  1303               	bcf	3,6	;RP1=0, select bank1
  1158  0B92  00C3               	movwf	(USART_set@baudrate+3)^(0+128)
  1159  0B93  3000               	movlw	0
  1160  0B94  00C2               	movwf	(USART_set@baudrate+2)^(0+128)
  1161  0B95  3025               	movlw	37
  1162  0B96  00C1               	movwf	(USART_set@baudrate+1)^(0+128)
  1163  0B97  3080               	movlw	128
  1164  0B98  00C0               	movwf	USART_set@baudrate^(0+128)
  1165  0B99  120A  158A  246F  120A  158A  	fcall	_USART_set
  1166  0B9E                     l2616:
  1167                           
  1168                           ;main_slave_p1.c: 162:     adc_init(0,0,0);
  1169  0B9E  1683               	bsf	3,5	;RP0=1, select bank1
  1170  0B9F  1303               	bcf	3,6	;RP1=0, select bank1
  1171  0BA0  01B2               	clrf	adc_init@vref_plus^(0+128)
  1172  0BA1  01B3               	clrf	adc_init@vref_minus^(0+128)
  1173  0BA2  3000               	movlw	0
  1174  0BA3  120A  158A  24D8  120A  158A  	fcall	_adc_init
  1175  0BA8                     l2618:
  1176                           
  1177                           ;main_slave_p1.c: 165:     INTCONbits.GIE = 1;
  1178  0BA8  178B               	bsf	11,7	;volatile
  1179  0BA9                     l2620:
  1180                           
  1181                           ;main_slave_p1.c: 166:     INTCONbits.PEIE = 1;
  1182  0BA9  170B               	bsf	11,6	;volatile
  1183  0BAA                     l2622:
  1184                           
  1185                           ;main_slave_p1.c: 167:     INTCONbits.RBIE = 1;
  1186  0BAA  158B               	bsf	11,3	;volatile
  1187  0BAB                     l2624:
  1188                           
  1189                           ;main_slave_p1.c: 168:     IOCBbits.IOCB1 = 1;
  1190  0BAB  1683               	bsf	3,5	;RP0=1, select bank1
  1191  0BAC  1303               	bcf	3,6	;RP1=0, select bank1
  1192  0BAD  1496               	bsf	22,1	;volatile
  1193  0BAE                     l2626:
  1194                           
  1195                           ;main_slave_p1.c: 169:     INTCONbits.RBIF = 0;
  1196  0BAE  100B               	bcf	11,0	;volatile
  1197  0BAF                     l90:
  1198  0BAF  0008               	return
  1199  0BB0                     __end_of_setup:
  1200                           
  1201                           	psect	text2
  1202  0B30                     __ptext2:	
  1203 ;; *************** function _pwm_init *****************
  1204 ;; Defined at:
  1205 ;;		line 12 in file "pwm.c"
  1206 ;; Parameters:    Size  Location     Type
  1207 ;;  channel         1    wreg     unsigned char 
  1208 ;; Auto vars:     Size  Location     Type
  1209 ;;  channel         1   20[BANK1 ] unsigned char 
  1210 ;; Return value:  Size  Location     Type
  1211 ;;                  1    wreg      void 
  1212 ;; Registers used:
  1213 ;;		wreg, fsr0l, fsr0h, status,2, status,0
  1214 ;; Tracked objects:
  1215 ;;		On entry : 0/0
  1216 ;;		On exit  : 0/0
  1217 ;;		Unchanged: 0/0
  1218 ;; Data sizes:     COMMON   BANK0   BANK1   BANK3   BANK2
  1219 ;;      Params:         0       0       0       0       0
  1220 ;;      Locals:         0       0       1       0       0
  1221 ;;      Temps:          0       0       2       0       0
  1222 ;;      Totals:         0       0       3       0       0
  1223 ;;Total ram usage:        3 bytes
  1224 ;; Hardware stack levels used: 1
  1225 ;; Hardware stack levels required when called: 4
  1226 ;; This function calls:
  1227 ;;		Nothing
  1228 ;; This function is called by:
  1229 ;;		_setup
  1230 ;; This function uses a non-reentrant model
  1231 ;;
  1232                           
  1233  0B30                     _pwm_init:	
  1234                           ;psect for function _pwm_init
  1235                           
  1236                           
  1237                           ;incstack = 0
  1238                           ; Regs used in _pwm_init: [wreg-fsr0h+status,2+status,0]
  1239                           ;pwm_init@channel stored from wreg
  1240  0B30  1683               	bsf	3,5	;RP0=1, select bank1
  1241  0B31  1303               	bcf	3,6	;RP1=0, select bank1
  1242  0B32  00B4               	movwf	pwm_init@channel^(0+128)
  1243  0B33                     l1940:
  1244                           
  1245                           ;pwm.c: 13:     switch(channel) {
  1246  0B33  2B48               	goto	l1954
  1247  0B34                     l212:	
  1248                           ;pwm.c: 14:         case 1:
  1249                           
  1250                           
  1251                           ;pwm.c: 15:             TRISCbits.TRISC2 = 1;
  1252  0B34  1507               	bsf	7,2	;volatile
  1253  0B35                     l1942:
  1254                           
  1255                           ;pwm.c: 16:             CCP1CON = 0;
  1256  0B35  1283               	bcf	3,5	;RP0=0, select bank0
  1257  0B36  1303               	bcf	3,6	;RP1=0, select bank0
  1258  0B37  0197               	clrf	23	;volatile
  1259  0B38                     l1944:
  1260                           
  1261                           ;pwm.c: 17:             CCP1CONbits.P1M = 0;
  1262  0B38  303F               	movlw	-193
  1263  0B39  0597               	andwf	23,f	;volatile
  1264  0B3A                     l1946:
  1265                           
  1266                           ;pwm.c: 18:             CCP1CONbits.CCP1M = 0b1100;
  1267  0B3A  0817               	movf	23,w	;volatile
  1268  0B3B  39F0               	andlw	-16
  1269  0B3C  380C               	iorlw	12
  1270  0B3D  0097               	movwf	23	;volatile
  1271                           
  1272                           ;pwm.c: 19:             break;
  1273  0B3E  2B58               	goto	l1956
  1274  0B3F                     l214:	
  1275                           ;pwm.c: 20:         case 2:
  1276                           
  1277                           
  1278                           ;pwm.c: 21:             TRISCbits.TRISC1 = 1;
  1279  0B3F  1487               	bsf	7,1	;volatile
  1280  0B40                     l1948:
  1281                           
  1282                           ;pwm.c: 22:             CCP2CON = 0;
  1283  0B40  1283               	bcf	3,5	;RP0=0, select bank0
  1284  0B41  1303               	bcf	3,6	;RP1=0, select bank0
  1285  0B42  019D               	clrf	29	;volatile
  1286  0B43                     l1950:
  1287                           
  1288                           ;pwm.c: 23:             CCP2CONbits.CCP2M = 0b1100;
  1289  0B43  081D               	movf	29,w	;volatile
  1290  0B44  39F0               	andlw	-16
  1291  0B45  380C               	iorlw	12
  1292  0B46  009D               	movwf	29	;volatile
  1293                           
  1294                           ;pwm.c: 24:             break;
  1295  0B47  2B58               	goto	l1956
  1296  0B48                     l1954:
  1297  0B48  0834               	movf	pwm_init@channel^(0+128),w
  1298  0B49  00B2               	movwf	??_pwm_init^(0+128)
  1299  0B4A  01B3               	clrf	(??_pwm_init^(0+128)+1)
  1300                           
  1301                           ; Switch on 2 bytes has been partitioned into a top level switch of size 1, and 1 sub-sw
      +                          itches
  1302                           ; Switch size 1, requested type "simple"
  1303                           ; Number of cases is 1, Range of values is 0 to 0
  1304                           ; switch strategies available:
  1305                           ; Name         Instructions Cycles
  1306                           ; simple_byte            4     3 (average)
  1307                           ; direct_byte           11     8 (fixed)
  1308                           ; jumptable            260     6 (fixed)
  1309                           ;	Chosen strategy is simple_byte
  1310  0B4B  0833               	movf	(??_pwm_init+1)^(0+128),w
  1311  0B4C  3A00               	xorlw	0	; case 0
  1312  0B4D  1903               	skipnz
  1313  0B4E  2B50               	goto	l2926
  1314  0B4F  2B58               	goto	l1956
  1315  0B50                     l2926:
  1316                           
  1317                           ; Switch size 1, requested type "simple"
  1318                           ; Number of cases is 2, Range of values is 1 to 2
  1319                           ; switch strategies available:
  1320                           ; Name         Instructions Cycles
  1321                           ; simple_byte            7     4 (average)
  1322                           ; direct_byte           17    11 (fixed)
  1323                           ; jumptable            263     9 (fixed)
  1324                           ;	Chosen strategy is simple_byte
  1325  0B50  0832               	movf	??_pwm_init^(0+128),w
  1326  0B51  3A01               	xorlw	1	; case 1
  1327  0B52  1903               	skipnz
  1328  0B53  2B34               	goto	l212
  1329  0B54  3A03               	xorlw	3	; case 2
  1330  0B55  1903               	skipnz
  1331  0B56  2B3F               	goto	l214
  1332  0B57  2B58               	goto	l1956
  1333  0B58                     l1956:
  1334                           
  1335                           ;pwm.c: 28:     T2CONbits.T2CKPS = 0b11;
  1336  0B58  3003               	movlw	3
  1337  0B59  1283               	bcf	3,5	;RP0=0, select bank0
  1338  0B5A  0492               	iorwf	18,f	;volatile
  1339  0B5B                     l1958:
  1340                           
  1341                           ;pwm.c: 29:     PR2 = 255;
  1342  0B5B  30FF               	movlw	255
  1343  0B5C  1683               	bsf	3,5	;RP0=1, select bank1
  1344  0B5D  1303               	bcf	3,6	;RP1=0, select bank1
  1345  0B5E  0092               	movwf	18	;volatile
  1346  0B5F                     l1960:
  1347                           
  1348                           ;pwm.c: 32:     PIR1bits.TMR2IF = 0;
  1349  0B5F  1283               	bcf	3,5	;RP0=0, select bank0
  1350  0B60  1303               	bcf	3,6	;RP1=0, select bank0
  1351  0B61  108C               	bcf	12,1	;volatile
  1352  0B62                     l1962:
  1353                           
  1354                           ;pwm.c: 33:     T2CONbits.TMR2ON = 1;
  1355  0B62  1512               	bsf	18,2	;volatile
  1356  0B63                     l216:	
  1357                           ;pwm.c: 34:     while(!PIR1bits.TMR2IF);
  1358                           
  1359  0B63  1C8C               	btfss	12,1	;volatile
  1360  0B64  2B66               	goto	u1831
  1361  0B65  2B67               	goto	u1830
  1362  0B66                     u1831:
  1363  0B66  2B63               	goto	l216
  1364  0B67                     u1830:
  1365  0B67                     l218:
  1366                           
  1367                           ;pwm.c: 35:     PIR1bits.TMR2IF = 0;
  1368  0B67  108C               	bcf	12,1	;volatile
  1369                           
  1370                           ;pwm.c: 36:     TRISCbits.TRISC2 = 0;
  1371  0B68  1683               	bsf	3,5	;RP0=1, select bank1
  1372  0B69  1303               	bcf	3,6	;RP1=0, select bank1
  1373  0B6A  1107               	bcf	7,2	;volatile
  1374  0B6B                     l219:
  1375  0B6B  0008               	return
  1376  0B6C                     __end_of_pwm_init:
  1377                           
  1378                           	psect	text3
  1379  0AC3                     __ptext3:	
  1380 ;; *************** function _int_osc_MHz *****************
  1381 ;; Defined at:
  1382 ;;		line 13 in file "osc.c"
  1383 ;; Parameters:    Size  Location     Type
  1384 ;;  freq            1    wreg     unsigned char 
  1385 ;; Auto vars:     Size  Location     Type
  1386 ;;  freq            1   20[BANK1 ] unsigned char 
  1387 ;; Return value:  Size  Location     Type
  1388 ;;                  1    wreg      void 
  1389 ;; Registers used:
  1390 ;;		wreg, fsr0l, fsr0h, status,2, status,0
  1391 ;; Tracked objects:
  1392 ;;		On entry : 0/0
  1393 ;;		On exit  : 0/0
  1394 ;;		Unchanged: 0/0
  1395 ;; Data sizes:     COMMON   BANK0   BANK1   BANK3   BANK2
  1396 ;;      Params:         0       0       0       0       0
  1397 ;;      Locals:         0       0       1       0       0
  1398 ;;      Temps:          0       0       2       0       0
  1399 ;;      Totals:         0       0       3       0       0
  1400 ;;Total ram usage:        3 bytes
  1401 ;; Hardware stack levels used: 1
  1402 ;; Hardware stack levels required when called: 4
  1403 ;; This function calls:
  1404 ;;		Nothing
  1405 ;; This function is called by:
  1406 ;;		_setup
  1407 ;; This function uses a non-reentrant model
  1408 ;;
  1409                           
  1410  0AC3                     _int_osc_MHz:	
  1411                           ;psect for function _int_osc_MHz
  1412                           
  1413                           
  1414                           ;incstack = 0
  1415                           ; Regs used in _int_osc_MHz: [wreg-fsr0h+status,2+status,0]
  1416                           ;int_osc_MHz@freq stored from wreg
  1417  0AC3  1683               	bsf	3,5	;RP0=1, select bank1
  1418  0AC4  1303               	bcf	3,6	;RP1=0, select bank1
  1419  0AC5  00B4               	movwf	int_osc_MHz@freq^(0+128)
  1420  0AC6                     l1918:
  1421                           
  1422                           ;osc.c: 14:     switch(freq){
  1423  0AC6  2ADE               	goto	l1932
  1424  0AC7                     l1920:
  1425                           
  1426                           ;osc.c: 16:             OSCCONbits.IRCF = 0b100;
  1427  0AC7  080F               	movf	15,w	;volatile
  1428  0AC8  398F               	andlw	-113
  1429  0AC9  3840               	iorlw	64
  1430  0ACA  008F               	movwf	15	;volatile
  1431                           
  1432                           ;osc.c: 17:             break;
  1433  0ACB  2AF4               	goto	l97
  1434  0ACC                     l1922:
  1435                           
  1436                           ;osc.c: 19:             OSCCONbits.IRCF = 0b101;
  1437  0ACC  080F               	movf	15,w	;volatile
  1438  0ACD  398F               	andlw	-113
  1439  0ACE  3850               	iorlw	80
  1440  0ACF  008F               	movwf	15	;volatile
  1441                           
  1442                           ;osc.c: 20:             break;
  1443  0AD0  2AF4               	goto	l97
  1444  0AD1                     l1924:
  1445                           
  1446                           ;osc.c: 22:             OSCCONbits.IRCF = 0b110;
  1447  0AD1  080F               	movf	15,w	;volatile
  1448  0AD2  398F               	andlw	-113
  1449  0AD3  3860               	iorlw	96
  1450  0AD4  008F               	movwf	15	;volatile
  1451                           
  1452                           ;osc.c: 23:             break;
  1453  0AD5  2AF4               	goto	l97
  1454  0AD6                     l1926:
  1455                           
  1456                           ;osc.c: 25:             OSCCONbits.IRCF = 0b111;
  1457  0AD6  3070               	movlw	112
  1458  0AD7  048F               	iorwf	15,f	;volatile
  1459                           
  1460                           ;osc.c: 26:             break;
  1461  0AD8  2AF4               	goto	l97
  1462  0AD9                     l1928:
  1463                           
  1464                           ;osc.c: 28:             OSCCONbits.IRCF = 0b110;
  1465  0AD9  080F               	movf	15,w	;volatile
  1466  0ADA  398F               	andlw	-113
  1467  0ADB  3860               	iorlw	96
  1468  0ADC  008F               	movwf	15	;volatile
  1469                           
  1470                           ;osc.c: 29:             break;
  1471  0ADD  2AF4               	goto	l97
  1472  0ADE                     l1932:
  1473  0ADE  0834               	movf	int_osc_MHz@freq^(0+128),w
  1474  0ADF  00B2               	movwf	??_int_osc_MHz^(0+128)
  1475  0AE0  01B3               	clrf	(??_int_osc_MHz^(0+128)+1)
  1476                           
  1477                           ; Switch on 2 bytes has been partitioned into a top level switch of size 1, and 1 sub-sw
      +                          itches
  1478                           ; Switch size 1, requested type "simple"
  1479                           ; Number of cases is 1, Range of values is 0 to 0
  1480                           ; switch strategies available:
  1481                           ; Name         Instructions Cycles
  1482                           ; simple_byte            4     3 (average)
  1483                           ; direct_byte           11     8 (fixed)
  1484                           ; jumptable            260     6 (fixed)
  1485                           ;	Chosen strategy is simple_byte
  1486  0AE1  0833               	movf	(??_int_osc_MHz+1)^(0+128),w
  1487  0AE2  3A00               	xorlw	0	; case 0
  1488  0AE3  1903               	skipnz
  1489  0AE4  2AE6               	goto	l2928
  1490  0AE5  2AD9               	goto	l1928
  1491  0AE6                     l2928:
  1492                           
  1493                           ; Switch size 1, requested type "simple"
  1494                           ; Number of cases is 4, Range of values is 1 to 8
  1495                           ; switch strategies available:
  1496                           ; Name         Instructions Cycles
  1497                           ; simple_byte           13     7 (average)
  1498                           ; direct_byte           35    11 (fixed)
  1499                           ; jumptable            263     9 (fixed)
  1500                           ;	Chosen strategy is simple_byte
  1501  0AE6  0832               	movf	??_int_osc_MHz^(0+128),w
  1502  0AE7  3A01               	xorlw	1	; case 1
  1503  0AE8  1903               	skipnz
  1504  0AE9  2AC7               	goto	l1920
  1505  0AEA  3A03               	xorlw	3	; case 2
  1506  0AEB  1903               	skipnz
  1507  0AEC  2ACC               	goto	l1922
  1508  0AED  3A06               	xorlw	6	; case 4
  1509  0AEE  1903               	skipnz
  1510  0AEF  2AD1               	goto	l1924
  1511  0AF0  3A0C               	xorlw	12	; case 8
  1512  0AF1  1903               	skipnz
  1513  0AF2  2AD6               	goto	l1926
  1514  0AF3  2AD9               	goto	l1928
  1515  0AF4                     l97:
  1516                           
  1517                           ;osc.c: 31:     OSCCONbits.SCS = 1;
  1518  0AF4  140F               	bsf	15,0	;volatile
  1519  0AF5                     l102:
  1520  0AF5  0008               	return
  1521  0AF6                     __end_of_int_osc_MHz:
  1522                           
  1523                           	psect	text4
  1524  0CD8                     __ptext4:	
  1525 ;; *************** function _adc_init *****************
  1526 ;; Defined at:
  1527 ;;		line 14 in file "adc.c"
  1528 ;; Parameters:    Size  Location     Type
  1529 ;;  adc_cs          1    wreg     unsigned char 
  1530 ;;  vref_plus       1   18[BANK1 ] unsigned char 
  1531 ;;  vref_minus      1   19[BANK1 ] unsigned char 
  1532 ;; Auto vars:     Size  Location     Type
  1533 ;;  adc_cs          1   22[BANK1 ] unsigned char 
  1534 ;; Return value:  Size  Location     Type
  1535 ;;                  1    wreg      void 
  1536 ;; Registers used:
  1537 ;;		wreg, fsr0l, fsr0h, status,2, status,0
  1538 ;; Tracked objects:
  1539 ;;		On entry : 0/0
  1540 ;;		On exit  : 0/0
  1541 ;;		Unchanged: 0/0
  1542 ;; Data sizes:     COMMON   BANK0   BANK1   BANK3   BANK2
  1543 ;;      Params:         0       0       2       0       0
  1544 ;;      Locals:         0       0       1       0       0
  1545 ;;      Temps:          0       0       2       0       0
  1546 ;;      Totals:         0       0       5       0       0
  1547 ;;Total ram usage:        5 bytes
  1548 ;; Hardware stack levels used: 1
  1549 ;; Hardware stack levels required when called: 4
  1550 ;; This function calls:
  1551 ;;		Nothing
  1552 ;; This function is called by:
  1553 ;;		_setup
  1554 ;; This function uses a non-reentrant model
  1555 ;;
  1556                           
  1557  0CD8                     _adc_init:	
  1558                           ;psect for function _adc_init
  1559                           
  1560                           
  1561                           ;incstack = 0
  1562                           ; Regs used in _adc_init: [wreg-fsr0h+status,2+status,0]
  1563                           ;adc_init@adc_cs stored from wreg
  1564  0CD8  1683               	bsf	3,5	;RP0=1, select bank1
  1565  0CD9  1303               	bcf	3,6	;RP1=0, select bank1
  1566  0CDA  00B6               	movwf	adc_init@adc_cs^(0+128)
  1567  0CDB                     l1984:
  1568                           
  1569                           ;adc.c: 15:     switch(adc_cs){
  1570  0CDB  2CFB               	goto	l1998
  1571  0CDC                     l1986:
  1572                           
  1573                           ;adc.c: 17:             ADCON0bits.ADCS = 0b00;
  1574  0CDC  303F               	movlw	-193
  1575  0CDD  1283               	bcf	3,5	;RP0=0, select bank0
  1576  0CDE  1303               	bcf	3,6	;RP1=0, select bank0
  1577  0CDF  059F               	andwf	31,f	;volatile
  1578                           
  1579                           ;adc.c: 18:             break;
  1580  0CE0  2D17               	goto	l2002
  1581  0CE1                     l1988:
  1582                           
  1583                           ;adc.c: 20:             ADCON0bits.ADCS = 0b01;
  1584  0CE1  1283               	bcf	3,5	;RP0=0, select bank0
  1585  0CE2  1303               	bcf	3,6	;RP1=0, select bank0
  1586  0CE3  081F               	movf	31,w	;volatile
  1587  0CE4  393F               	andlw	-193
  1588  0CE5  3840               	iorlw	64
  1589  0CE6  009F               	movwf	31	;volatile
  1590                           
  1591                           ;adc.c: 21:             break;
  1592  0CE7  2D17               	goto	l2002
  1593  0CE8                     l1990:
  1594                           
  1595                           ;adc.c: 23:             ADCON0bits.ADCS = 0b10;
  1596  0CE8  1283               	bcf	3,5	;RP0=0, select bank0
  1597  0CE9  1303               	bcf	3,6	;RP1=0, select bank0
  1598  0CEA  081F               	movf	31,w	;volatile
  1599  0CEB  393F               	andlw	-193
  1600  0CEC  3880               	iorlw	128
  1601  0CED  009F               	movwf	31	;volatile
  1602                           
  1603                           ;adc.c: 24:             break;
  1604  0CEE  2D17               	goto	l2002
  1605  0CEF                     l1992:
  1606                           
  1607                           ;adc.c: 26:             ADCON0bits.ADCS = 0b11;
  1608  0CEF  30C0               	movlw	192
  1609  0CF0  1283               	bcf	3,5	;RP0=0, select bank0
  1610  0CF1  1303               	bcf	3,6	;RP1=0, select bank0
  1611  0CF2  049F               	iorwf	31,f	;volatile
  1612                           
  1613                           ;adc.c: 27:             break;
  1614  0CF3  2D17               	goto	l2002
  1615  0CF4                     l1994:
  1616                           
  1617                           ;adc.c: 29:             ADCON0bits.ADCS = 0b01;
  1618  0CF4  1283               	bcf	3,5	;RP0=0, select bank0
  1619  0CF5  1303               	bcf	3,6	;RP1=0, select bank0
  1620  0CF6  081F               	movf	31,w	;volatile
  1621  0CF7  393F               	andlw	-193
  1622  0CF8  3840               	iorlw	64
  1623  0CF9  009F               	movwf	31	;volatile
  1624                           
  1625                           ;adc.c: 30:             break;
  1626  0CFA  2D17               	goto	l2002
  1627  0CFB                     l1998:
  1628  0CFB  0836               	movf	adc_init@adc_cs^(0+128),w
  1629  0CFC  00B4               	movwf	??_adc_init^(0+128)
  1630  0CFD  01B5               	clrf	(??_adc_init^(0+128)+1)
  1631                           
  1632                           ; Switch on 2 bytes has been partitioned into a top level switch of size 1, and 1 sub-sw
      +                          itches
  1633                           ; Switch size 1, requested type "simple"
  1634                           ; Number of cases is 1, Range of values is 0 to 0
  1635                           ; switch strategies available:
  1636                           ; Name         Instructions Cycles
  1637                           ; simple_byte            4     3 (average)
  1638                           ; direct_byte           11     8 (fixed)
  1639                           ; jumptable            260     6 (fixed)
  1640                           ;	Chosen strategy is simple_byte
  1641  0CFE  0835               	movf	(??_adc_init+1)^(0+128),w
  1642  0CFF  3A00               	xorlw	0	; case 0
  1643  0D00  1903               	skipnz
  1644  0D01  2D03               	goto	l2930
  1645  0D02  2CF4               	goto	l1994
  1646  0D03                     l2930:
  1647                           
  1648                           ; Switch size 1, requested type "simple"
  1649                           ; Number of cases is 4, Range of values is 0 to 3
  1650                           ; switch strategies available:
  1651                           ; Name         Instructions Cycles
  1652                           ; simple_byte           13     7 (average)
  1653                           ; direct_byte           20     8 (fixed)
  1654                           ; jumptable            260     6 (fixed)
  1655                           ;	Chosen strategy is simple_byte
  1656  0D03  0834               	movf	??_adc_init^(0+128),w
  1657  0D04  3A00               	xorlw	0	; case 0
  1658  0D05  1903               	skipnz
  1659  0D06  2CDC               	goto	l1986
  1660  0D07  3A01               	xorlw	1	; case 1
  1661  0D08  1903               	skipnz
  1662  0D09  2CE1               	goto	l1988
  1663  0D0A  3A03               	xorlw	3	; case 2
  1664  0D0B  1903               	skipnz
  1665  0D0C  2CE8               	goto	l1990
  1666  0D0D  3A01               	xorlw	1	; case 3
  1667  0D0E  1903               	skipnz
  1668  0D0F  2CEF               	goto	l1992
  1669  0D10  2CF4               	goto	l1994
  1670  0D11                     l154:	
  1671                           ;adc.c: 33:         case 0:
  1672                           
  1673                           
  1674                           ;adc.c: 34:             ADCON1bits.VCFG0 = 0;
  1675  0D11  121F               	bcf	31,4	;volatile
  1676                           
  1677                           ;adc.c: 35:             break;
  1678  0D12  2D2F               	goto	l2006
  1679  0D13                     l156:	
  1680                           ;adc.c: 36:         case 1:
  1681                           
  1682                           
  1683                           ;adc.c: 37:             ADCON1bits.VCFG0 = 1;
  1684  0D13  161F               	bsf	31,4	;volatile
  1685                           
  1686                           ;adc.c: 38:             break;
  1687  0D14  2D2F               	goto	l2006
  1688  0D15                     l157:	
  1689                           ;adc.c: 39:         default:
  1690                           
  1691                           
  1692                           ;adc.c: 40:             ADCON1bits.VCFG0 = 0;
  1693  0D15  121F               	bcf	31,4	;volatile
  1694                           
  1695                           ;adc.c: 41:             break;
  1696  0D16  2D2F               	goto	l2006
  1697  0D17                     l2002:
  1698  0D17  1683               	bsf	3,5	;RP0=1, select bank1
  1699  0D18  1303               	bcf	3,6	;RP1=0, select bank1
  1700  0D19  0832               	movf	adc_init@vref_plus^(0+128),w
  1701  0D1A  00B4               	movwf	??_adc_init^(0+128)
  1702  0D1B  01B5               	clrf	(??_adc_init^(0+128)+1)
  1703                           
  1704                           ; Switch on 2 bytes has been partitioned into a top level switch of size 1, and 1 sub-sw
      +                          itches
  1705                           ; Switch size 1, requested type "simple"
  1706                           ; Number of cases is 1, Range of values is 0 to 0
  1707                           ; switch strategies available:
  1708                           ; Name         Instructions Cycles
  1709                           ; simple_byte            4     3 (average)
  1710                           ; direct_byte           11     8 (fixed)
  1711                           ; jumptable            260     6 (fixed)
  1712                           ;	Chosen strategy is simple_byte
  1713  0D1C  0835               	movf	(??_adc_init+1)^(0+128),w
  1714  0D1D  3A00               	xorlw	0	; case 0
  1715  0D1E  1903               	skipnz
  1716  0D1F  2D21               	goto	l2932
  1717  0D20  2D15               	goto	l157
  1718  0D21                     l2932:
  1719                           
  1720                           ; Switch size 1, requested type "simple"
  1721                           ; Number of cases is 2, Range of values is 0 to 1
  1722                           ; switch strategies available:
  1723                           ; Name         Instructions Cycles
  1724                           ; simple_byte            7     4 (average)
  1725                           ; direct_byte           14     8 (fixed)
  1726                           ; jumptable            260     6 (fixed)
  1727                           ;	Chosen strategy is simple_byte
  1728  0D21  0834               	movf	??_adc_init^(0+128),w
  1729  0D22  3A00               	xorlw	0	; case 0
  1730  0D23  1903               	skipnz
  1731  0D24  2D11               	goto	l154
  1732  0D25  3A01               	xorlw	1	; case 1
  1733  0D26  1903               	skipnz
  1734  0D27  2D13               	goto	l156
  1735  0D28  2D15               	goto	l157
  1736  0D29                     l159:	
  1737                           ;adc.c: 44:         case 0:
  1738                           
  1739                           
  1740                           ;adc.c: 45:             ADCON1bits.VCFG1 = 0;
  1741  0D29  129F               	bcf	31,5	;volatile
  1742                           
  1743                           ;adc.c: 46:             break;
  1744  0D2A  2D3F               	goto	l160
  1745  0D2B                     l161:	
  1746                           ;adc.c: 47:         case 1:
  1747                           
  1748                           
  1749                           ;adc.c: 48:             ADCON1bits.VCFG1 = 1;
  1750  0D2B  169F               	bsf	31,5	;volatile
  1751                           
  1752                           ;adc.c: 49:             break;
  1753  0D2C  2D3F               	goto	l160
  1754  0D2D                     l162:	
  1755                           ;adc.c: 50:         default:
  1756                           
  1757                           
  1758                           ;adc.c: 51:             ADCON1bits.VCFG1 = 0;
  1759  0D2D  129F               	bcf	31,5	;volatile
  1760                           
  1761                           ;adc.c: 52:             break;
  1762  0D2E  2D3F               	goto	l160
  1763  0D2F                     l2006:
  1764  0D2F  0833               	movf	adc_init@vref_minus^(0+128),w
  1765  0D30  00B4               	movwf	??_adc_init^(0+128)
  1766  0D31  01B5               	clrf	(??_adc_init^(0+128)+1)
  1767                           
  1768                           ; Switch on 2 bytes has been partitioned into a top level switch of size 1, and 1 sub-sw
      +                          itches
  1769                           ; Switch size 1, requested type "simple"
  1770                           ; Number of cases is 1, Range of values is 0 to 0
  1771                           ; switch strategies available:
  1772                           ; Name         Instructions Cycles
  1773                           ; simple_byte            4     3 (average)
  1774                           ; direct_byte           11     8 (fixed)
  1775                           ; jumptable            260     6 (fixed)
  1776                           ;	Chosen strategy is simple_byte
  1777  0D32  0835               	movf	(??_adc_init+1)^(0+128),w
  1778  0D33  3A00               	xorlw	0	; case 0
  1779  0D34  1903               	skipnz
  1780  0D35  2D37               	goto	l2934
  1781  0D36  2D2D               	goto	l162
  1782  0D37                     l2934:
  1783                           
  1784                           ; Switch size 1, requested type "simple"
  1785                           ; Number of cases is 2, Range of values is 0 to 1
  1786                           ; switch strategies available:
  1787                           ; Name         Instructions Cycles
  1788                           ; simple_byte            7     4 (average)
  1789                           ; direct_byte           14     8 (fixed)
  1790                           ; jumptable            260     6 (fixed)
  1791                           ;	Chosen strategy is simple_byte
  1792  0D37  0834               	movf	??_adc_init^(0+128),w
  1793  0D38  3A00               	xorlw	0	; case 0
  1794  0D39  1903               	skipnz
  1795  0D3A  2D29               	goto	l159
  1796  0D3B  3A01               	xorlw	1	; case 1
  1797  0D3C  1903               	skipnz
  1798  0D3D  2D2B               	goto	l161
  1799  0D3E  2D2D               	goto	l162
  1800  0D3F                     l160:
  1801                           
  1802                           ;adc.c: 54:     ADCON1bits.ADFM = 1;
  1803  0D3F  179F               	bsf	31,7	;volatile
  1804                           
  1805                           ;adc.c: 55:     ADCON0bits.ADON = 1;
  1806  0D40  1283               	bcf	3,5	;RP0=0, select bank0
  1807  0D41  1303               	bcf	3,6	;RP1=0, select bank0
  1808  0D42  141F               	bsf	31,0	;volatile
  1809                           
  1810                           ;adc.c: 56:     PIE1bits.ADIE = 1;
  1811  0D43  1683               	bsf	3,5	;RP0=1, select bank1
  1812  0D44  1303               	bcf	3,6	;RP1=0, select bank1
  1813  0D45  170C               	bsf	12,6	;volatile
  1814                           
  1815                           ;adc.c: 57:     PIR1bits.ADIF = 0;
  1816  0D46  1283               	bcf	3,5	;RP0=0, select bank0
  1817  0D47  1303               	bcf	3,6	;RP1=0, select bank0
  1818  0D48  130C               	bcf	12,6	;volatile
  1819  0D49                     l163:
  1820  0D49  0008               	return
  1821  0D4A                     __end_of_adc_init:
  1822                           
  1823                           	psect	text5
  1824  0C6F                     __ptext5:	
  1825 ;; *************** function _USART_set *****************
  1826 ;; Defined at:
  1827 ;;		line 12 in file "USART.c"
  1828 ;; Parameters:    Size  Location     Type
  1829 ;;  baudrate        4   32[BANK1 ] const unsigned long 
  1830 ;; Auto vars:     Size  Location     Type
  1831 ;;		None
  1832 ;; Return value:  Size  Location     Type
  1833 ;;                  1    wreg      void 
  1834 ;; Registers used:
  1835 ;;		wreg, status,2, status,0, pclath, cstack
  1836 ;; Tracked objects:
  1837 ;;		On entry : 0/0
  1838 ;;		On exit  : 0/0
  1839 ;;		Unchanged: 0/0
  1840 ;; Data sizes:     COMMON   BANK0   BANK1   BANK3   BANK2
  1841 ;;      Params:         0       0       4       0       0
  1842 ;;      Locals:         0       0       0       0       0
  1843 ;;      Temps:          0       0      12       0       0
  1844 ;;      Totals:         0       0      16       0       0
  1845 ;;Total ram usage:       16 bytes
  1846 ;; Hardware stack levels used: 1
  1847 ;; Hardware stack levels required when called: 5
  1848 ;; This function calls:
  1849 ;;		___lldiv
  1850 ;; This function is called by:
  1851 ;;		_setup
  1852 ;; This function uses a non-reentrant model
  1853 ;;
  1854                           
  1855  0C6F                     _USART_set:	
  1856                           ;psect for function _USART_set
  1857                           
  1858  0C6F                     l1970:	
  1859                           ;incstack = 0
  1860                           ; Regs used in _USART_set: [wreg+status,2+status,0+pclath+cstack]
  1861                           
  1862                           
  1863                           ;USART.c: 12: void USART_set(const unsigned long int baudrate);USART.c: 13: {;USART.c: 1
      +                          4:     TXSTAbits.BRGH = 1;
  1864  0C6F  1683               	bsf	3,5	;RP0=1, select bank1
  1865  0C70  1303               	bcf	3,6	;RP1=0, select bank1
  1866  0C71  1518               	bsf	24,2	;volatile
  1867                           
  1868                           ;USART.c: 15:     BAUDCTLbits.BRG16 = 1;
  1869  0C72  1683               	bsf	3,5	;RP0=1, select bank3
  1870  0C73  1703               	bsf	3,6	;RP1=1, select bank3
  1871  0C74  1587               	bsf	7,3	;volatile
  1872  0C75                     l1972:
  1873                           
  1874                           ;USART.c: 16:     SPBRGH = 0;
  1875  0C75  1683               	bsf	3,5	;RP0=1, select bank1
  1876  0C76  1303               	bcf	3,6	;RP1=0, select bank1
  1877  0C77  019A               	clrf	26	;volatile
  1878  0C78                     l1974:
  1879                           
  1880                           ;USART.c: 17:     SPBRG = (1000000 - baudrate * 4) / (baudrate * 4);
  1881  0C78  0840               	movf	USART_set@baudrate^(0+128),w
  1882  0C79  00C4               	movwf	??_USART_set^(0+128)
  1883  0C7A  0841               	movf	(USART_set@baudrate+1)^(0+128),w
  1884  0C7B  00C5               	movwf	(??_USART_set^(0+128)+1)
  1885  0C7C  0842               	movf	(USART_set@baudrate+2)^(0+128),w
  1886  0C7D  00C6               	movwf	(??_USART_set^(0+128)+2)
  1887  0C7E  0843               	movf	(USART_set@baudrate+3)^(0+128),w
  1888  0C7F  00C7               	movwf	(??_USART_set^(0+128)+3)
  1889  0C80  3002               	movlw	2
  1890  0C81                     u1845:
  1891  0C81  1003               	clrc
  1892  0C82  0DC4               	rlf	??_USART_set^(0+128),f
  1893  0C83  0DC5               	rlf	(??_USART_set^(0+128)+1),f
  1894  0C84  0DC6               	rlf	(??_USART_set^(0+128)+2),f
  1895  0C85  0DC7               	rlf	(??_USART_set^(0+128)+3),f
  1896  0C86                     u1840:
  1897  0C86  3EFF               	addlw	-1
  1898  0C87  1D03               	skipz
  1899  0C88  2C81               	goto	u1845
  1900  0C89  0847               	movf	(??_USART_set+3)^(0+128),w
  1901  0C8A  00B5               	movwf	(___lldiv@divisor+3)^(0+128)
  1902  0C8B  0846               	movf	(??_USART_set+2)^(0+128),w
  1903  0C8C  00B4               	movwf	(___lldiv@divisor+2)^(0+128)
  1904  0C8D  0845               	movf	(??_USART_set+1)^(0+128),w
  1905  0C8E  00B3               	movwf	(___lldiv@divisor+1)^(0+128)
  1906  0C8F  0844               	movf	??_USART_set^(0+128),w
  1907  0C90  00B2               	movwf	___lldiv@divisor^(0+128)
  1908  0C91  0840               	movf	USART_set@baudrate^(0+128),w
  1909  0C92  00C8               	movwf	(??_USART_set+4)^(0+128)
  1910  0C93  0841               	movf	(USART_set@baudrate+1)^(0+128),w
  1911  0C94  00C9               	movwf	((??_USART_set+4)^(0+128)+1)
  1912  0C95  0842               	movf	(USART_set@baudrate+2)^(0+128),w
  1913  0C96  00CA               	movwf	((??_USART_set+4)^(0+128)+2)
  1914  0C97  0843               	movf	(USART_set@baudrate+3)^(0+128),w
  1915  0C98  00CB               	movwf	((??_USART_set+4)^(0+128)+3)
  1916  0C99  3002               	movlw	2
  1917  0C9A                     u1855:
  1918  0C9A  1003               	clrc
  1919  0C9B  0DC8               	rlf	(??_USART_set+4)^(0+128),f
  1920  0C9C  0DC9               	rlf	((??_USART_set+4)^(0+128)+1),f
  1921  0C9D  0DCA               	rlf	((??_USART_set+4)^(0+128)+2),f
  1922  0C9E  0DCB               	rlf	((??_USART_set+4)^(0+128)+3),f
  1923  0C9F                     u1850:
  1924  0C9F  3EFF               	addlw	-1
  1925  0CA0  1D03               	skipz
  1926  0CA1  2C9A               	goto	u1855
  1927  0CA2  3040               	movlw	64
  1928  0CA3  00CC               	movwf	(??_USART_set+8)^(0+128)
  1929  0CA4  3042               	movlw	66
  1930  0CA5  00CD               	movwf	((??_USART_set+8)^(0+128)+1)
  1931  0CA6  300F               	movlw	15
  1932  0CA7  00CE               	movwf	((??_USART_set+8)^(0+128)+2)
  1933  0CA8  3000               	movlw	0
  1934  0CA9  00CF               	movwf	((??_USART_set+8)^(0+128)+3)
  1935  0CAA  0848               	movf	(??_USART_set+4)^(0+128),w
  1936  0CAB  02CC               	subwf	(??_USART_set+8)^(0+128),f
  1937  0CAC  0849               	movf	(??_USART_set+5)^(0+128),w
  1938  0CAD  1C03               	skipc
  1939  0CAE  0F49               	incfsz	(??_USART_set+5)^(0+128),w
  1940  0CAF  2CB1               	goto	u1861
  1941  0CB0  2CB2               	goto	u1862
  1942  0CB1                     u1861:
  1943  0CB1  02CD               	subwf	((??_USART_set+8)^(0+128)+1),f
  1944  0CB2                     u1862:
  1945  0CB2  084A               	movf	(??_USART_set+6)^(0+128),w
  1946  0CB3  1C03               	skipc
  1947  0CB4  0F4A               	incfsz	(??_USART_set+6)^(0+128),w
  1948  0CB5  2CB7               	goto	u1863
  1949  0CB6  2CB8               	goto	u1864
  1950  0CB7                     u1863:
  1951  0CB7  02CE               	subwf	((??_USART_set+8)^(0+128)+2),f
  1952  0CB8                     u1864:
  1953  0CB8  084B               	movf	(??_USART_set+7)^(0+128),w
  1954  0CB9  1C03               	skipc
  1955  0CBA  0F4B               	incfsz	(??_USART_set+7)^(0+128),w
  1956  0CBB  2CBD               	goto	u1865
  1957  0CBC  2CBE               	goto	u1866
  1958  0CBD                     u1865:
  1959  0CBD  02CF               	subwf	((??_USART_set+8)^(0+128)+3),f
  1960  0CBE                     u1866:
  1961  0CBE  084F               	movf	(??_USART_set+11)^(0+128),w
  1962  0CBF  00B9               	movwf	(___lldiv@dividend+3)^(0+128)
  1963  0CC0  084E               	movf	(??_USART_set+10)^(0+128),w
  1964  0CC1  00B8               	movwf	(___lldiv@dividend+2)^(0+128)
  1965  0CC2  084D               	movf	(??_USART_set+9)^(0+128),w
  1966  0CC3  00B7               	movwf	(___lldiv@dividend+1)^(0+128)
  1967  0CC4  084C               	movf	(??_USART_set+8)^(0+128),w
  1968  0CC5  00B6               	movwf	___lldiv@dividend^(0+128)
  1969  0CC6  120A  158A  2407  120A  158A  	fcall	___lldiv
  1970  0CCB  1683               	bsf	3,5	;RP0=1, select bank1
  1971  0CCC  1303               	bcf	3,6	;RP1=0, select bank1
  1972  0CCD  0832               	movf	?___lldiv^(0+128),w
  1973  0CCE  0099               	movwf	25	;volatile
  1974  0CCF                     l1976:
  1975                           
  1976                           ;USART.c: 18:     TXSTAbits.SYNC = 0;
  1977  0CCF  1218               	bcf	24,4	;volatile
  1978  0CD0                     l1978:
  1979                           
  1980                           ;USART.c: 19:     RCSTAbits.SPEN = 1;
  1981  0CD0  1283               	bcf	3,5	;RP0=0, select bank0
  1982  0CD1  1303               	bcf	3,6	;RP1=0, select bank0
  1983  0CD2  1798               	bsf	24,7	;volatile
  1984  0CD3                     l1980:
  1985                           
  1986                           ;USART.c: 22:     TXSTAbits.TX9 = 0;
  1987  0CD3  1683               	bsf	3,5	;RP0=1, select bank1
  1988  0CD4  1303               	bcf	3,6	;RP1=0, select bank1
  1989  0CD5  1318               	bcf	24,6	;volatile
  1990  0CD6                     l1982:
  1991                           
  1992                           ;USART.c: 24:     TXSTAbits.TXEN = 1;
  1993  0CD6  1698               	bsf	24,5	;volatile
  1994  0CD7                     l117:
  1995  0CD7  0008               	return
  1996  0CD8                     __end_of_USART_set:
  1997                           
  1998                           	psect	text6
  1999  0C07                     __ptext6:	
  2000 ;; *************** function ___lldiv *****************
  2001 ;; Defined at:
  2002 ;;		line 5 in file "C:\Program Files\Microchip\xc8\v2.35\pic\sources\c90\common\__lldiv.c"
  2003 ;; Parameters:    Size  Location     Type
  2004 ;;  divisor         4   18[BANK1 ] unsigned long 
  2005 ;;  dividend        4   22[BANK1 ] unsigned long 
  2006 ;; Auto vars:     Size  Location     Type
  2007 ;;  quotient        4   27[BANK1 ] unsigned long 
  2008 ;;  counter         1   31[BANK1 ] unsigned char 
  2009 ;; Return value:  Size  Location     Type
  2010 ;;                  4   18[BANK1 ] unsigned long 
  2011 ;; Registers used:
  2012 ;;		wreg, status,2, status,0
  2013 ;; Tracked objects:
  2014 ;;		On entry : 0/0
  2015 ;;		On exit  : 0/0
  2016 ;;		Unchanged: 0/0
  2017 ;; Data sizes:     COMMON   BANK0   BANK1   BANK3   BANK2
  2018 ;;      Params:         0       0       8       0       0
  2019 ;;      Locals:         0       0       5       0       0
  2020 ;;      Temps:          0       0       1       0       0
  2021 ;;      Totals:         0       0      14       0       0
  2022 ;;Total ram usage:       14 bytes
  2023 ;; Hardware stack levels used: 1
  2024 ;; Hardware stack levels required when called: 4
  2025 ;; This function calls:
  2026 ;;		Nothing
  2027 ;; This function is called by:
  2028 ;;		_USART_set
  2029 ;; This function uses a non-reentrant model
  2030 ;;
  2031                           
  2032  0C07                     ___lldiv:	
  2033                           ;psect for function ___lldiv
  2034                           
  2035  0C07                     l1874:	
  2036                           ;incstack = 0
  2037                           ; Regs used in ___lldiv: [wreg+status,2+status,0]
  2038                           
  2039  0C07  3000               	movlw	0
  2040  0C08  1683               	bsf	3,5	;RP0=1, select bank1
  2041  0C09  1303               	bcf	3,6	;RP1=0, select bank1
  2042  0C0A  00BE               	movwf	(___lldiv@quotient+3)^(0+128)
  2043  0C0B  3000               	movlw	0
  2044  0C0C  00BD               	movwf	(___lldiv@quotient+2)^(0+128)
  2045  0C0D  3000               	movlw	0
  2046  0C0E  00BC               	movwf	(___lldiv@quotient+1)^(0+128)
  2047  0C0F  3000               	movlw	0
  2048  0C10  00BB               	movwf	___lldiv@quotient^(0+128)
  2049  0C11  0835               	movf	(___lldiv@divisor+3)^(0+128),w
  2050  0C12  0434               	iorwf	(___lldiv@divisor+2)^(0+128),w
  2051  0C13  0433               	iorwf	(___lldiv@divisor+1)^(0+128),w
  2052  0C14  0432               	iorwf	___lldiv@divisor^(0+128),w
  2053  0C15  1903               	skipnz
  2054  0C16  2C18               	goto	u1721
  2055  0C17  2C19               	goto	u1720
  2056  0C18                     u1721:
  2057  0C18  2C66               	goto	l1894
  2058  0C19                     u1720:
  2059  0C19                     l1876:
  2060  0C19  01BF               	clrf	___lldiv@counter^(0+128)
  2061  0C1A  0ABF               	incf	___lldiv@counter^(0+128),f
  2062  0C1B  2C29               	goto	l1880
  2063  0C1C                     l1878:
  2064  0C1C  3001               	movlw	1
  2065  0C1D  00BA               	movwf	??___lldiv^(0+128)
  2066  0C1E                     u1735:
  2067  0C1E  1003               	clrc
  2068  0C1F  0DB2               	rlf	___lldiv@divisor^(0+128),f
  2069  0C20  0DB3               	rlf	(___lldiv@divisor+1)^(0+128),f
  2070  0C21  0DB4               	rlf	(___lldiv@divisor+2)^(0+128),f
  2071  0C22  0DB5               	rlf	(___lldiv@divisor+3)^(0+128),f
  2072  0C23  0BBA               	decfsz	??___lldiv^(0+128),f
  2073  0C24  2C1E               	goto	u1735
  2074  0C25  3001               	movlw	1
  2075  0C26  00BA               	movwf	??___lldiv^(0+128)
  2076  0C27  083A               	movf	??___lldiv^(0+128),w
  2077  0C28  07BF               	addwf	___lldiv@counter^(0+128),f
  2078  0C29                     l1880:
  2079  0C29  1FB5               	btfss	(___lldiv@divisor+3)^(0+128),7
  2080  0C2A  2C2C               	goto	u1741
  2081  0C2B  2C2D               	goto	u1740
  2082  0C2C                     u1741:
  2083  0C2C  2C1C               	goto	l1878
  2084  0C2D                     u1740:
  2085  0C2D                     l1882:
  2086  0C2D  3001               	movlw	1
  2087  0C2E  00BA               	movwf	??___lldiv^(0+128)
  2088  0C2F                     u1755:
  2089  0C2F  1003               	clrc
  2090  0C30  0DBB               	rlf	___lldiv@quotient^(0+128),f
  2091  0C31  0DBC               	rlf	(___lldiv@quotient+1)^(0+128),f
  2092  0C32  0DBD               	rlf	(___lldiv@quotient+2)^(0+128),f
  2093  0C33  0DBE               	rlf	(___lldiv@quotient+3)^(0+128),f
  2094  0C34  0BBA               	decfsz	??___lldiv^(0+128),f
  2095  0C35  2C2F               	goto	u1755
  2096  0C36                     l1884:
  2097  0C36  0835               	movf	(___lldiv@divisor+3)^(0+128),w
  2098  0C37  0239               	subwf	(___lldiv@dividend+3)^(0+128),w
  2099  0C38  1D03               	skipz
  2100  0C39  2C44               	goto	u1765
  2101  0C3A  0834               	movf	(___lldiv@divisor+2)^(0+128),w
  2102  0C3B  0238               	subwf	(___lldiv@dividend+2)^(0+128),w
  2103  0C3C  1D03               	skipz
  2104  0C3D  2C44               	goto	u1765
  2105  0C3E  0833               	movf	(___lldiv@divisor+1)^(0+128),w
  2106  0C3F  0237               	subwf	(___lldiv@dividend+1)^(0+128),w
  2107  0C40  1D03               	skipz
  2108  0C41  2C44               	goto	u1765
  2109  0C42  0832               	movf	___lldiv@divisor^(0+128),w
  2110  0C43  0236               	subwf	___lldiv@dividend^(0+128),w
  2111  0C44                     u1765:
  2112  0C44  1C03               	skipc
  2113  0C45  2C47               	goto	u1761
  2114  0C46  2C48               	goto	u1760
  2115  0C47                     u1761:
  2116  0C47  2C57               	goto	l1890
  2117  0C48                     u1760:
  2118  0C48                     l1886:
  2119  0C48  0832               	movf	___lldiv@divisor^(0+128),w
  2120  0C49  02B6               	subwf	___lldiv@dividend^(0+128),f
  2121  0C4A  0833               	movf	(___lldiv@divisor+1)^(0+128),w
  2122  0C4B  1C03               	skipc
  2123  0C4C  0F33               	incfsz	(___lldiv@divisor+1)^(0+128),w
  2124  0C4D  02B7               	subwf	(___lldiv@dividend+1)^(0+128),f
  2125  0C4E  0834               	movf	(___lldiv@divisor+2)^(0+128),w
  2126  0C4F  1C03               	skipc
  2127  0C50  0F34               	incfsz	(___lldiv@divisor+2)^(0+128),w
  2128  0C51  02B8               	subwf	(___lldiv@dividend+2)^(0+128),f
  2129  0C52  0835               	movf	(___lldiv@divisor+3)^(0+128),w
  2130  0C53  1C03               	skipc
  2131  0C54  0F35               	incfsz	(___lldiv@divisor+3)^(0+128),w
  2132  0C55  02B9               	subwf	(___lldiv@dividend+3)^(0+128),f
  2133  0C56                     l1888:
  2134  0C56  143B               	bsf	___lldiv@quotient^(0+128),0
  2135  0C57                     l1890:
  2136  0C57  3001               	movlw	1
  2137  0C58                     u1775:
  2138  0C58  1003               	clrc
  2139  0C59  0CB5               	rrf	(___lldiv@divisor+3)^(0+128),f
  2140  0C5A  0CB4               	rrf	(___lldiv@divisor+2)^(0+128),f
  2141  0C5B  0CB3               	rrf	(___lldiv@divisor+1)^(0+128),f
  2142  0C5C  0CB2               	rrf	___lldiv@divisor^(0+128),f
  2143  0C5D  3EFF               	addlw	-1
  2144  0C5E  1D03               	skipz
  2145  0C5F  2C58               	goto	u1775
  2146  0C60                     l1892:
  2147  0C60  3001               	movlw	1
  2148  0C61  02BF               	subwf	___lldiv@counter^(0+128),f
  2149  0C62  1D03               	btfss	3,2
  2150  0C63  2C65               	goto	u1781
  2151  0C64  2C66               	goto	u1780
  2152  0C65                     u1781:
  2153  0C65  2C2D               	goto	l1882
  2154  0C66                     u1780:
  2155  0C66                     l1894:
  2156  0C66  083E               	movf	(___lldiv@quotient+3)^(0+128),w
  2157  0C67  00B5               	movwf	(?___lldiv+3)^(0+128)
  2158  0C68  083D               	movf	(___lldiv@quotient+2)^(0+128),w
  2159  0C69  00B4               	movwf	(?___lldiv+2)^(0+128)
  2160  0C6A  083C               	movf	(___lldiv@quotient+1)^(0+128),w
  2161  0C6B  00B3               	movwf	(?___lldiv+1)^(0+128)
  2162  0C6C  083B               	movf	___lldiv@quotient^(0+128),w
  2163  0C6D  00B2               	movwf	?___lldiv^(0+128)
  2164  0C6E                     l344:
  2165  0C6E  0008               	return
  2166  0C6F                     __end_of___lldiv:
  2167                           
  2168                           	psect	text7
  2169  0AF6                     __ptext7:	
  2170 ;; *************** function _servo *****************
  2171 ;; Defined at:
  2172 ;;		line 126 in file "main_slave_p1.c"
  2173 ;; Parameters:    Size  Location     Type
  2174 ;;  mov             2   22[BANK1 ] unsigned short 
  2175 ;; Auto vars:     Size  Location     Type
  2176 ;;		None
  2177 ;; Return value:  Size  Location     Type
  2178 ;;                  1    wreg      void 
  2179 ;; Registers used:
  2180 ;;		wreg, status,2, status,0, pclath, cstack
  2181 ;; Tracked objects:
  2182 ;;		On entry : 0/0
  2183 ;;		On exit  : 0/0
  2184 ;;		Unchanged: 0/0
  2185 ;; Data sizes:     COMMON   BANK0   BANK1   BANK3   BANK2
  2186 ;;      Params:         0       0       2       0       0
  2187 ;;      Locals:         0       0       0       0       0
  2188 ;;      Temps:          0       0       0       0       0
  2189 ;;      Totals:         0       0       2       0       0
  2190 ;;Total ram usage:        2 bytes
  2191 ;; Hardware stack levels used: 1
  2192 ;; Hardware stack levels required when called: 5
  2193 ;; This function calls:
  2194 ;;		_USART_send
  2195 ;;		_pwm_duty_cycle
  2196 ;; This function is called by:
  2197 ;;		_main
  2198 ;; This function uses a non-reentrant model
  2199 ;;
  2200                           
  2201  0AF6                     _servo:	
  2202                           ;psect for function _servo
  2203                           
  2204  0AF6                     l2698:	
  2205                           ;incstack = 0
  2206                           ; Regs used in _servo: [wreg+status,2+status,0+pclath+cstack]
  2207                           
  2208                           
  2209                           ;main_slave_p1.c: 127:     if (mov == 1){
  2210  0AF6  1683               	bsf	3,5	;RP0=1, select bank1
  2211  0AF7  1303               	bcf	3,6	;RP1=0, select bank1
  2212  0AF8  0336               	decf	servo@mov^(0+128),w
  2213  0AF9  0437               	iorwf	(servo@mov+1)^(0+128),w
  2214  0AFA  1D03               	btfss	3,2
  2215  0AFB  2AFD               	goto	u3331
  2216  0AFC  2AFE               	goto	u3330
  2217  0AFD                     u3331:
  2218  0AFD  2B08               	goto	l2702
  2219  0AFE                     u3330:
  2220  0AFE                     l2700:
  2221                           
  2222                           ;main_slave_p1.c: 128:         pwm_duty_cycle(94);
  2223  0AFE  305E               	movlw	94
  2224  0AFF  00B2               	movwf	pwm_duty_cycle@duty_cycle^(0+128)
  2225  0B00  3000               	movlw	0
  2226  0B01  00B3               	movwf	(pwm_duty_cycle@duty_cycle^(0+128)+1)
  2227  0B02  120A  158A  2227  120A  158A  	fcall	_pwm_duty_cycle
  2228                           
  2229                           ;main_slave_p1.c: 129:     }
  2230  0B07  2B11               	goto	l2704
  2231  0B08                     l2702:
  2232                           
  2233                           ;main_slave_p1.c: 131:         pwm_duty_cycle(31);
  2234  0B08  301F               	movlw	31
  2235  0B09  00B2               	movwf	pwm_duty_cycle@duty_cycle^(0+128)
  2236  0B0A  3000               	movlw	0
  2237  0B0B  00B3               	movwf	(pwm_duty_cycle@duty_cycle^(0+128)+1)
  2238  0B0C  120A  158A  2227  120A  158A  	fcall	_pwm_duty_cycle
  2239  0B11                     l2704:
  2240                           
  2241                           ;main_slave_p1.c: 134:     if (mov != last_mov){
  2242  0B11  1683               	bsf	3,5	;RP0=1, select bank1
  2243  0B12  1303               	bcf	3,6	;RP1=0, select bank1
  2244  0B13  0857               	movf	(_last_mov+1)^(0+128),w
  2245  0B14  0637               	xorwf	(servo@mov+1)^(0+128),w
  2246  0B15  1D03               	skipz
  2247  0B16  2B19               	goto	u3345
  2248  0B17  0856               	movf	_last_mov^(0+128),w
  2249  0B18  0636               	xorwf	servo@mov^(0+128),w
  2250  0B19                     u3345:
  2251  0B19  1903               	skipnz
  2252  0B1A  2B1C               	goto	u3341
  2253  0B1B  2B1D               	goto	u3340
  2254  0B1C                     u3341:
  2255  0B1C  2B2F               	goto	l87
  2256  0B1D                     u3340:
  2257  0B1D                     l2706:
  2258                           
  2259                           ;main_slave_p1.c: 135:         last_mov = mov;
  2260  0B1D  0837               	movf	(servo@mov+1)^(0+128),w
  2261  0B1E  00D7               	movwf	(_last_mov+1)^(0+128)
  2262  0B1F  0836               	movf	servo@mov^(0+128),w
  2263  0B20  00D6               	movwf	_last_mov^(0+128)
  2264  0B21                     l2708:
  2265                           
  2266                           ;main_slave_p1.c: 136:         USART_send((('M')<<1) + !mov);
  2267  0B21  0836               	movf	servo@mov^(0+128),w
  2268  0B22  0437               	iorwf	(servo@mov+1)^(0+128),w
  2269  0B23  1903               	btfsc	3,2
  2270  0B24  2B26               	goto	u3351
  2271  0B25  2B28               	goto	u3350
  2272  0B26                     u3351:
  2273  0B26  3001               	movlw	1
  2274  0B27  2B29               	goto	u3360
  2275  0B28                     u3350:
  2276  0B28  3000               	movlw	0
  2277  0B29                     u3360:
  2278  0B29  3E9A               	addlw	154
  2279  0B2A  120A  158A  221B  120A  158A  	fcall	_USART_send
  2280  0B2F                     l87:
  2281  0B2F  0008               	return
  2282  0B30                     __end_of_servo:
  2283                           
  2284                           	psect	text8
  2285  0A27                     __ptext8:	
  2286 ;; *************** function _pwm_duty_cycle *****************
  2287 ;; Defined at:
  2288 ;;		line 40 in file "pwm.c"
  2289 ;; Parameters:    Size  Location     Type
  2290 ;;  duty_cycle      2   18[BANK1 ] unsigned int 
  2291 ;; Auto vars:     Size  Location     Type
  2292 ;;		None
  2293 ;; Return value:  Size  Location     Type
  2294 ;;                  1    wreg      void 
  2295 ;; Registers used:
  2296 ;;		wreg, status,2, status,0
  2297 ;; Tracked objects:
  2298 ;;		On entry : 0/0
  2299 ;;		On exit  : 0/0
  2300 ;;		Unchanged: 0/0
  2301 ;; Data sizes:     COMMON   BANK0   BANK1   BANK3   BANK2
  2302 ;;      Params:         0       0       2       0       0
  2303 ;;      Locals:         0       0       0       0       0
  2304 ;;      Temps:          0       0       2       0       0
  2305 ;;      Totals:         0       0       4       0       0
  2306 ;;Total ram usage:        4 bytes
  2307 ;; Hardware stack levels used: 1
  2308 ;; Hardware stack levels required when called: 4
  2309 ;; This function calls:
  2310 ;;		Nothing
  2311 ;; This function is called by:
  2312 ;;		_servo
  2313 ;; This function uses a non-reentrant model
  2314 ;;
  2315                           
  2316  0A27                     _pwm_duty_cycle:	
  2317                           ;psect for function _pwm_duty_cycle
  2318                           
  2319  0A27                     l1916:	
  2320                           ;incstack = 0
  2321                           ; Regs used in _pwm_duty_cycle: [wreg+status,2+status,0]
  2322                           
  2323                           
  2324                           ;pwm.c: 41:     CCPR1L = (uint8_t)(duty_cycle>>2);
  2325  0A27  1683               	bsf	3,5	;RP0=1, select bank1
  2326  0A28  1303               	bcf	3,6	;RP1=0, select bank1
  2327  0A29  0833               	movf	(pwm_duty_cycle@duty_cycle+1)^(0+128),w
  2328  0A2A  00B5               	movwf	(??_pwm_duty_cycle^(0+128)+1)
  2329  0A2B  0832               	movf	pwm_duty_cycle@duty_cycle^(0+128),w
  2330  0A2C  00B4               	movwf	??_pwm_duty_cycle^(0+128)
  2331  0A2D  1003               	clrc
  2332  0A2E  0CB5               	rrf	(??_pwm_duty_cycle^(0+128)+1),f
  2333  0A2F  0CB4               	rrf	??_pwm_duty_cycle^(0+128),f
  2334  0A30  1003               	clrc
  2335  0A31  0CB5               	rrf	(??_pwm_duty_cycle^(0+128)+1),f
  2336  0A32  0CB4               	rrf	??_pwm_duty_cycle^(0+128),f
  2337  0A33  0834               	movf	??_pwm_duty_cycle^(0+128),w
  2338  0A34  1283               	bcf	3,5	;RP0=0, select bank0
  2339  0A35  1303               	bcf	3,6	;RP1=0, select bank0
  2340  0A36  0095               	movwf	21	;volatile
  2341                           
  2342                           ;pwm.c: 42:     CCP1CONbits.DC1B = duty_cycle & 0b11;
  2343  0A37  1683               	bsf	3,5	;RP0=1, select bank1
  2344  0A38  1303               	bcf	3,6	;RP1=0, select bank1
  2345  0A39  0832               	movf	pwm_duty_cycle@duty_cycle^(0+128),w
  2346  0A3A  3903               	andlw	3
  2347  0A3B  00B4               	movwf	??_pwm_duty_cycle^(0+128)
  2348  0A3C  0EB4               	swapf	??_pwm_duty_cycle^(0+128),f
  2349  0A3D  1283               	bcf	3,5	;RP0=0, select bank0
  2350  0A3E  1303               	bcf	3,6	;RP1=0, select bank0
  2351  0A3F  0817               	movf	23,w	;volatile
  2352  0A40  1683               	bsf	3,5	;RP0=1, select bank1
  2353  0A41  1303               	bcf	3,6	;RP1=0, select bank1
  2354  0A42  0634               	xorwf	??_pwm_duty_cycle^(0+128),w
  2355  0A43  39CF               	andlw	-49
  2356  0A44  0634               	xorwf	??_pwm_duty_cycle^(0+128),w
  2357  0A45  1283               	bcf	3,5	;RP0=0, select bank0
  2358  0A46  1303               	bcf	3,6	;RP1=0, select bank0
  2359  0A47  0097               	movwf	23	;volatile
  2360  0A48                     l222:
  2361  0A48  0008               	return
  2362  0A49                     __end_of_pwm_duty_cycle:
  2363                           
  2364                           	psect	text9
  2365  0A95                     __ptext9:	
  2366 ;; *************** function _motor_dc *****************
  2367 ;; Defined at:
  2368 ;;		line 112 in file "main_slave_p1.c"
  2369 ;; Parameters:    Size  Location     Type
  2370 ;;  temp            2   19[BANK1 ] int 
  2371 ;; Auto vars:     Size  Location     Type
  2372 ;;		None
  2373 ;; Return value:  Size  Location     Type
  2374 ;;                  1    wreg      void 
  2375 ;; Registers used:
  2376 ;;		wreg, status,2, status,0, btemp+1, pclath, cstack
  2377 ;; Tracked objects:
  2378 ;;		On entry : 0/0
  2379 ;;		On exit  : 0/0
  2380 ;;		Unchanged: 0/0
  2381 ;; Data sizes:     COMMON   BANK0   BANK1   BANK3   BANK2
  2382 ;;      Params:         0       0       2       0       0
  2383 ;;      Locals:         0       0       0       0       0
  2384 ;;      Temps:          0       0       0       0       0
  2385 ;;      Totals:         0       0       2       0       0
  2386 ;;Total ram usage:        2 bytes
  2387 ;; Hardware stack levels used: 1
  2388 ;; Hardware stack levels required when called: 5
  2389 ;; This function calls:
  2390 ;;		_USART_send
  2391 ;; This function is called by:
  2392 ;;		_main
  2393 ;; This function uses a non-reentrant model
  2394 ;;
  2395                           
  2396  0A95                     _motor_dc:	
  2397                           ;psect for function _motor_dc
  2398                           
  2399  0A95                     l2686:	
  2400                           ;incstack = 0
  2401                           ; Regs used in _motor_dc: [wreg+status,2+status,0+btemp+1+pclath+cstack]
  2402                           
  2403                           
  2404                           ;main_slave_p1.c: 113:     if(temp >= 23){
  2405  0A95  1683               	bsf	3,5	;RP0=1, select bank1
  2406  0A96  1303               	bcf	3,6	;RP1=0, select bank1
  2407  0A97  0834               	movf	(motor_dc@temp+1)^(0+128),w
  2408  0A98  3A80               	xorlw	128
  2409  0A99  00FF               	movwf	btemp+1
  2410  0A9A  3080               	movlw	128
  2411  0A9B  027F               	subwf	btemp+1,w
  2412  0A9C  1D03               	skipz
  2413  0A9D  2AA0               	goto	u3315
  2414  0A9E  3017               	movlw	23
  2415  0A9F  0233               	subwf	motor_dc@temp^(0+128),w
  2416  0AA0                     u3315:
  2417  0AA0  1C03               	skipc
  2418  0AA1  2AA3               	goto	u3311
  2419  0AA2  2AA4               	goto	u3310
  2420  0AA3                     u3311:
  2421  0AA3  2AA8               	goto	l78
  2422  0AA4                     u3310:
  2423  0AA4                     l2688:
  2424                           
  2425                           ;main_slave_p1.c: 114:         PORTBbits.RB0 = 1;
  2426  0AA4  1283               	bcf	3,5	;RP0=0, select bank0
  2427  0AA5  1303               	bcf	3,6	;RP1=0, select bank0
  2428  0AA6  1406               	bsf	6,0	;volatile
  2429                           
  2430                           ;main_slave_p1.c: 115:     }
  2431  0AA7  2AAB               	goto	l2690
  2432  0AA8                     l78:	
  2433                           ;main_slave_p1.c: 116:     else{
  2434                           
  2435                           
  2436                           ;main_slave_p1.c: 117:         PORTBbits.RB0 = 0;
  2437  0AA8  1283               	bcf	3,5	;RP0=0, select bank0
  2438  0AA9  1303               	bcf	3,6	;RP1=0, select bank0
  2439  0AAA  1006               	bcf	6,0	;volatile
  2440  0AAB                     l2690:
  2441                           
  2442                           ;main_slave_p1.c: 120:     if (temp != OLD_TEMP){
  2443  0AAB  1683               	bsf	3,5	;RP0=1, select bank1
  2444  0AAC  1303               	bcf	3,6	;RP1=0, select bank1
  2445  0AAD  0855               	movf	(_OLD_TEMP+1)^(0+128),w
  2446  0AAE  0634               	xorwf	(motor_dc@temp+1)^(0+128),w
  2447  0AAF  1D03               	skipz
  2448  0AB0  2AB3               	goto	u3325
  2449  0AB1  0854               	movf	_OLD_TEMP^(0+128),w
  2450  0AB2  0633               	xorwf	motor_dc@temp^(0+128),w
  2451  0AB3                     u3325:
  2452  0AB3  1903               	skipnz
  2453  0AB4  2AB6               	goto	u3321
  2454  0AB5  2AB7               	goto	u3320
  2455  0AB6                     u3321:
  2456  0AB6  2AC2               	goto	l81
  2457  0AB7                     u3320:
  2458  0AB7                     l2692:
  2459                           
  2460                           ;main_slave_p1.c: 121:         OLD_TEMP = temp;
  2461  0AB7  0834               	movf	(motor_dc@temp+1)^(0+128),w
  2462  0AB8  00D5               	movwf	(_OLD_TEMP+1)^(0+128)
  2463  0AB9  0833               	movf	motor_dc@temp^(0+128),w
  2464  0ABA  00D4               	movwf	_OLD_TEMP^(0+128)
  2465  0ABB                     l2694:
  2466                           
  2467                           ;main_slave_p1.c: 122:         USART_send(temp+128);
  2468  0ABB  0833               	movf	motor_dc@temp^(0+128),w
  2469  0ABC  3E80               	addlw	128
  2470  0ABD  120A  158A  221B  120A  158A  	fcall	_USART_send
  2471  0AC2                     l81:
  2472  0AC2  0008               	return
  2473  0AC3                     __end_of_motor_dc:
  2474                           
  2475                           	psect	text10
  2476  0A1B                     __ptext10:	
  2477 ;; *************** function _USART_send *****************
  2478 ;; Defined at:
  2479 ;;		line 27 in file "USART.c"
  2480 ;; Parameters:    Size  Location     Type
  2481 ;;  data            1    wreg     const unsigned char 
  2482 ;; Auto vars:     Size  Location     Type
  2483 ;;  data            1   18[BANK1 ] const unsigned char 
  2484 ;; Return value:  Size  Location     Type
  2485 ;;                  1    wreg      void 
  2486 ;; Registers used:
  2487 ;;		wreg
  2488 ;; Tracked objects:
  2489 ;;		On entry : 0/0
  2490 ;;		On exit  : 0/0
  2491 ;;		Unchanged: 0/0
  2492 ;; Data sizes:     COMMON   BANK0   BANK1   BANK3   BANK2
  2493 ;;      Params:         0       0       0       0       0
  2494 ;;      Locals:         0       0       1       0       0
  2495 ;;      Temps:          0       0       0       0       0
  2496 ;;      Totals:         0       0       1       0       0
  2497 ;;Total ram usage:        1 bytes
  2498 ;; Hardware stack levels used: 1
  2499 ;; Hardware stack levels required when called: 4
  2500 ;; This function calls:
  2501 ;;		Nothing
  2502 ;; This function is called by:
  2503 ;;		_motor_dc
  2504 ;;		_servo
  2505 ;;		_USART_print
  2506 ;; This function uses a non-reentrant model
  2507 ;;
  2508                           
  2509  0A1B                     _USART_send:	
  2510                           ;psect for function _USART_send
  2511                           
  2512                           
  2513                           ;incstack = 0
  2514                           ; Regs used in _USART_send: [wreg]
  2515                           ;USART_send@data stored from wreg
  2516  0A1B  1683               	bsf	3,5	;RP0=1, select bank1
  2517  0A1C  1303               	bcf	3,6	;RP1=0, select bank1
  2518  0A1D  00B2               	movwf	USART_send@data^(0+128)
  2519  0A1E                     l1912:
  2520  0A1E                     l120:	
  2521                           ;USART.c: 27: void USART_send(const char data);USART.c: 28: {;USART.c: 29:     while(!TX
      +                          STAbits.TRMT);
  2522                           
  2523  0A1E  1C98               	btfss	24,1	;volatile
  2524  0A1F  2A21               	goto	u1821
  2525  0A20  2A22               	goto	u1820
  2526  0A21                     u1821:
  2527  0A21  2A1E               	goto	l120
  2528  0A22                     u1820:
  2529  0A22                     l1914:
  2530                           
  2531                           ;USART.c: 30:     TXREG = data;
  2532  0A22  0832               	movf	USART_send@data^(0+128),w
  2533  0A23  1283               	bcf	3,5	;RP0=0, select bank0
  2534  0A24  1303               	bcf	3,6	;RP1=0, select bank0
  2535  0A25  0099               	movwf	25	;volatile
  2536  0A26                     l123:
  2537  0A26  0008               	return
  2538  0A27                     __end_of_USART_send:
  2539                           
  2540                           	psect	text11
  2541  0E8F                     __ptext11:	
  2542 ;; *************** function _adc_ch_switch *****************
  2543 ;; Defined at:
  2544 ;;		line 71 in file "adc.c"
  2545 ;; Parameters:    Size  Location     Type
  2546 ;;  channels        1    wreg     unsigned char 
  2547 ;; Auto vars:     Size  Location     Type
  2548 ;;  channels        1   20[BANK1 ] unsigned char 
  2549 ;; Return value:  Size  Location     Type
  2550 ;;                  1    wreg      void 
  2551 ;; Registers used:
  2552 ;;		wreg, fsr0l, fsr0h, status,2, status,0
  2553 ;; Tracked objects:
  2554 ;;		On entry : 0/0
  2555 ;;		On exit  : 0/0
  2556 ;;		Unchanged: 0/0
  2557 ;; Data sizes:     COMMON   BANK0   BANK1   BANK3   BANK2
  2558 ;;      Params:         0       0       0       0       0
  2559 ;;      Locals:         0       0       1       0       0
  2560 ;;      Temps:          0       0       2       0       0
  2561 ;;      Totals:         0       0       3       0       0
  2562 ;;Total ram usage:        3 bytes
  2563 ;; Hardware stack levels used: 1
  2564 ;; Hardware stack levels required when called: 4
  2565 ;; This function calls:
  2566 ;;		Nothing
  2567 ;; This function is called by:
  2568 ;;		_main
  2569 ;; This function uses a non-reentrant model
  2570 ;;
  2571                           
  2572  0E8F                     _adc_ch_switch:	
  2573                           ;psect for function _adc_ch_switch
  2574                           
  2575                           
  2576                           ;incstack = 0
  2577                           ; Regs used in _adc_ch_switch: [wreg-fsr0h+status,2+status,0]
  2578                           ;adc_ch_switch@channels stored from wreg
  2579  0E8F  1683               	bsf	3,5	;RP0=1, select bank1
  2580  0E90  1303               	bcf	3,6	;RP1=0, select bank1
  2581  0E91  00B4               	movwf	adc_ch_switch@channels^(0+128)
  2582  0E92                     l2630:
  2583                           
  2584                           ;adc.c: 72:     switch(channels){
  2585  0E92  2F32               	goto	l2678
  2586  0E93                     l174:	
  2587                           ;adc.c: 73:         case 1:
  2588                           
  2589                           
  2590                           ;adc.c: 74:             if (ADCON0bits.GO == 0){
  2591  0E93  1283               	bcf	3,5	;RP0=0, select bank0
  2592  0E94  1303               	bcf	3,6	;RP1=0, select bank0
  2593  0E95  189F               	btfsc	31,1	;volatile
  2594  0E96  2E98               	goto	u3231
  2595  0E97  2E99               	goto	u3230
  2596  0E98                     u3231:
  2597  0E98  2F45               	goto	l190
  2598  0E99                     u3230:
  2599  0E99                     l2632:
  2600                           
  2601                           ;adc.c: 75:                 ADCON0bits.CHS = 0;
  2602  0E99  30C3               	movlw	-61
  2603  0E9A  059F               	andwf	31,f	;volatile
  2604  0E9B                     l2634:
  2605                           
  2606                           ;adc.c: 76:                 _delay((unsigned long)((40)*(1000000/4000000.0)));
  2607  0E9B  3002               	movlw	2
  2608  0E9C  1683               	bsf	3,5	;RP0=1, select bank1
  2609  0E9D  1303               	bcf	3,6	;RP1=0, select bank1
  2610  0E9E  00B2               	movwf	??_adc_ch_switch^(0+128)
  2611  0E9F                     u3427:
  2612  0E9F  0BB2               	decfsz	??_adc_ch_switch^(0+128),f
  2613  0EA0  2E9F               	goto	u3427
  2614  0EA1  0000               	nop
  2615  0EA2                     l2636:
  2616                           
  2617                           ;adc.c: 77:                 ADCON0bits.GO = 1;
  2618  0EA2  1283               	bcf	3,5	;RP0=0, select bank0
  2619  0EA3  1303               	bcf	3,6	;RP1=0, select bank0
  2620  0EA4  149F               	bsf	31,1	;volatile
  2621  0EA5  2F45               	goto	l190
  2622  0EA6                     l177:	
  2623                           ;adc.c: 80:         case 2:
  2624                           
  2625                           
  2626                           ;adc.c: 81:             if (ADCON0bits.GO == 0){
  2627  0EA6  1283               	bcf	3,5	;RP0=0, select bank0
  2628  0EA7  1303               	bcf	3,6	;RP1=0, select bank0
  2629  0EA8  189F               	btfsc	31,1	;volatile
  2630  0EA9  2EAB               	goto	u3241
  2631  0EAA  2EAC               	goto	u3240
  2632  0EAB                     u3241:
  2633  0EAB  2F45               	goto	l190
  2634  0EAC                     u3240:
  2635  0EAC                     l2638:
  2636                           
  2637                           ;adc.c: 82:                 if (ADCON0bits.CHS == 0){
  2638  0EAC  0C1F               	rrf	31,w	;volatile
  2639  0EAD  1683               	bsf	3,5	;RP0=1, select bank1
  2640  0EAE  1303               	bcf	3,6	;RP1=0, select bank1
  2641  0EAF  00B2               	movwf	??_adc_ch_switch^(0+128)
  2642  0EB0  0C32               	rrf	??_adc_ch_switch^(0+128),w
  2643  0EB1  390F               	andlw	15
  2644  0EB2  3A00               	xorlw	0
  2645  0EB3  1D03               	skipz
  2646  0EB4  2EB6               	goto	u3251
  2647  0EB5  2EB7               	goto	u3250
  2648  0EB6                     u3251:
  2649  0EB6  2EC5               	goto	l2644
  2650  0EB7                     u3250:
  2651  0EB7                     l2640:
  2652                           
  2653                           ;adc.c: 83:                     ADCON0bits.CHS = 1;
  2654  0EB7  1283               	bcf	3,5	;RP0=0, select bank0
  2655  0EB8  1303               	bcf	3,6	;RP1=0, select bank0
  2656  0EB9  081F               	movf	31,w	;volatile
  2657  0EBA  39C3               	andlw	-61
  2658  0EBB  3804               	iorlw	4
  2659  0EBC  009F               	movwf	31	;volatile
  2660  0EBD                     l2642:
  2661                           
  2662                           ;adc.c: 84:                     _delay((unsigned long)((40)*(1000000/4000000.0)));
  2663  0EBD  3002               	movlw	2
  2664  0EBE  1683               	bsf	3,5	;RP0=1, select bank1
  2665  0EBF  1303               	bcf	3,6	;RP1=0, select bank1
  2666  0EC0  00B2               	movwf	??_adc_ch_switch^(0+128)
  2667  0EC1                     u3437:
  2668  0EC1  0BB2               	decfsz	??_adc_ch_switch^(0+128),f
  2669  0EC2  2EC1               	goto	u3437
  2670  0EC3  0000               	nop
  2671                           
  2672                           ;adc.c: 85:                 }
  2673  0EC4  2ED7               	goto	l2650
  2674  0EC5                     l2644:
  2675  0EC5  1283               	bcf	3,5	;RP0=0, select bank0
  2676  0EC6  1303               	bcf	3,6	;RP1=0, select bank0
  2677  0EC7  0C1F               	rrf	31,w	;volatile
  2678  0EC8  1683               	bsf	3,5	;RP0=1, select bank1
  2679  0EC9  1303               	bcf	3,6	;RP1=0, select bank1
  2680  0ECA  00B2               	movwf	??_adc_ch_switch^(0+128)
  2681  0ECB  0C32               	rrf	??_adc_ch_switch^(0+128),w
  2682  0ECC  390F               	andlw	15
  2683  0ECD  3A01               	xorlw	1
  2684  0ECE  1D03               	skipz
  2685  0ECF  2ED1               	goto	u3261
  2686  0ED0  2ED2               	goto	u3260
  2687  0ED1                     u3261:
  2688  0ED1  2ED7               	goto	l2650
  2689  0ED2                     u3260:
  2690  0ED2                     l2646:
  2691                           
  2692                           ;adc.c: 87:                     ADCON0bits.CHS = 0;
  2693  0ED2  30C3               	movlw	-61
  2694  0ED3  1283               	bcf	3,5	;RP0=0, select bank0
  2695  0ED4  1303               	bcf	3,6	;RP1=0, select bank0
  2696  0ED5  059F               	andwf	31,f	;volatile
  2697  0ED6  2EBD               	goto	l2642
  2698  0ED7                     l2650:
  2699                           
  2700                           ;adc.c: 90:                 _delay((unsigned long)((40)*(1000000/4000000.0)));
  2701  0ED7  3002               	movlw	2
  2702  0ED8  1683               	bsf	3,5	;RP0=1, select bank1
  2703  0ED9  1303               	bcf	3,6	;RP1=0, select bank1
  2704  0EDA  00B2               	movwf	??_adc_ch_switch^(0+128)
  2705  0EDB                     u3447:
  2706  0EDB  0BB2               	decfsz	??_adc_ch_switch^(0+128),f
  2707  0EDC  2EDB               	goto	u3447
  2708  0EDD  0000               	nop
  2709  0EDE                     l2652:
  2710                           
  2711                           ;adc.c: 91:                 ADCON0bits.GO = 1;
  2712  0EDE  1283               	bcf	3,5	;RP0=0, select bank0
  2713  0EDF  1303               	bcf	3,6	;RP1=0, select bank0
  2714  0EE0  149F               	bsf	31,1	;volatile
  2715  0EE1  2F45               	goto	l190
  2716  0EE2                     l182:	
  2717                           ;adc.c: 94:         case 3:
  2718                           
  2719                           
  2720                           ;adc.c: 95:             if (ADCON0bits.GO == 0){
  2721  0EE2  1283               	bcf	3,5	;RP0=0, select bank0
  2722  0EE3  1303               	bcf	3,6	;RP1=0, select bank0
  2723  0EE4  189F               	btfsc	31,1	;volatile
  2724  0EE5  2EE7               	goto	u3271
  2725  0EE6  2EE8               	goto	u3270
  2726  0EE7                     u3271:
  2727  0EE7  2F45               	goto	l190
  2728  0EE8                     u3270:
  2729  0EE8                     l2654:
  2730                           
  2731                           ;adc.c: 96:                 if (ADCON0bits.CHS == 0){
  2732  0EE8  0C1F               	rrf	31,w	;volatile
  2733  0EE9  1683               	bsf	3,5	;RP0=1, select bank1
  2734  0EEA  1303               	bcf	3,6	;RP1=0, select bank1
  2735  0EEB  00B2               	movwf	??_adc_ch_switch^(0+128)
  2736  0EEC  0C32               	rrf	??_adc_ch_switch^(0+128),w
  2737  0EED  390F               	andlw	15
  2738  0EEE  3A00               	xorlw	0
  2739  0EEF  1D03               	skipz
  2740  0EF0  2EF2               	goto	u3281
  2741  0EF1  2EF3               	goto	u3280
  2742  0EF2                     u3281:
  2743  0EF2  2F01               	goto	l2660
  2744  0EF3                     u3280:
  2745  0EF3                     l2656:
  2746                           
  2747                           ;adc.c: 97:                     ADCON0bits.CHS = 1;
  2748  0EF3  1283               	bcf	3,5	;RP0=0, select bank0
  2749  0EF4  1303               	bcf	3,6	;RP1=0, select bank0
  2750  0EF5  081F               	movf	31,w	;volatile
  2751  0EF6  39C3               	andlw	-61
  2752  0EF7  3804               	iorlw	4
  2753  0EF8  009F               	movwf	31	;volatile
  2754  0EF9                     l2658:
  2755                           
  2756                           ;adc.c: 98:                     _delay((unsigned long)((40)*(1000000/4000000.0)));
  2757  0EF9  3002               	movlw	2
  2758  0EFA  1683               	bsf	3,5	;RP0=1, select bank1
  2759  0EFB  1303               	bcf	3,6	;RP1=0, select bank1
  2760  0EFC  00B2               	movwf	??_adc_ch_switch^(0+128)
  2761  0EFD                     u3457:
  2762  0EFD  0BB2               	decfsz	??_adc_ch_switch^(0+128),f
  2763  0EFE  2EFD               	goto	u3457
  2764  0EFF  0000               	nop
  2765                           
  2766                           ;adc.c: 99:                 }
  2767  0F00  2F27               	goto	l2672
  2768  0F01                     l2660:
  2769  0F01  1283               	bcf	3,5	;RP0=0, select bank0
  2770  0F02  1303               	bcf	3,6	;RP1=0, select bank0
  2771  0F03  0C1F               	rrf	31,w	;volatile
  2772  0F04  1683               	bsf	3,5	;RP0=1, select bank1
  2773  0F05  1303               	bcf	3,6	;RP1=0, select bank1
  2774  0F06  00B2               	movwf	??_adc_ch_switch^(0+128)
  2775  0F07  0C32               	rrf	??_adc_ch_switch^(0+128),w
  2776  0F08  390F               	andlw	15
  2777  0F09  3A01               	xorlw	1
  2778  0F0A  1D03               	skipz
  2779  0F0B  2F0D               	goto	u3291
  2780  0F0C  2F0E               	goto	u3290
  2781  0F0D                     u3291:
  2782  0F0D  2F15               	goto	l2666
  2783  0F0E                     u3290:
  2784  0F0E                     l2662:
  2785                           
  2786                           ;adc.c: 101:                     ADCON0bits.CHS = 2;
  2787  0F0E  1283               	bcf	3,5	;RP0=0, select bank0
  2788  0F0F  1303               	bcf	3,6	;RP1=0, select bank0
  2789  0F10  081F               	movf	31,w	;volatile
  2790  0F11  39C3               	andlw	-61
  2791  0F12  3808               	iorlw	8
  2792  0F13  009F               	movwf	31	;volatile
  2793  0F14  2EF9               	goto	l2658
  2794  0F15                     l2666:
  2795  0F15  1283               	bcf	3,5	;RP0=0, select bank0
  2796  0F16  1303               	bcf	3,6	;RP1=0, select bank0
  2797  0F17  0C1F               	rrf	31,w	;volatile
  2798  0F18  1683               	bsf	3,5	;RP0=1, select bank1
  2799  0F19  1303               	bcf	3,6	;RP1=0, select bank1
  2800  0F1A  00B2               	movwf	??_adc_ch_switch^(0+128)
  2801  0F1B  0C32               	rrf	??_adc_ch_switch^(0+128),w
  2802  0F1C  390F               	andlw	15
  2803  0F1D  3A02               	xorlw	2
  2804  0F1E  1D03               	skipz
  2805  0F1F  2F21               	goto	u3301
  2806  0F20  2F22               	goto	u3300
  2807  0F21                     u3301:
  2808  0F21  2F27               	goto	l2672
  2809  0F22                     u3300:
  2810  0F22                     l2668:
  2811                           
  2812                           ;adc.c: 105:                     ADCON0bits.CHS = 0;
  2813  0F22  30C3               	movlw	-61
  2814  0F23  1283               	bcf	3,5	;RP0=0, select bank0
  2815  0F24  1303               	bcf	3,6	;RP1=0, select bank0
  2816  0F25  059F               	andwf	31,f	;volatile
  2817  0F26  2EF9               	goto	l2658
  2818  0F27                     l2672:
  2819                           
  2820                           ;adc.c: 108:                 _delay((unsigned long)((40)*(1000000/4000000.0)));
  2821  0F27  3002               	movlw	2
  2822  0F28  1683               	bsf	3,5	;RP0=1, select bank1
  2823  0F29  1303               	bcf	3,6	;RP1=0, select bank1
  2824  0F2A  00B2               	movwf	??_adc_ch_switch^(0+128)
  2825  0F2B                     u3467:
  2826  0F2B  0BB2               	decfsz	??_adc_ch_switch^(0+128),f
  2827  0F2C  2F2B               	goto	u3467
  2828  0F2D  0000               	nop
  2829  0F2E                     l2674:
  2830                           
  2831                           ;adc.c: 109:                 ADCON0bits.GO = 1;
  2832  0F2E  1283               	bcf	3,5	;RP0=0, select bank0
  2833  0F2F  1303               	bcf	3,6	;RP1=0, select bank0
  2834  0F30  149F               	bsf	31,1	;volatile
  2835  0F31  2F45               	goto	l190
  2836  0F32                     l2678:
  2837  0F32  0834               	movf	adc_ch_switch@channels^(0+128),w
  2838  0F33  00B2               	movwf	??_adc_ch_switch^(0+128)
  2839  0F34  01B3               	clrf	(??_adc_ch_switch^(0+128)+1)
  2840                           
  2841                           ; Switch on 2 bytes has been partitioned into a top level switch of size 1, and 1 sub-sw
      +                          itches
  2842                           ; Switch size 1, requested type "simple"
  2843                           ; Number of cases is 1, Range of values is 0 to 0
  2844                           ; switch strategies available:
  2845                           ; Name         Instructions Cycles
  2846                           ; simple_byte            4     3 (average)
  2847                           ; direct_byte           11     8 (fixed)
  2848                           ; jumptable            260     6 (fixed)
  2849                           ;	Chosen strategy is simple_byte
  2850  0F35  0833               	movf	(??_adc_ch_switch+1)^(0+128),w
  2851  0F36  3A00               	xorlw	0	; case 0
  2852  0F37  1903               	skipnz
  2853  0F38  2F3A               	goto	l2936
  2854  0F39  2F45               	goto	l190
  2855  0F3A                     l2936:
  2856                           
  2857                           ; Switch size 1, requested type "simple"
  2858                           ; Number of cases is 3, Range of values is 1 to 3
  2859                           ; switch strategies available:
  2860                           ; Name         Instructions Cycles
  2861                           ; simple_byte           10     6 (average)
  2862                           ; direct_byte           20    11 (fixed)
  2863                           ; jumptable            263     9 (fixed)
  2864                           ;	Chosen strategy is simple_byte
  2865  0F3A  0832               	movf	??_adc_ch_switch^(0+128),w
  2866  0F3B  3A01               	xorlw	1	; case 1
  2867  0F3C  1903               	skipnz
  2868  0F3D  2E93               	goto	l174
  2869  0F3E  3A03               	xorlw	3	; case 2
  2870  0F3F  1903               	skipnz
  2871  0F40  2EA6               	goto	l177
  2872  0F41  3A01               	xorlw	1	; case 3
  2873  0F42  1903               	skipnz
  2874  0F43  2EE2               	goto	l182
  2875  0F44  2F45               	goto	l190
  2876  0F45                     l190:
  2877  0F45  0008               	return
  2878  0F46                     __end_of_adc_ch_switch:
  2879                           
  2880                           	psect	text12
  2881  0BB0                     __ptext12:	
  2882 ;; *************** function _slave *****************
  2883 ;; Defined at:
  2884 ;;		line 71 in file "main_slave_p1.c"
  2885 ;; Parameters:    Size  Location     Type
  2886 ;;		None
  2887 ;; Auto vars:     Size  Location     Type
  2888 ;;		None
  2889 ;; Return value:  Size  Location     Type
  2890 ;;                  1    wreg      void 
  2891 ;; Registers used:
  2892 ;;		wreg, status,2, status,0, btemp+1, pclath, cstack
  2893 ;; Tracked objects:
  2894 ;;		On entry : 0/0
  2895 ;;		On exit  : 0/0
  2896 ;;		Unchanged: 0/0
  2897 ;; Data sizes:     COMMON   BANK0   BANK1   BANK3   BANK2
  2898 ;;      Params:         0       0       0       0       0
  2899 ;;      Locals:         0       0       0       0       0
  2900 ;;      Temps:          0       0       4       0       0
  2901 ;;      Totals:         0       0       4       0       0
  2902 ;;Total ram usage:        4 bytes
  2903 ;; Hardware stack levels used: 1
  2904 ;; Hardware stack levels required when called: 3
  2905 ;; This function calls:
  2906 ;;		_adc_read
  2907 ;;		_map
  2908 ;; This function is called by:
  2909 ;;		Interrupt level 1
  2910 ;; This function uses a non-reentrant model
  2911 ;;
  2912                           
  2913  0BB0                     _slave:	
  2914                           ;psect for function _slave
  2915                           
  2916  0BB0                     i1l2712:
  2917                           
  2918                           ;main_slave_p1.c: 72:     if(INTCONbits.RBIF){
  2919  0BB0  1C0B               	btfss	11,0	;volatile
  2920  0BB1  2BB3               	goto	u337_21
  2921  0BB2  2BB4               	goto	u337_20
  2922  0BB3                     u337_21:
  2923  0BB3  2BC6               	goto	i1l2722
  2924  0BB4                     u337_20:
  2925  0BB4                     i1l2714:
  2926                           
  2927                           ;main_slave_p1.c: 73:         if(!PORTBbits.RB1){
  2928  0BB4  1283               	bcf	3,5	;RP0=0, select bank0
  2929  0BB5  1303               	bcf	3,6	;RP1=0, select bank0
  2930  0BB6  1886               	btfsc	6,1	;volatile
  2931  0BB7  2BB9               	goto	u338_21
  2932  0BB8  2BBA               	goto	u338_20
  2933  0BB9                     u338_21:
  2934  0BB9  2BC1               	goto	i1l2718
  2935  0BBA                     u338_20:
  2936  0BBA                     i1l2716:
  2937                           
  2938                           ;main_slave_p1.c: 74:             switch_servo = 1;
  2939  0BBA  3001               	movlw	1
  2940  0BBB  1683               	bsf	3,5	;RP0=1, select bank1
  2941  0BBC  1303               	bcf	3,6	;RP1=0, select bank1
  2942  0BBD  00D2               	movwf	_switch_servo^(0+128)
  2943  0BBE  3000               	movlw	0
  2944  0BBF  00D3               	movwf	(_switch_servo^(0+128)+1)
  2945                           
  2946                           ;main_slave_p1.c: 75:         }
  2947  0BC0  2BC5               	goto	i1l2720
  2948  0BC1                     i1l2718:
  2949                           
  2950                           ;main_slave_p1.c: 77:             switch_servo = 0;
  2951  0BC1  1683               	bsf	3,5	;RP0=1, select bank1
  2952  0BC2  1303               	bcf	3,6	;RP1=0, select bank1
  2953  0BC3  01D2               	clrf	_switch_servo^(0+128)
  2954  0BC4  01D3               	clrf	(_switch_servo+1)^(0+128)
  2955  0BC5                     i1l2720:
  2956                           
  2957                           ;main_slave_p1.c: 79:         INTCONbits.RBIF = 0;
  2958  0BC5  100B               	bcf	11,0	;volatile
  2959  0BC6                     i1l2722:
  2960                           
  2961                           ;main_slave_p1.c: 81:     if(PIR1bits.ADIF){
  2962  0BC6  1283               	bcf	3,5	;RP0=0, select bank0
  2963  0BC7  1303               	bcf	3,6	;RP1=0, select bank0
  2964  0BC8  1F0C               	btfss	12,6	;volatile
  2965  0BC9  2BCB               	goto	u339_21
  2966  0BCA  2BCC               	goto	u339_20
  2967  0BCB                     u339_21:
  2968  0BCB  2BFC               	goto	i1l64
  2969  0BCC                     u339_20:
  2970  0BCC                     i1l2724:
  2971                           
  2972                           ;main_slave_p1.c: 82:         if(ADCON0bits.CHS == 0){
  2973  0BCC  0C1F               	rrf	31,w	;volatile
  2974  0BCD  1683               	bsf	3,5	;RP0=1, select bank1
  2975  0BCE  1303               	bcf	3,6	;RP1=0, select bank1
  2976  0BCF  00AE               	movwf	??_slave^(0+128)
  2977  0BD0  0C2E               	rrf	??_slave^(0+128),w
  2978  0BD1  390F               	andlw	15
  2979  0BD2  3A00               	xorlw	0
  2980  0BD3  1D03               	skipz
  2981  0BD4  2BD6               	goto	u340_21
  2982  0BD5  2BD7               	goto	u340_20
  2983  0BD6                     u340_21:
  2984  0BD6  2BF9               	goto	i1l2728
  2985  0BD7                     u340_20:
  2986  0BD7                     i1l2726:
  2987                           
  2988                           ;main_slave_p1.c: 83:             TEMP_POT = map(adc_read(), 0, 1023, 0, 45);
  2989  0BD7  120A  158A  2211  120A  158A  	fcall	_adc_read
  2990  0BDC  0871               	movf	?_adc_read+1,w
  2991  0BDD  1683               	bsf	3,5	;RP0=1, select bank1
  2992  0BDE  1303               	bcf	3,6	;RP1=0, select bank1
  2993  0BDF  00A6               	movwf	(map@x+1)^(0+128)
  2994  0BE0  0870               	movf	?_adc_read,w
  2995  0BE1  00A5               	movwf	map@x^(0+128)
  2996  0BE2  01A7               	clrf	map@x0^(0+128)
  2997  0BE3  30FF               	movlw	255
  2998  0BE4  00A8               	movwf	map@x1^(0+128)
  2999  0BE5  3003               	movlw	3
  3000  0BE6  00A9               	movwf	(map@x1^(0+128)+1)
  3001  0BE7  3000               	movlw	0
  3002  0BE8  00AA               	movwf	map@y0^(0+128)
  3003  0BE9  00AB               	movwf	(map@y0+1)^(0+128)
  3004  0BEA  302D               	movlw	45
  3005  0BEB  00AC               	movwf	map@y1^(0+128)
  3006  0BEC  3000               	movlw	0
  3007  0BED  00AD               	movwf	(map@y1^(0+128)+1)
  3008  0BEE  120A  158A  25E6  120A  158A  	fcall	_map
  3009  0BF3  1683               	bsf	3,5	;RP0=1, select bank1
  3010  0BF4  1303               	bcf	3,6	;RP1=0, select bank1
  3011  0BF5  0826               	movf	(?_map+1)^(0+128),w
  3012  0BF6  00D1               	movwf	(_TEMP_POT+1)^(0+128)
  3013  0BF7  0825               	movf	?_map^(0+128),w
  3014  0BF8  00D0               	movwf	_TEMP_POT^(0+128)
  3015  0BF9                     i1l2728:
  3016                           
  3017                           ;main_slave_p1.c: 85:         PIR1bits.ADIF = 0;
  3018  0BF9  1283               	bcf	3,5	;RP0=0, select bank0
  3019  0BFA  1303               	bcf	3,6	;RP1=0, select bank0
  3020  0BFB  130C               	bcf	12,6	;volatile
  3021  0BFC                     i1l64:
  3022  0BFC  1683               	bsf	3,5	;RP0=1, select bank1
  3023  0BFD  1303               	bcf	3,6	;RP1=0, select bank1
  3024  0BFE  0831               	movf	(??_slave+3)^(0+128),w
  3025  0BFF  00FF               	movwf	btemp+1
  3026  0C00  0830               	movf	(??_slave+2)^(0+128),w
  3027  0C01  008A               	movwf	10
  3028  0C02  0E2F               	swapf	(??_slave+1)^(0+128),w
  3029  0C03  0083               	movwf	3
  3030  0C04  0EFE               	swapf	btemp,f
  3031  0C05  0E7E               	swapf	btemp,w
  3032  0C06  0009               	retfie
  3033  0C07                     __end_of_slave:
  3034                           
  3035                           	psect	intentry
  3036  0004                     __pintentry:	
  3037                           ;incstack = 0
  3038                           ; Regs used in _slave: [wreg+status,2+status,0+btemp+1+pclath+cstack]
  3039                           
  3040  0004                     interrupt_function:
  3041  007E                     saved_w	set	btemp
  3042  0004  00FE               	movwf	btemp
  3043  0005  0E03               	swapf	3,w
  3044  0006  1683               	bsf	3,5	;RP0=1, select bank1
  3045  0007  1303               	bcf	3,6	;RP1=0, select bank1
  3046  0008  00AF               	movwf	(??_slave+1)^(0+128)
  3047  0009  080A               	movf	10,w
  3048  000A  00B0               	movwf	(??_slave+2)^(0+128)
  3049  000B  087F               	movf	btemp+1,w
  3050  000C  00B1               	movwf	(??_slave+3)^(0+128)
  3051  000D  120A  158A  2BB0   	ljmp	_slave
  3052                           
  3053                           	psect	text13
  3054  0DE6                     __ptext13:	
  3055 ;; *************** function _map *****************
  3056 ;; Defined at:
  3057 ;;		line 108 in file "main_slave_p1.c"
  3058 ;; Parameters:    Size  Location     Type
  3059 ;;  x               2    5[BANK1 ] unsigned int 
  3060 ;;  x0              1    7[BANK1 ] unsigned char 
  3061 ;;  x1              2    8[BANK1 ] unsigned int 
  3062 ;;  y0              2   10[BANK1 ] unsigned short 
  3063 ;;  y1              2   12[BANK1 ] unsigned short 
  3064 ;; Auto vars:     Size  Location     Type
  3065 ;;		None
  3066 ;; Return value:  Size  Location     Type
  3067 ;;                  2    5[BANK1 ] unsigned short 
  3068 ;; Registers used:
  3069 ;;		wreg, status,2, status,0, btemp+1, pclath, cstack
  3070 ;; Tracked objects:
  3071 ;;		On entry : 0/0
  3072 ;;		On exit  : 0/0
  3073 ;;		Unchanged: 0/0
  3074 ;; Data sizes:     COMMON   BANK0   BANK1   BANK3   BANK2
  3075 ;;      Params:         0       0       9       0       0
  3076 ;;      Locals:         0       0       0       0       0
  3077 ;;      Temps:          0       0       0       0       0
  3078 ;;      Totals:         0       0       9       0       0
  3079 ;;Total ram usage:        9 bytes
  3080 ;; Hardware stack levels used: 1
  3081 ;; Hardware stack levels required when called: 2
  3082 ;; This function calls:
  3083 ;;		___fladd
  3084 ;;		___fldiv
  3085 ;;		___flmul
  3086 ;;		___fltol
  3087 ;;		___xxtofl
  3088 ;; This function is called by:
  3089 ;;		_slave
  3090 ;; This function uses a non-reentrant model
  3091 ;;
  3092                           
  3093  0DE6                     _map:	
  3094                           ;psect for function _map
  3095                           
  3096  0DE6                     i1l2588:	
  3097                           ;incstack = 0
  3098                           ; Regs used in _map: [wreg+status,2+status,0+btemp+1+pclath+cstack]
  3099                           
  3100                           
  3101                           ;main_slave_p1.c: 108: unsigned short map(uint16_t x, uint8_t x0, uint16_t x1,;main_slav
      +                          e_p1.c: 109:             unsigned short y0, unsigned short y1){;main_slave_p1.c: 110:   
      +                            return (unsigned short)(y0+((float)(y1-y0)/(x1-x0))*(x-x0));
  3102  0DE6  1683               	bsf	3,5	;RP0=1, select bank1
  3103  0DE7  1303               	bcf	3,6	;RP1=0, select bank1
  3104  0DE8  082A               	movf	map@y0^(0+128),w
  3105  0DE9  00F0               	movwf	___xxtofl@val
  3106  0DEA  082B               	movf	(map@y0+1)^(0+128),w
  3107  0DEB  00F1               	movwf	___xxtofl@val+1
  3108  0DEC  01F2               	clrf	___xxtofl@val+2
  3109  0DED  01F3               	clrf	___xxtofl@val+3
  3110  0DEE  3000               	movlw	0
  3111  0DEF  120A  158A  2746  120A  158A  	fcall	___xxtofl
  3112  0DF4  0873               	movf	?___xxtofl+3,w
  3113  0DF5  1283               	bcf	3,5	;RP0=0, select bank0
  3114  0DF6  1303               	bcf	3,6	;RP1=0, select bank0
  3115  0DF7  00DB               	movwf	___fladd@a+3
  3116  0DF8  0872               	movf	?___xxtofl+2,w
  3117  0DF9  00DA               	movwf	___fladd@a+2
  3118  0DFA  0871               	movf	?___xxtofl+1,w
  3119  0DFB  00D9               	movwf	___fladd@a+1
  3120  0DFC  0870               	movf	?___xxtofl,w
  3121  0DFD  00D8               	movwf	___fladd@a
  3122  0DFE  1683               	bsf	3,5	;RP0=1, select bank1
  3123  0DFF  1303               	bcf	3,6	;RP1=0, select bank1
  3124  0E00  082A               	movf	map@y0^(0+128),w
  3125  0E01  022C               	subwf	map@y1^(0+128),w
  3126  0E02  00F0               	movwf	___xxtofl@val
  3127  0E03  082B               	movf	(map@y0+1)^(0+128),w
  3128  0E04  1C03               	skipc
  3129  0E05  0A2B               	incf	(map@y0+1)^(0+128),w
  3130  0E06  022D               	subwf	(map@y1+1)^(0+128),w
  3131  0E07  00F1               	movwf	___xxtofl@val+1
  3132  0E08  01F2               	clrf	___xxtofl@val+2
  3133  0E09  01F3               	clrf	___xxtofl@val+3
  3134  0E0A  3000               	movlw	0
  3135  0E0B  120A  158A  2746  120A  158A  	fcall	___xxtofl
  3136  0E10  0873               	movf	?___xxtofl+3,w
  3137  0E11  1283               	bcf	3,5	;RP0=0, select bank0
  3138  0E12  1303               	bcf	3,6	;RP1=0, select bank0
  3139  0E13  00A7               	movwf	___fldiv@b+3
  3140  0E14  0872               	movf	?___xxtofl+2,w
  3141  0E15  00A6               	movwf	___fldiv@b+2
  3142  0E16  0871               	movf	?___xxtofl+1,w
  3143  0E17  00A5               	movwf	___fldiv@b+1
  3144  0E18  0870               	movf	?___xxtofl,w
  3145  0E19  00A4               	movwf	___fldiv@b
  3146  0E1A  1683               	bsf	3,5	;RP0=1, select bank1
  3147  0E1B  1303               	bcf	3,6	;RP1=0, select bank1
  3148  0E1C  0827               	movf	map@x0^(0+128),w
  3149  0E1D  0228               	subwf	map@x1^(0+128),w
  3150  0E1E  00F0               	movwf	___xxtofl@val
  3151  0E1F  0829               	movf	(map@x1+1)^(0+128),w
  3152  0E20  1C03               	skipc
  3153  0E21  0329               	decf	(map@x1+1)^(0+128),w
  3154  0E22  00F1               	movwf	___xxtofl@val+1
  3155  0E23  01F2               	clrf	___xxtofl@val+2
  3156  0E24  01F3               	clrf	___xxtofl@val+3
  3157  0E25  3000               	movlw	0
  3158  0E26  120A  158A  2746  120A  158A  	fcall	___xxtofl
  3159  0E2B  0873               	movf	?___xxtofl+3,w
  3160  0E2C  1283               	bcf	3,5	;RP0=0, select bank0
  3161  0E2D  1303               	bcf	3,6	;RP1=0, select bank0
  3162  0E2E  00A3               	movwf	___fldiv@a+3
  3163  0E2F  0872               	movf	?___xxtofl+2,w
  3164  0E30  00A2               	movwf	___fldiv@a+2
  3165  0E31  0871               	movf	?___xxtofl+1,w
  3166  0E32  00A1               	movwf	___fldiv@a+1
  3167  0E33  0870               	movf	?___xxtofl,w
  3168  0E34  00A0               	movwf	___fldiv@a
  3169  0E35  120A  118A  261E  120A  158A  	fcall	___fldiv
  3170  0E3A  1283               	bcf	3,5	;RP0=0, select bank0
  3171  0E3B  1303               	bcf	3,6	;RP1=0, select bank0
  3172  0E3C  0823               	movf	?___fldiv+3,w
  3173  0E3D  00C1               	movwf	___flmul@a+3
  3174  0E3E  0822               	movf	?___fldiv+2,w
  3175  0E3F  00C0               	movwf	___flmul@a+2
  3176  0E40  0821               	movf	?___fldiv+1,w
  3177  0E41  00BF               	movwf	___flmul@a+1
  3178  0E42  0820               	movf	?___fldiv,w
  3179  0E43  00BE               	movwf	___flmul@a
  3180  0E44  1683               	bsf	3,5	;RP0=1, select bank1
  3181  0E45  1303               	bcf	3,6	;RP1=0, select bank1
  3182  0E46  0827               	movf	map@x0^(0+128),w
  3183  0E47  0225               	subwf	map@x^(0+128),w
  3184  0E48  00F0               	movwf	___xxtofl@val
  3185  0E49  0826               	movf	(map@x+1)^(0+128),w
  3186  0E4A  1C03               	skipc
  3187  0E4B  0326               	decf	(map@x+1)^(0+128),w
  3188  0E4C  00F1               	movwf	___xxtofl@val+1
  3189  0E4D  01F2               	clrf	___xxtofl@val+2
  3190  0E4E  01F3               	clrf	___xxtofl@val+3
  3191  0E4F  3000               	movlw	0
  3192  0E50  120A  158A  2746  120A  158A  	fcall	___xxtofl
  3193  0E55  0873               	movf	?___xxtofl+3,w
  3194  0E56  1283               	bcf	3,5	;RP0=0, select bank0
  3195  0E57  1303               	bcf	3,6	;RP1=0, select bank0
  3196  0E58  00BD               	movwf	___flmul@b+3
  3197  0E59  0872               	movf	?___xxtofl+2,w
  3198  0E5A  00BC               	movwf	___flmul@b+2
  3199  0E5B  0871               	movf	?___xxtofl+1,w
  3200  0E5C  00BB               	movwf	___flmul@b+1
  3201  0E5D  0870               	movf	?___xxtofl,w
  3202  0E5E  00BA               	movwf	___flmul@b
  3203  0E5F  120A  118A  2035  120A  158A  	fcall	___flmul
  3204  0E64  1283               	bcf	3,5	;RP0=0, select bank0
  3205  0E65  1303               	bcf	3,6	;RP1=0, select bank0
  3206  0E66  083D               	movf	?___flmul+3,w
  3207  0E67  00D7               	movwf	___fladd@b+3
  3208  0E68  083C               	movf	?___flmul+2,w
  3209  0E69  00D6               	movwf	___fladd@b+2
  3210  0E6A  083B               	movf	?___flmul+1,w
  3211  0E6B  00D5               	movwf	___fladd@b+1
  3212  0E6C  083A               	movf	?___flmul,w
  3213  0E6D  00D4               	movwf	___fladd@b
  3214  0E6E  120A  118A  2396  120A  158A  	fcall	___fladd
  3215  0E73  1283               	bcf	3,5	;RP0=0, select bank0
  3216  0E74  1303               	bcf	3,6	;RP1=0, select bank0
  3217  0E75  0857               	movf	?___fladd+3,w
  3218  0E76  00EB               	movwf	___fltol@f1+3
  3219  0E77  0856               	movf	?___fladd+2,w
  3220  0E78  00EA               	movwf	___fltol@f1+2
  3221  0E79  0855               	movf	?___fladd+1,w
  3222  0E7A  00E9               	movwf	___fltol@f1+1
  3223  0E7B  0854               	movf	?___fladd,w
  3224  0E7C  00E8               	movwf	___fltol@f1
  3225  0E7D  120A  158A  254A  120A  158A  	fcall	___fltol
  3226  0E82  1283               	bcf	3,5	;RP0=0, select bank0
  3227  0E83  1303               	bcf	3,6	;RP1=0, select bank0
  3228  0E84  0869               	movf	?___fltol+1,w
  3229  0E85  1683               	bsf	3,5	;RP0=1, select bank1
  3230  0E86  1303               	bcf	3,6	;RP1=0, select bank1
  3231  0E87  00A6               	movwf	(?_map+1)^(0+128)
  3232  0E88  1283               	bcf	3,5	;RP0=0, select bank0
  3233  0E89  1303               	bcf	3,6	;RP1=0, select bank0
  3234  0E8A  0868               	movf	?___fltol,w
  3235  0E8B  1683               	bsf	3,5	;RP0=1, select bank1
  3236  0E8C  1303               	bcf	3,6	;RP1=0, select bank1
  3237  0E8D  00A5               	movwf	?_map^(0+128)
  3238  0E8E                     i1l75:
  3239  0E8E  0008               	return
  3240  0E8F                     __end_of_map:
  3241                           
  3242                           	psect	text14
  3243  0F46                     __ptext14:	
  3244 ;; *************** function ___xxtofl *****************
  3245 ;; Defined at:
  3246 ;;		line 10 in file "C:\Program Files\Microchip\xc8\v2.35\pic\sources\c90\common\xxtofl.c"
  3247 ;; Parameters:    Size  Location     Type
  3248 ;;  sign            1    wreg     unsigned char 
  3249 ;;  val             4    0[COMMON] long 
  3250 ;; Auto vars:     Size  Location     Type
  3251 ;;  sign            1    8[COMMON] unsigned char 
  3252 ;;  arg             4   10[COMMON] unsigned long 
  3253 ;;  exp             1    9[COMMON] unsigned char 
  3254 ;; Return value:  Size  Location     Type
  3255 ;;                  4    0[COMMON] unsigned char 
  3256 ;; Registers used:
  3257 ;;		wreg, status,2, status,0
  3258 ;; Tracked objects:
  3259 ;;		On entry : 0/0
  3260 ;;		On exit  : 0/0
  3261 ;;		Unchanged: 0/0
  3262 ;; Data sizes:     COMMON   BANK0   BANK1   BANK3   BANK2
  3263 ;;      Params:         4       0       0       0       0
  3264 ;;      Locals:         6       0       0       0       0
  3265 ;;      Temps:          4       0       0       0       0
  3266 ;;      Totals:        14       0       0       0       0
  3267 ;;Total ram usage:       14 bytes
  3268 ;; Hardware stack levels used: 1
  3269 ;; This function calls:
  3270 ;;		Nothing
  3271 ;; This function is called by:
  3272 ;;		_map
  3273 ;; This function uses a non-reentrant model
  3274 ;;
  3275                           
  3276  0F46                     ___xxtofl:	
  3277                           ;psect for function ___xxtofl
  3278                           
  3279                           
  3280                           ;incstack = 0
  3281                           ; Regs used in ___xxtofl: [wreg+status,2+status,0]
  3282                           ;___xxtofl@sign stored from wreg
  3283  0F46  00F8               	movwf	___xxtofl@sign
  3284  0F47                     i1l2538:
  3285  0F47  0878               	movf	___xxtofl@sign,w
  3286  0F48  1903               	btfsc	3,2
  3287  0F49  2F4B               	goto	u309_21
  3288  0F4A  2F4C               	goto	u309_20
  3289  0F4B                     u309_21:
  3290  0F4B  2F60               	goto	i1l2544
  3291  0F4C                     u309_20:
  3292  0F4C                     i1l2540:
  3293  0F4C  1FF3               	btfss	___xxtofl@val+3,7
  3294  0F4D  2F4F               	goto	u310_21
  3295  0F4E  2F50               	goto	u310_20
  3296  0F4F                     u310_21:
  3297  0F4F  2F60               	goto	i1l2544
  3298  0F50                     u310_20:
  3299  0F50                     i1l2542:
  3300  0F50  0970               	comf	___xxtofl@val,w
  3301  0F51  00FA               	movwf	___xxtofl@arg
  3302  0F52  0971               	comf	___xxtofl@val+1,w
  3303  0F53  00FB               	movwf	___xxtofl@arg+1
  3304  0F54  0972               	comf	___xxtofl@val+2,w
  3305  0F55  00FC               	movwf	___xxtofl@arg+2
  3306  0F56  0973               	comf	___xxtofl@val+3,w
  3307  0F57  00FD               	movwf	___xxtofl@arg+3
  3308  0F58  0AFA               	incf	___xxtofl@arg,f
  3309  0F59  1903               	skipnz
  3310  0F5A  0AFB               	incf	___xxtofl@arg+1,f
  3311  0F5B  1903               	skipnz
  3312  0F5C  0AFC               	incf	___xxtofl@arg+2,f
  3313  0F5D  1903               	skipnz
  3314  0F5E  0AFD               	incf	___xxtofl@arg+3,f
  3315  0F5F  2F68               	goto	i1l741
  3316  0F60                     i1l2544:
  3317  0F60  0873               	movf	___xxtofl@val+3,w
  3318  0F61  00FD               	movwf	___xxtofl@arg+3
  3319  0F62  0872               	movf	___xxtofl@val+2,w
  3320  0F63  00FC               	movwf	___xxtofl@arg+2
  3321  0F64  0871               	movf	___xxtofl@val+1,w
  3322  0F65  00FB               	movwf	___xxtofl@arg+1
  3323  0F66  0870               	movf	___xxtofl@val,w
  3324  0F67  00FA               	movwf	___xxtofl@arg
  3325  0F68                     i1l741:
  3326  0F68  0873               	movf	___xxtofl@val+3,w
  3327  0F69  0472               	iorwf	___xxtofl@val+2,w
  3328  0F6A  0471               	iorwf	___xxtofl@val+1,w
  3329  0F6B  0470               	iorwf	___xxtofl@val,w
  3330  0F6C  1D03               	skipz
  3331  0F6D  2F6F               	goto	u311_21
  3332  0F6E  2F70               	goto	u311_20
  3333  0F6F                     u311_21:
  3334  0F6F  2F79               	goto	i1l2550
  3335  0F70                     u311_20:
  3336  0F70                     i1l2546:
  3337  0F70  3000               	movlw	0
  3338  0F71  00F3               	movwf	?___xxtofl+3
  3339  0F72  3000               	movlw	0
  3340  0F73  00F2               	movwf	?___xxtofl+2
  3341  0F74  3000               	movlw	0
  3342  0F75  00F1               	movwf	?___xxtofl+1
  3343  0F76  3000               	movlw	0
  3344  0F77  00F0               	movwf	?___xxtofl
  3345  0F78  2FFF               	goto	i1l743
  3346  0F79                     i1l2550:
  3347  0F79  3096               	movlw	150
  3348  0F7A  00F4               	movwf	??___xxtofl
  3349  0F7B  0874               	movf	??___xxtofl,w
  3350  0F7C  00F9               	movwf	___xxtofl@exp
  3351  0F7D  2F8B               	goto	i1l2554
  3352  0F7E                     i1l2552:
  3353  0F7E  3001               	movlw	1
  3354  0F7F  00F4               	movwf	??___xxtofl
  3355  0F80  0874               	movf	??___xxtofl,w
  3356  0F81  07F9               	addwf	___xxtofl@exp,f
  3357  0F82  3001               	movlw	1
  3358  0F83                     u312_25:
  3359  0F83  1003               	clrc
  3360  0F84  0CFD               	rrf	___xxtofl@arg+3,f
  3361  0F85  0CFC               	rrf	___xxtofl@arg+2,f
  3362  0F86  0CFB               	rrf	___xxtofl@arg+1,f
  3363  0F87  0CFA               	rrf	___xxtofl@arg,f
  3364  0F88  3EFF               	addlw	-1
  3365  0F89  1D03               	skipz
  3366  0F8A  2F83               	goto	u312_25
  3367  0F8B                     i1l2554:
  3368  0F8B  30FE               	movlw	254
  3369  0F8C  057D               	andwf	___xxtofl@arg+3,w
  3370  0F8D  1D03               	btfss	3,2
  3371  0F8E  2F90               	goto	u313_21
  3372  0F8F  2F91               	goto	u313_20
  3373  0F90                     u313_21:
  3374  0F90  2F7E               	goto	i1l2552
  3375  0F91                     u313_20:
  3376  0F91  2FAD               	goto	i1l747
  3377  0F92                     i1l2556:
  3378  0F92  3001               	movlw	1
  3379  0F93  00F4               	movwf	??___xxtofl
  3380  0F94  0874               	movf	??___xxtofl,w
  3381  0F95  07F9               	addwf	___xxtofl@exp,f
  3382  0F96                     i1l2558:
  3383  0F96  3001               	movlw	1
  3384  0F97  07FA               	addwf	___xxtofl@arg,f
  3385  0F98  3000               	movlw	0
  3386  0F99  1803               	skipnc
  3387  0F9A  3001               	movlw	1
  3388  0F9B  07FB               	addwf	___xxtofl@arg+1,f
  3389  0F9C  3000               	movlw	0
  3390  0F9D  1803               	skipnc
  3391  0F9E  3001               	movlw	1
  3392  0F9F  07FC               	addwf	___xxtofl@arg+2,f
  3393  0FA0  3000               	movlw	0
  3394  0FA1  1803               	skipnc
  3395  0FA2  3001               	movlw	1
  3396  0FA3  07FD               	addwf	___xxtofl@arg+3,f
  3397  0FA4                     i1l2560:
  3398  0FA4  3001               	movlw	1
  3399  0FA5                     u314_25:
  3400  0FA5  1003               	clrc
  3401  0FA6  0CFD               	rrf	___xxtofl@arg+3,f
  3402  0FA7  0CFC               	rrf	___xxtofl@arg+2,f
  3403  0FA8  0CFB               	rrf	___xxtofl@arg+1,f
  3404  0FA9  0CFA               	rrf	___xxtofl@arg,f
  3405  0FAA  3EFF               	addlw	-1
  3406  0FAB  1D03               	skipz
  3407  0FAC  2FA5               	goto	u314_25
  3408  0FAD                     i1l747:
  3409  0FAD  30FF               	movlw	255
  3410  0FAE  057D               	andwf	___xxtofl@arg+3,w
  3411  0FAF  1D03               	btfss	3,2
  3412  0FB0  2FB2               	goto	u315_21
  3413  0FB1  2FB3               	goto	u315_20
  3414  0FB2                     u315_21:
  3415  0FB2  2F92               	goto	i1l2556
  3416  0FB3                     u315_20:
  3417  0FB3  2FBF               	goto	i1l2564
  3418  0FB4                     i1l2562:
  3419  0FB4  3001               	movlw	1
  3420  0FB5  02F9               	subwf	___xxtofl@exp,f
  3421  0FB6  3001               	movlw	1
  3422  0FB7  00F4               	movwf	??___xxtofl
  3423  0FB8                     u316_25:
  3424  0FB8  1003               	clrc
  3425  0FB9  0DFA               	rlf	___xxtofl@arg,f
  3426  0FBA  0DFB               	rlf	___xxtofl@arg+1,f
  3427  0FBB  0DFC               	rlf	___xxtofl@arg+2,f
  3428  0FBC  0DFD               	rlf	___xxtofl@arg+3,f
  3429  0FBD  0BF4               	decfsz	??___xxtofl,f
  3430  0FBE  2FB8               	goto	u316_25
  3431  0FBF                     i1l2564:
  3432  0FBF  1BFC               	btfsc	___xxtofl@arg+2,7
  3433  0FC0  2FC2               	goto	u317_21
  3434  0FC1  2FC3               	goto	u317_20
  3435  0FC2                     u317_21:
  3436  0FC2  2FC9               	goto	i1l754
  3437  0FC3                     u317_20:
  3438  0FC3                     i1l2566:
  3439  0FC3  3002               	movlw	2
  3440  0FC4  0279               	subwf	___xxtofl@exp,w
  3441  0FC5  1803               	skipnc
  3442  0FC6  2FC8               	goto	u318_21
  3443  0FC7  2FC9               	goto	u318_20
  3444  0FC8                     u318_21:
  3445  0FC8  2FB4               	goto	i1l2562
  3446  0FC9                     u318_20:
  3447  0FC9                     i1l754:
  3448  0FC9  1879               	btfsc	___xxtofl@exp,0
  3449  0FCA  2FCC               	goto	u319_21
  3450  0FCB  2FCD               	goto	u319_20
  3451  0FCC                     u319_21:
  3452  0FCC  2FD5               	goto	i1l755
  3453  0FCD                     u319_20:
  3454  0FCD                     i1l2568:
  3455  0FCD  30FF               	movlw	255
  3456  0FCE  05FA               	andwf	___xxtofl@arg,f
  3457  0FCF  30FF               	movlw	255
  3458  0FD0  05FB               	andwf	___xxtofl@arg+1,f
  3459  0FD1  307F               	movlw	127
  3460  0FD2  05FC               	andwf	___xxtofl@arg+2,f
  3461  0FD3  30FF               	movlw	255
  3462  0FD4  05FD               	andwf	___xxtofl@arg+3,f
  3463  0FD5                     i1l755:
  3464  0FD5  1003               	clrc
  3465  0FD6  0CF9               	rrf	___xxtofl@exp,f
  3466  0FD7                     i1l2570:
  3467  0FD7  0879               	movf	___xxtofl@exp,w
  3468  0FD8  00F4               	movwf	??___xxtofl
  3469  0FD9  01F5               	clrf	??___xxtofl+1
  3470  0FDA  01F6               	clrf	??___xxtofl+2
  3471  0FDB  01F7               	clrf	??___xxtofl+3
  3472  0FDC  3018               	movlw	24
  3473  0FDD                     u320_25:
  3474  0FDD  1003               	clrc
  3475  0FDE  0DF4               	rlf	??___xxtofl,f
  3476  0FDF  0DF5               	rlf	??___xxtofl+1,f
  3477  0FE0  0DF6               	rlf	??___xxtofl+2,f
  3478  0FE1  0DF7               	rlf	??___xxtofl+3,f
  3479  0FE2                     u320_20:
  3480  0FE2  3EFF               	addlw	-1
  3481  0FE3  1D03               	skipz
  3482  0FE4  2FDD               	goto	u320_25
  3483  0FE5  0874               	movf	??___xxtofl,w
  3484  0FE6  04FA               	iorwf	___xxtofl@arg,f
  3485  0FE7  0875               	movf	??___xxtofl+1,w
  3486  0FE8  04FB               	iorwf	___xxtofl@arg+1,f
  3487  0FE9  0876               	movf	??___xxtofl+2,w
  3488  0FEA  04FC               	iorwf	___xxtofl@arg+2,f
  3489  0FEB  0877               	movf	??___xxtofl+3,w
  3490  0FEC  04FD               	iorwf	___xxtofl@arg+3,f
  3491  0FED                     i1l2572:
  3492  0FED  0878               	movf	___xxtofl@sign,w
  3493  0FEE  1903               	btfsc	3,2
  3494  0FEF  2FF1               	goto	u321_21
  3495  0FF0  2FF2               	goto	u321_20
  3496  0FF1                     u321_21:
  3497  0FF1  2FF7               	goto	i1l2578
  3498  0FF2                     u321_20:
  3499  0FF2                     i1l2574:
  3500  0FF2  1FF3               	btfss	___xxtofl@val+3,7
  3501  0FF3  2FF5               	goto	u322_21
  3502  0FF4  2FF6               	goto	u322_20
  3503  0FF5                     u322_21:
  3504  0FF5  2FF7               	goto	i1l2578
  3505  0FF6                     u322_20:
  3506  0FF6                     i1l2576:
  3507  0FF6  17FD               	bsf	___xxtofl@arg+3,7
  3508  0FF7                     i1l2578:
  3509  0FF7  087D               	movf	___xxtofl@arg+3,w
  3510  0FF8  00F3               	movwf	?___xxtofl+3
  3511  0FF9  087C               	movf	___xxtofl@arg+2,w
  3512  0FFA  00F2               	movwf	?___xxtofl+2
  3513  0FFB  087B               	movf	___xxtofl@arg+1,w
  3514  0FFC  00F1               	movwf	?___xxtofl+1
  3515  0FFD  087A               	movf	___xxtofl@arg,w
  3516  0FFE  00F0               	movwf	?___xxtofl
  3517  0FFF                     i1l743:
  3518  0FFF  0008               	return
  3519  1000                     __end_of___xxtofl:
  3520                           
  3521                           	psect	text15
  3522  0D4A                     __ptext15:	
  3523 ;; *************** function ___fltol *****************
  3524 ;; Defined at:
  3525 ;;		line 43 in file "C:\Program Files\Microchip\xc8\v2.35\pic\sources\c90\common\fltol.c"
  3526 ;; Parameters:    Size  Location     Type
  3527 ;;  f1              4   72[BANK0 ] unsigned char 
  3528 ;; Auto vars:     Size  Location     Type
  3529 ;;  exp1            1   77[BANK0 ] unsigned char 
  3530 ;;  sign1           1   76[BANK0 ] unsigned char 
  3531 ;; Return value:  Size  Location     Type
  3532 ;;                  4   72[BANK0 ] long 
  3533 ;; Registers used:
  3534 ;;		wreg, status,2, status,0
  3535 ;; Tracked objects:
  3536 ;;		On entry : 0/0
  3537 ;;		On exit  : 0/0
  3538 ;;		Unchanged: 0/0
  3539 ;; Data sizes:     COMMON   BANK0   BANK1   BANK3   BANK2
  3540 ;;      Params:         0       4       0       0       0
  3541 ;;      Locals:         0       2       0       0       0
  3542 ;;      Temps:          0       0       5       0       0
  3543 ;;      Totals:         0       6       5       0       0
  3544 ;;Total ram usage:       11 bytes
  3545 ;; Hardware stack levels used: 1
  3546 ;; This function calls:
  3547 ;;		Nothing
  3548 ;; This function is called by:
  3549 ;;		_map
  3550 ;; This function uses a non-reentrant model
  3551 ;;
  3552                           
  3553  0D4A                     ___fltol:	
  3554                           ;psect for function ___fltol
  3555                           
  3556  0D4A                     i1l2026:	
  3557                           ;incstack = 0
  3558                           ; Regs used in ___fltol: [wreg+status,2+status,0]
  3559                           
  3560  0D4A  1003               	clrc
  3561  0D4B  1283               	bcf	3,5	;RP0=0, select bank0
  3562  0D4C  1303               	bcf	3,6	;RP1=0, select bank0
  3563  0D4D  0D6A               	rlf	___fltol@f1+2,w
  3564  0D4E  0D6B               	rlf	___fltol@f1+3,w
  3565  0D4F  1683               	bsf	3,5	;RP0=1, select bank1
  3566  0D50  1303               	bcf	3,6	;RP1=0, select bank1
  3567  0D51  00A0               	movwf	??___fltol^(0+128)
  3568  0D52  0820               	movf	??___fltol^(0+128),w
  3569  0D53  1283               	bcf	3,5	;RP0=0, select bank0
  3570  0D54  1303               	bcf	3,6	;RP1=0, select bank0
  3571  0D55  00ED               	movwf	___fltol@exp1
  3572  0D56  086D               	movf	___fltol@exp1,w
  3573  0D57  1D03               	btfss	3,2
  3574  0D58  2D5A               	goto	u187_21
  3575  0D59  2D5B               	goto	u187_20
  3576  0D5A                     u187_21:
  3577  0D5A  2D64               	goto	i1l2032
  3578  0D5B                     u187_20:
  3579  0D5B                     i1l2028:
  3580  0D5B  3000               	movlw	0
  3581  0D5C  00EB               	movwf	?___fltol+3
  3582  0D5D  3000               	movlw	0
  3583  0D5E  00EA               	movwf	?___fltol+2
  3584  0D5F  3000               	movlw	0
  3585  0D60  00E9               	movwf	?___fltol+1
  3586  0D61  3000               	movlw	0
  3587  0D62  00E8               	movwf	?___fltol
  3588  0D63  2DE5               	goto	i1l494
  3589  0D64                     i1l2032:
  3590  0D64  0868               	movf	___fltol@f1,w
  3591  0D65  1683               	bsf	3,5	;RP0=1, select bank1
  3592  0D66  1303               	bcf	3,6	;RP1=0, select bank1
  3593  0D67  00A0               	movwf	??___fltol^(0+128)
  3594  0D68  1283               	bcf	3,5	;RP0=0, select bank0
  3595  0D69  1303               	bcf	3,6	;RP1=0, select bank0
  3596  0D6A  0869               	movf	___fltol@f1+1,w
  3597  0D6B  1683               	bsf	3,5	;RP0=1, select bank1
  3598  0D6C  1303               	bcf	3,6	;RP1=0, select bank1
  3599  0D6D  00A1               	movwf	(??___fltol^(0+128)+1)
  3600  0D6E  1283               	bcf	3,5	;RP0=0, select bank0
  3601  0D6F  1303               	bcf	3,6	;RP1=0, select bank0
  3602  0D70  086A               	movf	___fltol@f1+2,w
  3603  0D71  1683               	bsf	3,5	;RP0=1, select bank1
  3604  0D72  1303               	bcf	3,6	;RP1=0, select bank1
  3605  0D73  00A2               	movwf	(??___fltol^(0+128)+2)
  3606  0D74  1283               	bcf	3,5	;RP0=0, select bank0
  3607  0D75  1303               	bcf	3,6	;RP1=0, select bank0
  3608  0D76  086B               	movf	___fltol@f1+3,w
  3609  0D77  1683               	bsf	3,5	;RP0=1, select bank1
  3610  0D78  1303               	bcf	3,6	;RP1=0, select bank1
  3611  0D79  00A3               	movwf	(??___fltol^(0+128)+3)
  3612  0D7A  301F               	movlw	31
  3613  0D7B                     u188_25:
  3614  0D7B  1003               	clrc
  3615  0D7C  0CA3               	rrf	(??___fltol^(0+128)+3),f
  3616  0D7D  0CA2               	rrf	(??___fltol^(0+128)+2),f
  3617  0D7E  0CA1               	rrf	(??___fltol^(0+128)+1),f
  3618  0D7F  0CA0               	rrf	??___fltol^(0+128),f
  3619  0D80                     u188_20:
  3620  0D80  3EFF               	addlw	-1
  3621  0D81  1D03               	skipz
  3622  0D82  2D7B               	goto	u188_25
  3623  0D83  0820               	movf	??___fltol^(0+128),w
  3624  0D84  00A4               	movwf	(??___fltol+4)^(0+128)
  3625  0D85  0824               	movf	(??___fltol+4)^(0+128),w
  3626  0D86  1283               	bcf	3,5	;RP0=0, select bank0
  3627  0D87  1303               	bcf	3,6	;RP1=0, select bank0
  3628  0D88  00EC               	movwf	___fltol@sign1
  3629  0D89                     i1l2034:
  3630  0D89  17EA               	bsf	___fltol@f1+2,7
  3631  0D8A                     i1l2036:
  3632  0D8A  30FF               	movlw	255
  3633  0D8B  05E8               	andwf	___fltol@f1,f
  3634  0D8C  30FF               	movlw	255
  3635  0D8D  05E9               	andwf	___fltol@f1+1,f
  3636  0D8E  30FF               	movlw	255
  3637  0D8F  05EA               	andwf	___fltol@f1+2,f
  3638  0D90  3000               	movlw	0
  3639  0D91  05EB               	andwf	___fltol@f1+3,f
  3640  0D92                     i1l2038:
  3641  0D92  3096               	movlw	150
  3642  0D93  02ED               	subwf	___fltol@exp1,f
  3643  0D94                     i1l2040:
  3644  0D94  1FED               	btfss	___fltol@exp1,7
  3645  0D95  2D97               	goto	u189_21
  3646  0D96  2D98               	goto	u189_20
  3647  0D97                     u189_21:
  3648  0D97  2DB6               	goto	i1l2050
  3649  0D98                     u189_20:
  3650  0D98                     i1l2042:
  3651  0D98  086D               	movf	___fltol@exp1,w
  3652  0D99  3A80               	xorlw	128
  3653  0D9A  3E97               	addlw	151
  3654  0D9B  1803               	skipnc
  3655  0D9C  2D9E               	goto	u190_21
  3656  0D9D  2D9F               	goto	u190_20
  3657  0D9E                     u190_21:
  3658  0D9E  2DA0               	goto	i1l2048
  3659  0D9F                     u190_20:
  3660  0D9F  2D5B               	goto	i1l2028
  3661  0DA0                     i1l2048:
  3662  0DA0  3001               	movlw	1
  3663  0DA1                     u191_25:
  3664  0DA1  1003               	clrc
  3665  0DA2  0CEB               	rrf	___fltol@f1+3,f
  3666  0DA3  0CEA               	rrf	___fltol@f1+2,f
  3667  0DA4  0CE9               	rrf	___fltol@f1+1,f
  3668  0DA5  0CE8               	rrf	___fltol@f1,f
  3669  0DA6  3EFF               	addlw	-1
  3670  0DA7  1D03               	skipz
  3671  0DA8  2DA1               	goto	u191_25
  3672  0DA9  3001               	movlw	1
  3673  0DAA  1683               	bsf	3,5	;RP0=1, select bank1
  3674  0DAB  1303               	bcf	3,6	;RP1=0, select bank1
  3675  0DAC  00A0               	movwf	??___fltol^(0+128)
  3676  0DAD  0820               	movf	??___fltol^(0+128),w
  3677  0DAE  1283               	bcf	3,5	;RP0=0, select bank0
  3678  0DAF  1303               	bcf	3,6	;RP1=0, select bank0
  3679  0DB0  07ED               	addwf	___fltol@exp1,f
  3680  0DB1  1D03               	btfss	3,2
  3681  0DB2  2DB4               	goto	u192_21
  3682  0DB3  2DB5               	goto	u192_20
  3683  0DB4                     u192_21:
  3684  0DB4  2DA0               	goto	i1l2048
  3685  0DB5                     u192_20:
  3686  0DB5  2DD5               	goto	i1l2058
  3687  0DB6                     i1l2050:
  3688  0DB6  3020               	movlw	32
  3689  0DB7  026D               	subwf	___fltol@exp1,w
  3690  0DB8  1C03               	skipc
  3691  0DB9  2DBB               	goto	u193_21
  3692  0DBA  2DBC               	goto	u193_20
  3693  0DBB                     u193_21:
  3694  0DBB  2DD0               	goto	i1l501
  3695  0DBC                     u193_20:
  3696  0DBC  2D5B               	goto	i1l2028
  3697  0DBD                     i1l2056:
  3698  0DBD  3001               	movlw	1
  3699  0DBE  1683               	bsf	3,5	;RP0=1, select bank1
  3700  0DBF  1303               	bcf	3,6	;RP1=0, select bank1
  3701  0DC0  00A0               	movwf	??___fltol^(0+128)
  3702  0DC1                     u194_25:
  3703  0DC1  1003               	clrc
  3704  0DC2  1283               	bcf	3,5	;RP0=0, select bank0
  3705  0DC3  1303               	bcf	3,6	;RP1=0, select bank0
  3706  0DC4  0DE8               	rlf	___fltol@f1,f
  3707  0DC5  0DE9               	rlf	___fltol@f1+1,f
  3708  0DC6  0DEA               	rlf	___fltol@f1+2,f
  3709  0DC7  0DEB               	rlf	___fltol@f1+3,f
  3710  0DC8  1683               	bsf	3,5	;RP0=1, select bank1
  3711  0DC9  1303               	bcf	3,6	;RP1=0, select bank1
  3712  0DCA  0BA0               	decfsz	??___fltol^(0+128),f
  3713  0DCB  2DC1               	goto	u194_25
  3714  0DCC  3001               	movlw	1
  3715  0DCD  1283               	bcf	3,5	;RP0=0, select bank0
  3716  0DCE  1303               	bcf	3,6	;RP1=0, select bank0
  3717  0DCF  02ED               	subwf	___fltol@exp1,f
  3718  0DD0                     i1l501:
  3719  0DD0  086D               	movf	___fltol@exp1,w
  3720  0DD1  1D03               	btfss	3,2
  3721  0DD2  2DD4               	goto	u195_21
  3722  0DD3  2DD5               	goto	u195_20
  3723  0DD4                     u195_21:
  3724  0DD4  2DBD               	goto	i1l2056
  3725  0DD5                     u195_20:
  3726  0DD5                     i1l2058:
  3727  0DD5  086C               	movf	___fltol@sign1,w
  3728  0DD6  1903               	btfsc	3,2
  3729  0DD7  2DD9               	goto	u196_21
  3730  0DD8  2DDA               	goto	u196_20
  3731  0DD9                     u196_21:
  3732  0DD9  2DE5               	goto	i1l504
  3733  0DDA                     u196_20:
  3734  0DDA                     i1l2060:
  3735  0DDA  09E8               	comf	___fltol@f1,f
  3736  0DDB  09E9               	comf	___fltol@f1+1,f
  3737  0DDC  09EA               	comf	___fltol@f1+2,f
  3738  0DDD  09EB               	comf	___fltol@f1+3,f
  3739  0DDE  0AE8               	incf	___fltol@f1,f
  3740  0DDF  1903               	skipnz
  3741  0DE0  0AE9               	incf	___fltol@f1+1,f
  3742  0DE1  1903               	skipnz
  3743  0DE2  0AEA               	incf	___fltol@f1+2,f
  3744  0DE3  1903               	skipnz
  3745  0DE4  0AEB               	incf	___fltol@f1+3,f
  3746  0DE5                     i1l504:
  3747  0DE5                     i1l494:
  3748  0DE5  0008               	return
  3749  0DE6                     __end_of___fltol:
  3750                           
  3751                           	psect	text16
  3752  0035                     __ptext16:	
  3753 ;; *************** function ___flmul *****************
  3754 ;; Defined at:
  3755 ;;		line 8 in file "C:\Program Files\Microchip\xc8\v2.35\pic\sources\c90\common\sprcmul.c"
  3756 ;; Parameters:    Size  Location     Type
  3757 ;;  b               4   26[BANK0 ] long 
  3758 ;;  a               4   30[BANK0 ] long 
  3759 ;; Auto vars:     Size  Location     Type
  3760 ;;  prod            4   46[BANK0 ] struct .
  3761 ;;  grs             4   40[BANK0 ] unsigned long 
  3762 ;;  temp            2   50[BANK0 ] struct .
  3763 ;;  bexp            1   45[BANK0 ] unsigned char 
  3764 ;;  aexp            1   44[BANK0 ] unsigned char 
  3765 ;;  sign            1   39[BANK0 ] unsigned char 
  3766 ;; Return value:  Size  Location     Type
  3767 ;;                  4   26[BANK0 ] unsigned char 
  3768 ;; Registers used:
  3769 ;;		wreg, status,2, status,0, btemp+1, pclath, cstack
  3770 ;; Tracked objects:
  3771 ;;		On entry : 0/0
  3772 ;;		On exit  : 0/0
  3773 ;;		Unchanged: 0/0
  3774 ;; Data sizes:     COMMON   BANK0   BANK1   BANK3   BANK2
  3775 ;;      Params:         0       8       0       0       0
  3776 ;;      Locals:         0      13       0       0       0
  3777 ;;      Temps:          0       5       0       0       0
  3778 ;;      Totals:         0      26       0       0       0
  3779 ;;Total ram usage:       26 bytes
  3780 ;; Hardware stack levels used: 1
  3781 ;; Hardware stack levels required when called: 1
  3782 ;; This function calls:
  3783 ;;		__Umul8_16
  3784 ;; This function is called by:
  3785 ;;		_map
  3786 ;; This function uses a non-reentrant model
  3787 ;;
  3788                           
  3789  0035                     ___flmul:	
  3790                           ;psect for function ___flmul
  3791                           
  3792  0035                     i1l2398:	
  3793                           ;incstack = 0
  3794                           ; Regs used in ___flmul: [wreg+status,2+status,0+btemp+1+pclath+cstack]
  3795                           
  3796  0035  1283               	bcf	3,5	;RP0=0, select bank0
  3797  0036  1303               	bcf	3,6	;RP1=0, select bank0
  3798  0037  083D               	movf	___flmul@b+3,w
  3799  0038  3980               	andlw	128
  3800  0039  00C2               	movwf	??___flmul
  3801  003A  0842               	movf	??___flmul,w
  3802  003B  00C7               	movwf	___flmul@sign
  3803  003C                     i1l2400:
  3804  003C  083D               	movf	___flmul@b+3,w
  3805  003D  00C2               	movwf	??___flmul
  3806  003E  0742               	addwf	??___flmul,w
  3807  003F  00C3               	movwf	??___flmul+1
  3808  0040  0843               	movf	??___flmul+1,w
  3809  0041  00CD               	movwf	___flmul@bexp
  3810  0042                     i1l2402:
  3811  0042  1FBC               	btfss	___flmul@b+2,7
  3812  0043  2845               	goto	u272_21
  3813  0044  2846               	goto	u272_20
  3814  0045                     u272_21:
  3815  0045  2847               	goto	i1l2406
  3816  0046                     u272_20:
  3817  0046                     i1l2404:
  3818  0046  144D               	bsf	___flmul@bexp,0
  3819  0047                     i1l2406:
  3820  0047  084D               	movf	___flmul@bexp,w
  3821  0048  1903               	btfsc	3,2
  3822  0049  284B               	goto	u273_21
  3823  004A  284C               	goto	u273_20
  3824  004B                     u273_21:
  3825  004B  285B               	goto	i1l2414
  3826  004C                     u273_20:
  3827  004C                     i1l2408:
  3828  004C  0A4D               	incf	___flmul@bexp,w
  3829  004D  1D03               	btfss	3,2
  3830  004E  2850               	goto	u274_21
  3831  004F  2851               	goto	u274_20
  3832  0050                     u274_21:
  3833  0050  2859               	goto	i1l2412
  3834  0051                     u274_20:
  3835  0051                     i1l2410:
  3836  0051  3000               	movlw	0
  3837  0052  00BD               	movwf	___flmul@b+3
  3838  0053  3000               	movlw	0
  3839  0054  00BC               	movwf	___flmul@b+2
  3840  0055  3000               	movlw	0
  3841  0056  00BB               	movwf	___flmul@b+1
  3842  0057  3000               	movlw	0
  3843  0058  00BA               	movwf	___flmul@b
  3844  0059                     i1l2412:
  3845  0059  17BC               	bsf	___flmul@b+2,7
  3846  005A  2863               	goto	i1l2416
  3847  005B                     i1l2414:
  3848  005B  3000               	movlw	0
  3849  005C  00BD               	movwf	___flmul@b+3
  3850  005D  3000               	movlw	0
  3851  005E  00BC               	movwf	___flmul@b+2
  3852  005F  3000               	movlw	0
  3853  0060  00BB               	movwf	___flmul@b+1
  3854  0061  3000               	movlw	0
  3855  0062  00BA               	movwf	___flmul@b
  3856  0063                     i1l2416:
  3857  0063  0841               	movf	___flmul@a+3,w
  3858  0064  3980               	andlw	128
  3859  0065  00C2               	movwf	??___flmul
  3860  0066  0842               	movf	??___flmul,w
  3861  0067  06C7               	xorwf	___flmul@sign,f
  3862  0068                     i1l2418:
  3863  0068  0841               	movf	___flmul@a+3,w
  3864  0069  00C2               	movwf	??___flmul
  3865  006A  0742               	addwf	??___flmul,w
  3866  006B  00C3               	movwf	??___flmul+1
  3867  006C  0843               	movf	??___flmul+1,w
  3868  006D  00CC               	movwf	___flmul@aexp
  3869  006E                     i1l2420:
  3870  006E  1FC0               	btfss	___flmul@a+2,7
  3871  006F  2871               	goto	u275_21
  3872  0070  2872               	goto	u275_20
  3873  0071                     u275_21:
  3874  0071  2873               	goto	i1l2424
  3875  0072                     u275_20:
  3876  0072                     i1l2422:
  3877  0072  144C               	bsf	___flmul@aexp,0
  3878  0073                     i1l2424:
  3879  0073  084C               	movf	___flmul@aexp,w
  3880  0074  1903               	btfsc	3,2
  3881  0075  2877               	goto	u276_21
  3882  0076  2878               	goto	u276_20
  3883  0077                     u276_21:
  3884  0077  2887               	goto	i1l2432
  3885  0078                     u276_20:
  3886  0078                     i1l2426:
  3887  0078  0A4C               	incf	___flmul@aexp,w
  3888  0079  1D03               	btfss	3,2
  3889  007A  287C               	goto	u277_21
  3890  007B  287D               	goto	u277_20
  3891  007C                     u277_21:
  3892  007C  2885               	goto	i1l2430
  3893  007D                     u277_20:
  3894  007D                     i1l2428:
  3895  007D  3000               	movlw	0
  3896  007E  00C1               	movwf	___flmul@a+3
  3897  007F  3000               	movlw	0
  3898  0080  00C0               	movwf	___flmul@a+2
  3899  0081  3000               	movlw	0
  3900  0082  00BF               	movwf	___flmul@a+1
  3901  0083  3000               	movlw	0
  3902  0084  00BE               	movwf	___flmul@a
  3903  0085                     i1l2430:
  3904  0085  17C0               	bsf	___flmul@a+2,7
  3905  0086  288F               	goto	i1l2434
  3906  0087                     i1l2432:
  3907  0087  3000               	movlw	0
  3908  0088  00C1               	movwf	___flmul@a+3
  3909  0089  3000               	movlw	0
  3910  008A  00C0               	movwf	___flmul@a+2
  3911  008B  3000               	movlw	0
  3912  008C  00BF               	movwf	___flmul@a+1
  3913  008D  3000               	movlw	0
  3914  008E  00BE               	movwf	___flmul@a
  3915  008F                     i1l2434:
  3916  008F  084C               	movf	___flmul@aexp,w
  3917  0090  1903               	btfsc	3,2
  3918  0091  2893               	goto	u278_21
  3919  0092  2894               	goto	u278_20
  3920  0093                     u278_21:
  3921  0093  2899               	goto	i1l2438
  3922  0094                     u278_20:
  3923  0094                     i1l2436:
  3924  0094  084D               	movf	___flmul@bexp,w
  3925  0095  1D03               	btfss	3,2
  3926  0096  2898               	goto	u279_21
  3927  0097  2899               	goto	u279_20
  3928  0098                     u279_21:
  3929  0098  28A2               	goto	i1l2442
  3930  0099                     u279_20:
  3931  0099                     i1l2438:
  3932  0099  3000               	movlw	0
  3933  009A  00BD               	movwf	?___flmul+3
  3934  009B  3000               	movlw	0
  3935  009C  00BC               	movwf	?___flmul+2
  3936  009D  3000               	movlw	0
  3937  009E  00BB               	movwf	?___flmul+1
  3938  009F  3000               	movlw	0
  3939  00A0  00BA               	movwf	?___flmul
  3940  00A1  2B95               	goto	i1l697
  3941  00A2                     i1l2442:
  3942  00A2  083A               	movf	___flmul@b,w
  3943  00A3  00C2               	movwf	??___flmul
  3944  00A4  0842               	movf	??___flmul,w
  3945  00A5  00F0               	movwf	__Umul8_16@multiplicand
  3946  00A6  0840               	movf	___flmul@a+2,w
  3947  00A7  120A  158A  226E  120A  118A  	fcall	__Umul8_16
  3948  00AC  0871               	movf	?__Umul8_16+1,w
  3949  00AD  1283               	bcf	3,5	;RP0=0, select bank0
  3950  00AE  1303               	bcf	3,6	;RP1=0, select bank0
  3951  00AF  00D3               	movwf	___flmul@temp+1
  3952  00B0  0870               	movf	?__Umul8_16,w
  3953  00B1  00D2               	movwf	___flmul@temp
  3954  00B2                     i1l2444:
  3955  00B2  0852               	movf	___flmul@temp,w
  3956  00B3  00C2               	movwf	??___flmul
  3957  00B4  01C3               	clrf	??___flmul+1
  3958  00B5  01C4               	clrf	??___flmul+2
  3959  00B6  01C5               	clrf	??___flmul+3
  3960  00B7  0845               	movf	??___flmul+3,w
  3961  00B8  00CB               	movwf	___flmul@grs+3
  3962  00B9  0844               	movf	??___flmul+2,w
  3963  00BA  00CA               	movwf	___flmul@grs+2
  3964  00BB  0843               	movf	??___flmul+1,w
  3965  00BC  00C9               	movwf	___flmul@grs+1
  3966  00BD  0842               	movf	??___flmul,w
  3967  00BE  00C8               	movwf	___flmul@grs
  3968  00BF                     i1l2446:
  3969  00BF  0853               	movf	___flmul@temp+1,w
  3970  00C0  00C2               	movwf	??___flmul
  3971  00C1  01C3               	clrf	??___flmul+1
  3972  00C2  01C4               	clrf	??___flmul+2
  3973  00C3  01C5               	clrf	??___flmul+3
  3974  00C4  0845               	movf	??___flmul+3,w
  3975  00C5  00D1               	movwf	___flmul@prod+3
  3976  00C6  0844               	movf	??___flmul+2,w
  3977  00C7  00D0               	movwf	___flmul@prod+2
  3978  00C8  0843               	movf	??___flmul+1,w
  3979  00C9  00CF               	movwf	___flmul@prod+1
  3980  00CA  0842               	movf	??___flmul,w
  3981  00CB  00CE               	movwf	___flmul@prod
  3982  00CC  083B               	movf	___flmul@b+1,w
  3983  00CD  00C2               	movwf	??___flmul
  3984  00CE  0842               	movf	??___flmul,w
  3985  00CF  00F0               	movwf	__Umul8_16@multiplicand
  3986  00D0  083F               	movf	___flmul@a+1,w
  3987  00D1  120A  158A  226E  120A  118A  	fcall	__Umul8_16
  3988  00D6  0871               	movf	?__Umul8_16+1,w
  3989  00D7  1283               	bcf	3,5	;RP0=0, select bank0
  3990  00D8  1303               	bcf	3,6	;RP1=0, select bank0
  3991  00D9  00D3               	movwf	___flmul@temp+1
  3992  00DA  0870               	movf	?__Umul8_16,w
  3993  00DB  00D2               	movwf	___flmul@temp
  3994  00DC                     i1l2448:
  3995  00DC  0852               	movf	___flmul@temp,w
  3996  00DD  00C2               	movwf	??___flmul
  3997  00DE  01C3               	clrf	??___flmul+1
  3998  00DF  01C4               	clrf	??___flmul+2
  3999  00E0  01C5               	clrf	??___flmul+3
  4000  00E1  0842               	movf	??___flmul,w
  4001  00E2  07C8               	addwf	___flmul@grs,f
  4002  00E3  0843               	movf	??___flmul+1,w
  4003  00E4  1103               	clrz
  4004  00E5  1803               	skipnc
  4005  00E6  3E01               	addlw	1
  4006  00E7  1903               	skipnz
  4007  00E8  28EA               	goto	u280_21
  4008  00E9  07C9               	addwf	___flmul@grs+1,f
  4009  00EA                     u280_21:
  4010  00EA  0844               	movf	??___flmul+2,w
  4011  00EB  1103               	clrz
  4012  00EC  1803               	skipnc
  4013  00ED  3E01               	addlw	1
  4014  00EE  1903               	skipnz
  4015  00EF  28F1               	goto	u280_22
  4016  00F0  07CA               	addwf	___flmul@grs+2,f
  4017  00F1                     u280_22:
  4018  00F1  0845               	movf	??___flmul+3,w
  4019  00F2  1103               	clrz
  4020  00F3  1803               	skipnc
  4021  00F4  3E01               	addlw	1
  4022  00F5  1903               	skipnz
  4023  00F6  28F8               	goto	u280_23
  4024  00F7  07CB               	addwf	___flmul@grs+3,f
  4025  00F8                     u280_23:
  4026  00F8                     i1l2450:
  4027  00F8  0853               	movf	___flmul@temp+1,w
  4028  00F9  00C2               	movwf	??___flmul
  4029  00FA  01C3               	clrf	??___flmul+1
  4030  00FB  01C4               	clrf	??___flmul+2
  4031  00FC  01C5               	clrf	??___flmul+3
  4032  00FD  0842               	movf	??___flmul,w
  4033  00FE  07CE               	addwf	___flmul@prod,f
  4034  00FF  0843               	movf	??___flmul+1,w
  4035  0100  1103               	clrz
  4036  0101  1803               	skipnc
  4037  0102  3E01               	addlw	1
  4038  0103  1903               	skipnz
  4039  0104  2906               	goto	u281_21
  4040  0105  07CF               	addwf	___flmul@prod+1,f
  4041  0106                     u281_21:
  4042  0106  0844               	movf	??___flmul+2,w
  4043  0107  1103               	clrz
  4044  0108  1803               	skipnc
  4045  0109  3E01               	addlw	1
  4046  010A  1903               	skipnz
  4047  010B  290D               	goto	u281_22
  4048  010C  07D0               	addwf	___flmul@prod+2,f
  4049  010D                     u281_22:
  4050  010D  0845               	movf	??___flmul+3,w
  4051  010E  1103               	clrz
  4052  010F  1803               	skipnc
  4053  0110  3E01               	addlw	1
  4054  0111  1903               	skipnz
  4055  0112  2914               	goto	u281_23
  4056  0113  07D1               	addwf	___flmul@prod+3,f
  4057  0114                     u281_23:
  4058  0114  083C               	movf	___flmul@b+2,w
  4059  0115  00C2               	movwf	??___flmul
  4060  0116  0842               	movf	??___flmul,w
  4061  0117  00F0               	movwf	__Umul8_16@multiplicand
  4062  0118  083E               	movf	___flmul@a,w
  4063  0119  120A  158A  226E  120A  118A  	fcall	__Umul8_16
  4064  011E  0871               	movf	?__Umul8_16+1,w
  4065  011F  1283               	bcf	3,5	;RP0=0, select bank0
  4066  0120  1303               	bcf	3,6	;RP1=0, select bank0
  4067  0121  00D3               	movwf	___flmul@temp+1
  4068  0122  0870               	movf	?__Umul8_16,w
  4069  0123  00D2               	movwf	___flmul@temp
  4070  0124                     i1l2452:
  4071  0124  0852               	movf	___flmul@temp,w
  4072  0125  00C2               	movwf	??___flmul
  4073  0126  01C3               	clrf	??___flmul+1
  4074  0127  01C4               	clrf	??___flmul+2
  4075  0128  01C5               	clrf	??___flmul+3
  4076  0129  0842               	movf	??___flmul,w
  4077  012A  07C8               	addwf	___flmul@grs,f
  4078  012B  0843               	movf	??___flmul+1,w
  4079  012C  1103               	clrz
  4080  012D  1803               	skipnc
  4081  012E  3E01               	addlw	1
  4082  012F  1903               	skipnz
  4083  0130  2932               	goto	u282_21
  4084  0131  07C9               	addwf	___flmul@grs+1,f
  4085  0132                     u282_21:
  4086  0132  0844               	movf	??___flmul+2,w
  4087  0133  1103               	clrz
  4088  0134  1803               	skipnc
  4089  0135  3E01               	addlw	1
  4090  0136  1903               	skipnz
  4091  0137  2939               	goto	u282_22
  4092  0138  07CA               	addwf	___flmul@grs+2,f
  4093  0139                     u282_22:
  4094  0139  0845               	movf	??___flmul+3,w
  4095  013A  1103               	clrz
  4096  013B  1803               	skipnc
  4097  013C  3E01               	addlw	1
  4098  013D  1903               	skipnz
  4099  013E  2940               	goto	u282_23
  4100  013F  07CB               	addwf	___flmul@grs+3,f
  4101  0140                     u282_23:
  4102  0140                     i1l2454:
  4103  0140  0853               	movf	___flmul@temp+1,w
  4104  0141  00C2               	movwf	??___flmul
  4105  0142  01C3               	clrf	??___flmul+1
  4106  0143  01C4               	clrf	??___flmul+2
  4107  0144  01C5               	clrf	??___flmul+3
  4108  0145  0842               	movf	??___flmul,w
  4109  0146  07CE               	addwf	___flmul@prod,f
  4110  0147  0843               	movf	??___flmul+1,w
  4111  0148  1103               	clrz
  4112  0149  1803               	skipnc
  4113  014A  3E01               	addlw	1
  4114  014B  1903               	skipnz
  4115  014C  294E               	goto	u283_21
  4116  014D  07CF               	addwf	___flmul@prod+1,f
  4117  014E                     u283_21:
  4118  014E  0844               	movf	??___flmul+2,w
  4119  014F  1103               	clrz
  4120  0150  1803               	skipnc
  4121  0151  3E01               	addlw	1
  4122  0152  1903               	skipnz
  4123  0153  2955               	goto	u283_22
  4124  0154  07D0               	addwf	___flmul@prod+2,f
  4125  0155                     u283_22:
  4126  0155  0845               	movf	??___flmul+3,w
  4127  0156  1103               	clrz
  4128  0157  1803               	skipnc
  4129  0158  3E01               	addlw	1
  4130  0159  1903               	skipnz
  4131  015A  295C               	goto	u283_23
  4132  015B  07D1               	addwf	___flmul@prod+3,f
  4133  015C                     u283_23:
  4134  015C                     i1l2456:
  4135  015C  3008               	movlw	8
  4136  015D  00C2               	movwf	??___flmul
  4137  015E                     u284_25:
  4138  015E  1003               	clrc
  4139  015F  0DC8               	rlf	___flmul@grs,f
  4140  0160  0DC9               	rlf	___flmul@grs+1,f
  4141  0161  0DCA               	rlf	___flmul@grs+2,f
  4142  0162  0DCB               	rlf	___flmul@grs+3,f
  4143  0163  0BC2               	decfsz	??___flmul,f
  4144  0164  295E               	goto	u284_25
  4145  0165                     i1l2458:
  4146  0165  083B               	movf	___flmul@b+1,w
  4147  0166  00C2               	movwf	??___flmul
  4148  0167  0842               	movf	??___flmul,w
  4149  0168  00F0               	movwf	__Umul8_16@multiplicand
  4150  0169  083E               	movf	___flmul@a,w
  4151  016A  120A  158A  226E  120A  118A  	fcall	__Umul8_16
  4152  016F  0871               	movf	?__Umul8_16+1,w
  4153  0170  1283               	bcf	3,5	;RP0=0, select bank0
  4154  0171  1303               	bcf	3,6	;RP1=0, select bank0
  4155  0172  00D3               	movwf	___flmul@temp+1
  4156  0173  0870               	movf	?__Umul8_16,w
  4157  0174  00D2               	movwf	___flmul@temp
  4158  0175                     i1l2460:
  4159  0175  0852               	movf	___flmul@temp,w
  4160  0176  00C2               	movwf	??___flmul
  4161  0177  0853               	movf	___flmul@temp+1,w
  4162  0178  00C3               	movwf	??___flmul+1
  4163  0179  01C4               	clrf	??___flmul+2
  4164  017A  01C5               	clrf	??___flmul+3
  4165  017B  0842               	movf	??___flmul,w
  4166  017C  07C8               	addwf	___flmul@grs,f
  4167  017D  0843               	movf	??___flmul+1,w
  4168  017E  1103               	clrz
  4169  017F  1803               	skipnc
  4170  0180  3E01               	addlw	1
  4171  0181  1903               	skipnz
  4172  0182  2984               	goto	u285_21
  4173  0183  07C9               	addwf	___flmul@grs+1,f
  4174  0184                     u285_21:
  4175  0184  0844               	movf	??___flmul+2,w
  4176  0185  1103               	clrz
  4177  0186  1803               	skipnc
  4178  0187  3E01               	addlw	1
  4179  0188  1903               	skipnz
  4180  0189  298B               	goto	u285_22
  4181  018A  07CA               	addwf	___flmul@grs+2,f
  4182  018B                     u285_22:
  4183  018B  0845               	movf	??___flmul+3,w
  4184  018C  1103               	clrz
  4185  018D  1803               	skipnc
  4186  018E  3E01               	addlw	1
  4187  018F  1903               	skipnz
  4188  0190  2992               	goto	u285_23
  4189  0191  07CB               	addwf	___flmul@grs+3,f
  4190  0192                     u285_23:
  4191  0192                     i1l2462:
  4192  0192  083A               	movf	___flmul@b,w
  4193  0193  00C2               	movwf	??___flmul
  4194  0194  0842               	movf	??___flmul,w
  4195  0195  00F0               	movwf	__Umul8_16@multiplicand
  4196  0196  083F               	movf	___flmul@a+1,w
  4197  0197  120A  158A  226E  120A  118A  	fcall	__Umul8_16
  4198  019C  0871               	movf	?__Umul8_16+1,w
  4199  019D  1283               	bcf	3,5	;RP0=0, select bank0
  4200  019E  1303               	bcf	3,6	;RP1=0, select bank0
  4201  019F  00D3               	movwf	___flmul@temp+1
  4202  01A0  0870               	movf	?__Umul8_16,w
  4203  01A1  00D2               	movwf	___flmul@temp
  4204  01A2                     i1l2464:
  4205  01A2  0852               	movf	___flmul@temp,w
  4206  01A3  00C2               	movwf	??___flmul
  4207  01A4  0853               	movf	___flmul@temp+1,w
  4208  01A5  00C3               	movwf	??___flmul+1
  4209  01A6  01C4               	clrf	??___flmul+2
  4210  01A7  01C5               	clrf	??___flmul+3
  4211  01A8  0842               	movf	??___flmul,w
  4212  01A9  07C8               	addwf	___flmul@grs,f
  4213  01AA  0843               	movf	??___flmul+1,w
  4214  01AB  1103               	clrz
  4215  01AC  1803               	skipnc
  4216  01AD  3E01               	addlw	1
  4217  01AE  1903               	skipnz
  4218  01AF  29B1               	goto	u286_21
  4219  01B0  07C9               	addwf	___flmul@grs+1,f
  4220  01B1                     u286_21:
  4221  01B1  0844               	movf	??___flmul+2,w
  4222  01B2  1103               	clrz
  4223  01B3  1803               	skipnc
  4224  01B4  3E01               	addlw	1
  4225  01B5  1903               	skipnz
  4226  01B6  29B8               	goto	u286_22
  4227  01B7  07CA               	addwf	___flmul@grs+2,f
  4228  01B8                     u286_22:
  4229  01B8  0845               	movf	??___flmul+3,w
  4230  01B9  1103               	clrz
  4231  01BA  1803               	skipnc
  4232  01BB  3E01               	addlw	1
  4233  01BC  1903               	skipnz
  4234  01BD  29BF               	goto	u286_23
  4235  01BE  07CB               	addwf	___flmul@grs+3,f
  4236  01BF                     u286_23:
  4237  01BF                     i1l2466:
  4238  01BF  3008               	movlw	8
  4239  01C0  00C2               	movwf	??___flmul
  4240  01C1                     u287_25:
  4241  01C1  1003               	clrc
  4242  01C2  0DC8               	rlf	___flmul@grs,f
  4243  01C3  0DC9               	rlf	___flmul@grs+1,f
  4244  01C4  0DCA               	rlf	___flmul@grs+2,f
  4245  01C5  0DCB               	rlf	___flmul@grs+3,f
  4246  01C6  0BC2               	decfsz	??___flmul,f
  4247  01C7  29C1               	goto	u287_25
  4248  01C8  083A               	movf	___flmul@b,w
  4249  01C9  00C2               	movwf	??___flmul
  4250  01CA  0842               	movf	??___flmul,w
  4251  01CB  00F0               	movwf	__Umul8_16@multiplicand
  4252  01CC  083E               	movf	___flmul@a,w
  4253  01CD  120A  158A  226E  120A  118A  	fcall	__Umul8_16
  4254  01D2  0871               	movf	?__Umul8_16+1,w
  4255  01D3  1283               	bcf	3,5	;RP0=0, select bank0
  4256  01D4  1303               	bcf	3,6	;RP1=0, select bank0
  4257  01D5  00D3               	movwf	___flmul@temp+1
  4258  01D6  0870               	movf	?__Umul8_16,w
  4259  01D7  00D2               	movwf	___flmul@temp
  4260  01D8                     i1l2468:
  4261  01D8  0852               	movf	___flmul@temp,w
  4262  01D9  00C2               	movwf	??___flmul
  4263  01DA  0853               	movf	___flmul@temp+1,w
  4264  01DB  00C3               	movwf	??___flmul+1
  4265  01DC  01C4               	clrf	??___flmul+2
  4266  01DD  01C5               	clrf	??___flmul+3
  4267  01DE  0842               	movf	??___flmul,w
  4268  01DF  07C8               	addwf	___flmul@grs,f
  4269  01E0  0843               	movf	??___flmul+1,w
  4270  01E1  1103               	clrz
  4271  01E2  1803               	skipnc
  4272  01E3  3E01               	addlw	1
  4273  01E4  1903               	skipnz
  4274  01E5  29E7               	goto	u288_21
  4275  01E6  07C9               	addwf	___flmul@grs+1,f
  4276  01E7                     u288_21:
  4277  01E7  0844               	movf	??___flmul+2,w
  4278  01E8  1103               	clrz
  4279  01E9  1803               	skipnc
  4280  01EA  3E01               	addlw	1
  4281  01EB  1903               	skipnz
  4282  01EC  29EE               	goto	u288_22
  4283  01ED  07CA               	addwf	___flmul@grs+2,f
  4284  01EE                     u288_22:
  4285  01EE  0845               	movf	??___flmul+3,w
  4286  01EF  1103               	clrz
  4287  01F0  1803               	skipnc
  4288  01F1  3E01               	addlw	1
  4289  01F2  1903               	skipnz
  4290  01F3  29F5               	goto	u288_23
  4291  01F4  07CB               	addwf	___flmul@grs+3,f
  4292  01F5                     u288_23:
  4293  01F5                     i1l2470:
  4294  01F5  083B               	movf	___flmul@b+1,w
  4295  01F6  00C2               	movwf	??___flmul
  4296  01F7  0842               	movf	??___flmul,w
  4297  01F8  00F0               	movwf	__Umul8_16@multiplicand
  4298  01F9  0840               	movf	___flmul@a+2,w
  4299  01FA  120A  158A  226E  120A  118A  	fcall	__Umul8_16
  4300  01FF  0871               	movf	?__Umul8_16+1,w
  4301  0200  1283               	bcf	3,5	;RP0=0, select bank0
  4302  0201  1303               	bcf	3,6	;RP1=0, select bank0
  4303  0202  00D3               	movwf	___flmul@temp+1
  4304  0203  0870               	movf	?__Umul8_16,w
  4305  0204  00D2               	movwf	___flmul@temp
  4306  0205  0852               	movf	___flmul@temp,w
  4307  0206  00C2               	movwf	??___flmul
  4308  0207  0853               	movf	___flmul@temp+1,w
  4309  0208  00C3               	movwf	??___flmul+1
  4310  0209  01C4               	clrf	??___flmul+2
  4311  020A  01C5               	clrf	??___flmul+3
  4312  020B  0842               	movf	??___flmul,w
  4313  020C  07CE               	addwf	___flmul@prod,f
  4314  020D  0843               	movf	??___flmul+1,w
  4315  020E  1103               	clrz
  4316  020F  1803               	skipnc
  4317  0210  3E01               	addlw	1
  4318  0211  1903               	skipnz
  4319  0212  2A14               	goto	u289_21
  4320  0213  07CF               	addwf	___flmul@prod+1,f
  4321  0214                     u289_21:
  4322  0214  0844               	movf	??___flmul+2,w
  4323  0215  1103               	clrz
  4324  0216  1803               	skipnc
  4325  0217  3E01               	addlw	1
  4326  0218  1903               	skipnz
  4327  0219  2A1B               	goto	u289_22
  4328  021A  07D0               	addwf	___flmul@prod+2,f
  4329  021B                     u289_22:
  4330  021B  0845               	movf	??___flmul+3,w
  4331  021C  1103               	clrz
  4332  021D  1803               	skipnc
  4333  021E  3E01               	addlw	1
  4334  021F  1903               	skipnz
  4335  0220  2A22               	goto	u289_23
  4336  0221  07D1               	addwf	___flmul@prod+3,f
  4337  0222                     u289_23:
  4338  0222                     i1l2472:
  4339  0222  083C               	movf	___flmul@b+2,w
  4340  0223  00C2               	movwf	??___flmul
  4341  0224  0842               	movf	??___flmul,w
  4342  0225  00F0               	movwf	__Umul8_16@multiplicand
  4343  0226  083F               	movf	___flmul@a+1,w
  4344  0227  120A  158A  226E  120A  118A  	fcall	__Umul8_16
  4345  022C  0871               	movf	?__Umul8_16+1,w
  4346  022D  1283               	bcf	3,5	;RP0=0, select bank0
  4347  022E  1303               	bcf	3,6	;RP1=0, select bank0
  4348  022F  00D3               	movwf	___flmul@temp+1
  4349  0230  0870               	movf	?__Umul8_16,w
  4350  0231  00D2               	movwf	___flmul@temp
  4351  0232                     i1l2474:
  4352  0232  0852               	movf	___flmul@temp,w
  4353  0233  00C2               	movwf	??___flmul
  4354  0234  0853               	movf	___flmul@temp+1,w
  4355  0235  00C3               	movwf	??___flmul+1
  4356  0236  01C4               	clrf	??___flmul+2
  4357  0237  01C5               	clrf	??___flmul+3
  4358  0238  0842               	movf	??___flmul,w
  4359  0239  07CE               	addwf	___flmul@prod,f
  4360  023A  0843               	movf	??___flmul+1,w
  4361  023B  1103               	clrz
  4362  023C  1803               	skipnc
  4363  023D  3E01               	addlw	1
  4364  023E  1903               	skipnz
  4365  023F  2A41               	goto	u290_21
  4366  0240  07CF               	addwf	___flmul@prod+1,f
  4367  0241                     u290_21:
  4368  0241  0844               	movf	??___flmul+2,w
  4369  0242  1103               	clrz
  4370  0243  1803               	skipnc
  4371  0244  3E01               	addlw	1
  4372  0245  1903               	skipnz
  4373  0246  2A48               	goto	u290_22
  4374  0247  07D0               	addwf	___flmul@prod+2,f
  4375  0248                     u290_22:
  4376  0248  0845               	movf	??___flmul+3,w
  4377  0249  1103               	clrz
  4378  024A  1803               	skipnc
  4379  024B  3E01               	addlw	1
  4380  024C  1903               	skipnz
  4381  024D  2A4F               	goto	u290_23
  4382  024E  07D1               	addwf	___flmul@prod+3,f
  4383  024F                     u290_23:
  4384  024F  083C               	movf	___flmul@b+2,w
  4385  0250  00C2               	movwf	??___flmul
  4386  0251  0842               	movf	??___flmul,w
  4387  0252  00F0               	movwf	__Umul8_16@multiplicand
  4388  0253  0840               	movf	___flmul@a+2,w
  4389  0254  120A  158A  226E  120A  118A  	fcall	__Umul8_16
  4390  0259  0871               	movf	?__Umul8_16+1,w
  4391  025A  1283               	bcf	3,5	;RP0=0, select bank0
  4392  025B  1303               	bcf	3,6	;RP1=0, select bank0
  4393  025C  00D3               	movwf	___flmul@temp+1
  4394  025D  0870               	movf	?__Umul8_16,w
  4395  025E  00D2               	movwf	___flmul@temp
  4396  025F                     i1l2476:
  4397  025F  0852               	movf	___flmul@temp,w
  4398  0260  00C2               	movwf	??___flmul
  4399  0261  0853               	movf	___flmul@temp+1,w
  4400  0262  00C3               	movwf	??___flmul+1
  4401  0263  01C4               	clrf	??___flmul+2
  4402  0264  01C5               	clrf	??___flmul+3
  4403  0265  3008               	movlw	8
  4404  0266                     u291_25:
  4405  0266  1003               	clrc
  4406  0267  0DC2               	rlf	??___flmul,f
  4407  0268  0DC3               	rlf	??___flmul+1,f
  4408  0269  0DC4               	rlf	??___flmul+2,f
  4409  026A  0DC5               	rlf	??___flmul+3,f
  4410  026B                     u291_20:
  4411  026B  3EFF               	addlw	-1
  4412  026C  1D03               	skipz
  4413  026D  2A66               	goto	u291_25
  4414  026E  0842               	movf	??___flmul,w
  4415  026F  07CE               	addwf	___flmul@prod,f
  4416  0270  0843               	movf	??___flmul+1,w
  4417  0271  1103               	clrz
  4418  0272  1803               	skipnc
  4419  0273  3E01               	addlw	1
  4420  0274  1903               	skipnz
  4421  0275  2A77               	goto	u292_21
  4422  0276  07CF               	addwf	___flmul@prod+1,f
  4423  0277                     u292_21:
  4424  0277  0844               	movf	??___flmul+2,w
  4425  0278  1103               	clrz
  4426  0279  1803               	skipnc
  4427  027A  3E01               	addlw	1
  4428  027B  1903               	skipnz
  4429  027C  2A7E               	goto	u292_22
  4430  027D  07D0               	addwf	___flmul@prod+2,f
  4431  027E                     u292_22:
  4432  027E  0845               	movf	??___flmul+3,w
  4433  027F  1103               	clrz
  4434  0280  1803               	skipnc
  4435  0281  3E01               	addlw	1
  4436  0282  1903               	skipnz
  4437  0283  2A85               	goto	u292_23
  4438  0284  07D1               	addwf	___flmul@prod+3,f
  4439  0285                     u292_23:
  4440  0285                     i1l2478:
  4441  0285  0848               	movf	___flmul@grs,w
  4442  0286  00C2               	movwf	??___flmul
  4443  0287  0849               	movf	___flmul@grs+1,w
  4444  0288  00C3               	movwf	??___flmul+1
  4445  0289  084A               	movf	___flmul@grs+2,w
  4446  028A  00C4               	movwf	??___flmul+2
  4447  028B  084B               	movf	___flmul@grs+3,w
  4448  028C  00C5               	movwf	??___flmul+3
  4449  028D  3018               	movlw	24
  4450  028E                     u293_25:
  4451  028E  1003               	clrc
  4452  028F  0CC5               	rrf	??___flmul+3,f
  4453  0290  0CC4               	rrf	??___flmul+2,f
  4454  0291  0CC3               	rrf	??___flmul+1,f
  4455  0292  0CC2               	rrf	??___flmul,f
  4456  0293                     u293_20:
  4457  0293  3EFF               	addlw	-1
  4458  0294  1D03               	skipz
  4459  0295  2A8E               	goto	u293_25
  4460  0296  0842               	movf	??___flmul,w
  4461  0297  07CE               	addwf	___flmul@prod,f
  4462  0298  0843               	movf	??___flmul+1,w
  4463  0299  1103               	clrz
  4464  029A  1803               	skipnc
  4465  029B  3E01               	addlw	1
  4466  029C  1903               	skipnz
  4467  029D  2A9F               	goto	u294_21
  4468  029E  07CF               	addwf	___flmul@prod+1,f
  4469  029F                     u294_21:
  4470  029F  0844               	movf	??___flmul+2,w
  4471  02A0  1103               	clrz
  4472  02A1  1803               	skipnc
  4473  02A2  3E01               	addlw	1
  4474  02A3  1903               	skipnz
  4475  02A4  2AA6               	goto	u294_22
  4476  02A5  07D0               	addwf	___flmul@prod+2,f
  4477  02A6                     u294_22:
  4478  02A6  0845               	movf	??___flmul+3,w
  4479  02A7  1103               	clrz
  4480  02A8  1803               	skipnc
  4481  02A9  3E01               	addlw	1
  4482  02AA  1903               	skipnz
  4483  02AB  2AAD               	goto	u294_23
  4484  02AC  07D1               	addwf	___flmul@prod+3,f
  4485  02AD                     u294_23:
  4486  02AD                     i1l2480:
  4487  02AD  3008               	movlw	8
  4488  02AE  00C2               	movwf	??___flmul
  4489  02AF                     u295_25:
  4490  02AF  1003               	clrc
  4491  02B0  0DC8               	rlf	___flmul@grs,f
  4492  02B1  0DC9               	rlf	___flmul@grs+1,f
  4493  02B2  0DCA               	rlf	___flmul@grs+2,f
  4494  02B3  0DCB               	rlf	___flmul@grs+3,f
  4495  02B4  0BC2               	decfsz	??___flmul,f
  4496  02B5  2AAF               	goto	u295_25
  4497  02B6                     i1l2482:
  4498  02B6  084D               	movf	___flmul@bexp,w
  4499  02B7  074C               	addwf	___flmul@aexp,w
  4500  02B8  00C2               	movwf	??___flmul
  4501  02B9  01C3               	clrf	??___flmul+1
  4502  02BA  0DC3               	rlf	??___flmul+1,f
  4503  02BB  0842               	movf	??___flmul,w
  4504  02BC  3E82               	addlw	130
  4505  02BD  00D2               	movwf	___flmul@temp
  4506  02BE  0843               	movf	??___flmul+1,w
  4507  02BF  1803               	skipnc
  4508  02C0  3E01               	addlw	1
  4509  02C1  3EFF               	addlw	255
  4510  02C2  00D3               	movwf	___flmul@temp+1
  4511  02C3  2AE1               	goto	i1l2494
  4512  02C4                     i1l2484:
  4513  02C4  3001               	movlw	1
  4514  02C5  00C2               	movwf	??___flmul
  4515  02C6                     u296_25:
  4516  02C6  1003               	clrc
  4517  02C7  0DCE               	rlf	___flmul@prod,f
  4518  02C8  0DCF               	rlf	___flmul@prod+1,f
  4519  02C9  0DD0               	rlf	___flmul@prod+2,f
  4520  02CA  0DD1               	rlf	___flmul@prod+3,f
  4521  02CB  0BC2               	decfsz	??___flmul,f
  4522  02CC  2AC6               	goto	u296_25
  4523  02CD                     i1l2486:
  4524  02CD  1FCB               	btfss	___flmul@grs+3,7
  4525  02CE  2AD0               	goto	u297_21
  4526  02CF  2AD1               	goto	u297_20
  4527  02D0                     u297_21:
  4528  02D0  2AD2               	goto	i1l2490
  4529  02D1                     u297_20:
  4530  02D1                     i1l2488:
  4531  02D1  144E               	bsf	___flmul@prod,0
  4532  02D2                     i1l2490:
  4533  02D2  3001               	movlw	1
  4534  02D3  00C2               	movwf	??___flmul
  4535  02D4                     u298_25:
  4536  02D4  1003               	clrc
  4537  02D5  0DC8               	rlf	___flmul@grs,f
  4538  02D6  0DC9               	rlf	___flmul@grs+1,f
  4539  02D7  0DCA               	rlf	___flmul@grs+2,f
  4540  02D8  0DCB               	rlf	___flmul@grs+3,f
  4541  02D9  0BC2               	decfsz	??___flmul,f
  4542  02DA  2AD4               	goto	u298_25
  4543  02DB                     i1l2492:
  4544  02DB  30FF               	movlw	255
  4545  02DC  07D2               	addwf	___flmul@temp,f
  4546  02DD  1803               	skipnc
  4547  02DE  0AD3               	incf	___flmul@temp+1,f
  4548  02DF  30FF               	movlw	255
  4549  02E0  07D3               	addwf	___flmul@temp+1,f
  4550  02E1                     i1l2494:
  4551  02E1  1FD0               	btfss	___flmul@prod+2,7
  4552  02E2  2AE4               	goto	u299_21
  4553  02E3  2AE5               	goto	u299_20
  4554  02E4                     u299_21:
  4555  02E4  2AC4               	goto	i1l2484
  4556  02E5                     u299_20:
  4557  02E5                     i1l2496:
  4558  02E5  01CC               	clrf	___flmul@aexp
  4559  02E6                     i1l2498:
  4560  02E6  1FCB               	btfss	___flmul@grs+3,7
  4561  02E7  2AE9               	goto	u300_21
  4562  02E8  2AEA               	goto	u300_20
  4563  02E9                     u300_21:
  4564  02E9  2B06               	goto	i1l2506
  4565  02EA                     u300_20:
  4566  02EA                     i1l2500:
  4567  02EA  30FF               	movlw	255
  4568  02EB  0548               	andwf	___flmul@grs,w
  4569  02EC  00C2               	movwf	??___flmul
  4570  02ED  30FF               	movlw	255
  4571  02EE  0549               	andwf	___flmul@grs+1,w
  4572  02EF  00C3               	movwf	??___flmul+1
  4573  02F0  30FF               	movlw	255
  4574  02F1  054A               	andwf	___flmul@grs+2,w
  4575  02F2  00C4               	movwf	??___flmul+2
  4576  02F3  307F               	movlw	127
  4577  02F4  054B               	andwf	___flmul@grs+3,w
  4578  02F5  00C5               	movwf	??___flmul+3
  4579  02F6  0845               	movf	??___flmul+3,w
  4580  02F7  0444               	iorwf	??___flmul+2,w
  4581  02F8  0443               	iorwf	??___flmul+1,w
  4582  02F9  0442               	iorwf	??___flmul,w
  4583  02FA  1903               	skipnz
  4584  02FB  2AFD               	goto	u301_21
  4585  02FC  2AFE               	goto	u301_20
  4586  02FD                     u301_21:
  4587  02FD  2B01               	goto	i1l703
  4588  02FE                     u301_20:
  4589  02FE                     i1l2502:
  4590  02FE  01CC               	clrf	___flmul@aexp
  4591  02FF  0ACC               	incf	___flmul@aexp,f
  4592  0300  2B06               	goto	i1l2506
  4593  0301                     i1l703:
  4594  0301  1C4E               	btfss	___flmul@prod,0
  4595  0302  2B04               	goto	u302_21
  4596  0303  2B05               	goto	u302_20
  4597  0304                     u302_21:
  4598  0304  2B06               	goto	i1l2506
  4599  0305                     u302_20:
  4600  0305  2AFE               	goto	i1l2502
  4601  0306                     i1l2506:
  4602  0306  084C               	movf	___flmul@aexp,w
  4603  0307  1903               	btfsc	3,2
  4604  0308  2B0A               	goto	u303_21
  4605  0309  2B0B               	goto	u303_20
  4606  030A                     u303_21:
  4607  030A  2B3C               	goto	i1l2516
  4608  030B                     u303_20:
  4609  030B                     i1l2508:
  4610  030B  3001               	movlw	1
  4611  030C  07CE               	addwf	___flmul@prod,f
  4612  030D  3000               	movlw	0
  4613  030E  1803               	skipnc
  4614  030F  3001               	movlw	1
  4615  0310  07CF               	addwf	___flmul@prod+1,f
  4616  0311  3000               	movlw	0
  4617  0312  1803               	skipnc
  4618  0313  3001               	movlw	1
  4619  0314  07D0               	addwf	___flmul@prod+2,f
  4620  0315  3000               	movlw	0
  4621  0316  1803               	skipnc
  4622  0317  3001               	movlw	1
  4623  0318  07D1               	addwf	___flmul@prod+3,f
  4624  0319                     i1l2510:
  4625  0319  1C51               	btfss	___flmul@prod+3,0
  4626  031A  2B1C               	goto	u304_21
  4627  031B  2B1D               	goto	u304_20
  4628  031C                     u304_21:
  4629  031C  2B3C               	goto	i1l2516
  4630  031D                     u304_20:
  4631  031D                     i1l2512:
  4632  031D  084E               	movf	___flmul@prod,w
  4633  031E  00C2               	movwf	??___flmul
  4634  031F  084F               	movf	___flmul@prod+1,w
  4635  0320  00C3               	movwf	??___flmul+1
  4636  0321  0850               	movf	___flmul@prod+2,w
  4637  0322  00C4               	movwf	??___flmul+2
  4638  0323  0851               	movf	___flmul@prod+3,w
  4639  0324  00C5               	movwf	??___flmul+3
  4640  0325  3001               	movlw	1
  4641  0326  00C6               	movwf	??___flmul+4
  4642  0327                     u305_25:
  4643  0327  0D45               	rlf	??___flmul+3,w
  4644  0328  0CC5               	rrf	??___flmul+3,f
  4645  0329  0CC4               	rrf	??___flmul+2,f
  4646  032A  0CC3               	rrf	??___flmul+1,f
  4647  032B  0CC2               	rrf	??___flmul,f
  4648  032C                     u305_20:
  4649  032C  0BC6               	decfsz	??___flmul+4,f
  4650  032D  2B27               	goto	u305_25
  4651  032E  0845               	movf	??___flmul+3,w
  4652  032F  00D1               	movwf	___flmul@prod+3
  4653  0330  0844               	movf	??___flmul+2,w
  4654  0331  00D0               	movwf	___flmul@prod+2
  4655  0332  0843               	movf	??___flmul+1,w
  4656  0333  00CF               	movwf	___flmul@prod+1
  4657  0334  0842               	movf	??___flmul,w
  4658  0335  00CE               	movwf	___flmul@prod
  4659  0336                     i1l2514:
  4660  0336  3001               	movlw	1
  4661  0337  07D2               	addwf	___flmul@temp,f
  4662  0338  1803               	skipnc
  4663  0339  0AD3               	incf	___flmul@temp+1,f
  4664  033A  3000               	movlw	0
  4665  033B  07D3               	addwf	___flmul@temp+1,f
  4666  033C                     i1l2516:
  4667  033C  0853               	movf	___flmul@temp+1,w
  4668  033D  3A80               	xorlw	128
  4669  033E  00FF               	movwf	btemp+1
  4670  033F  3080               	movlw	128
  4671  0340  027F               	subwf	btemp+1,w
  4672  0341  1D03               	skipz
  4673  0342  2B45               	goto	u306_25
  4674  0343  30FF               	movlw	255
  4675  0344  0252               	subwf	___flmul@temp,w
  4676  0345                     u306_25:
  4677  0345  1C03               	skipc
  4678  0346  2B48               	goto	u306_21
  4679  0347  2B49               	goto	u306_20
  4680  0348                     u306_21:
  4681  0348  2B54               	goto	i1l2520
  4682  0349                     u306_20:
  4683  0349                     i1l2518:
  4684  0349  307F               	movlw	127
  4685  034A  1283               	bcf	3,5	;RP0=0, select bank0
  4686  034B  1303               	bcf	3,6	;RP1=0, select bank0
  4687  034C  00D1               	movwf	___flmul@prod+3
  4688  034D  3080               	movlw	128
  4689  034E  00D0               	movwf	___flmul@prod+2
  4690  034F  3000               	movlw	0
  4691  0350  00CF               	movwf	___flmul@prod+1
  4692  0351  3000               	movlw	0
  4693  0352  00CE               	movwf	___flmul@prod
  4694  0353  2B89               	goto	i1l709
  4695  0354                     i1l2520:
  4696  0354  1283               	bcf	3,5	;RP0=0, select bank0
  4697  0355  1303               	bcf	3,6	;RP1=0, select bank0
  4698  0356  0853               	movf	___flmul@temp+1,w
  4699  0357  3A80               	xorlw	128
  4700  0358  00FF               	movwf	btemp+1
  4701  0359  3080               	movlw	128
  4702  035A  027F               	subwf	btemp+1,w
  4703  035B  1D03               	skipz
  4704  035C  2B5F               	goto	u307_25
  4705  035D  3001               	movlw	1
  4706  035E  0252               	subwf	___flmul@temp,w
  4707  035F                     u307_25:
  4708  035F  1803               	skipnc
  4709  0360  2B62               	goto	u307_21
  4710  0361  2B63               	goto	u307_20
  4711  0362                     u307_21:
  4712  0362  2B6F               	goto	i1l2526
  4713  0363                     u307_20:
  4714  0363                     i1l2522:
  4715  0363  3000               	movlw	0
  4716  0364  1283               	bcf	3,5	;RP0=0, select bank0
  4717  0365  1303               	bcf	3,6	;RP1=0, select bank0
  4718  0366  00D1               	movwf	___flmul@prod+3
  4719  0367  3000               	movlw	0
  4720  0368  00D0               	movwf	___flmul@prod+2
  4721  0369  3000               	movlw	0
  4722  036A  00CF               	movwf	___flmul@prod+1
  4723  036B  3000               	movlw	0
  4724  036C  00CE               	movwf	___flmul@prod
  4725  036D                     i1l2524:
  4726  036D  01C7               	clrf	___flmul@sign
  4727  036E  2B89               	goto	i1l709
  4728  036F                     i1l2526:
  4729  036F  1283               	bcf	3,5	;RP0=0, select bank0
  4730  0370  1303               	bcf	3,6	;RP1=0, select bank0
  4731  0371  0852               	movf	___flmul@temp,w
  4732  0372  00C2               	movwf	??___flmul
  4733  0373  0842               	movf	??___flmul,w
  4734  0374  00CD               	movwf	___flmul@bexp
  4735  0375  30FF               	movlw	255
  4736  0376  05CE               	andwf	___flmul@prod,f
  4737  0377  30FF               	movlw	255
  4738  0378  05CF               	andwf	___flmul@prod+1,f
  4739  0379  307F               	movlw	127
  4740  037A  05D0               	andwf	___flmul@prod+2,f
  4741  037B  3000               	movlw	0
  4742  037C  05D1               	andwf	___flmul@prod+3,f
  4743  037D                     i1l2528:
  4744  037D  1C4D               	btfss	___flmul@bexp,0
  4745  037E  2B80               	goto	u308_21
  4746  037F  2B81               	goto	u308_20
  4747  0380                     u308_21:
  4748  0380  2B82               	goto	i1l2532
  4749  0381                     u308_20:
  4750  0381                     i1l2530:
  4751  0381  17D0               	bsf	___flmul@prod+2,7
  4752  0382                     i1l2532:
  4753  0382  084D               	movf	___flmul@bexp,w
  4754  0383  00C2               	movwf	??___flmul
  4755  0384  1003               	clrc
  4756  0385  0C42               	rrf	??___flmul,w
  4757  0386  00C3               	movwf	??___flmul+1
  4758  0387  0843               	movf	??___flmul+1,w
  4759  0388  00D1               	movwf	___flmul@prod+3
  4760  0389                     i1l709:
  4761  0389  0847               	movf	___flmul@sign,w
  4762  038A  00C2               	movwf	??___flmul
  4763  038B  0842               	movf	??___flmul,w
  4764  038C  04D1               	iorwf	___flmul@prod+3,f
  4765  038D                     i1l2534:
  4766  038D  0851               	movf	___flmul@prod+3,w
  4767  038E  00BD               	movwf	?___flmul+3
  4768  038F  0850               	movf	___flmul@prod+2,w
  4769  0390  00BC               	movwf	?___flmul+2
  4770  0391  084F               	movf	___flmul@prod+1,w
  4771  0392  00BB               	movwf	?___flmul+1
  4772  0393  084E               	movf	___flmul@prod,w
  4773  0394  00BA               	movwf	?___flmul
  4774  0395                     i1l697:
  4775  0395  0008               	return
  4776  0396                     __end_of___flmul:
  4777                           
  4778                           	psect	text17
  4779  0A6E                     __ptext17:	
  4780 ;; *************** function __Umul8_16 *****************
  4781 ;; Defined at:
  4782 ;;		line 4 in file "C:\Program Files\Microchip\xc8\v2.35\pic\sources\c90\common\Umul8_16.c"
  4783 ;; Parameters:    Size  Location     Type
  4784 ;;  multiplier      1    wreg     unsigned char 
  4785 ;;  multiplicand    1    0[COMMON] unsigned char 
  4786 ;; Auto vars:     Size  Location     Type
  4787 ;;  multiplier      1    8[COMMON] unsigned char 
  4788 ;;  word_mpld       2    6[COMMON] unsigned int 
  4789 ;;  product         2    4[COMMON] unsigned int 
  4790 ;; Return value:  Size  Location     Type
  4791 ;;                  2    0[COMMON] unsigned int 
  4792 ;; Registers used:
  4793 ;;		wreg, status,2, status,0
  4794 ;; Tracked objects:
  4795 ;;		On entry : 0/0
  4796 ;;		On exit  : 0/0
  4797 ;;		Unchanged: 0/0
  4798 ;; Data sizes:     COMMON   BANK0   BANK1   BANK3   BANK2
  4799 ;;      Params:         2       0       0       0       0
  4800 ;;      Locals:         5       0       0       0       0
  4801 ;;      Temps:          2       0       0       0       0
  4802 ;;      Totals:         9       0       0       0       0
  4803 ;;Total ram usage:        9 bytes
  4804 ;; Hardware stack levels used: 1
  4805 ;; This function calls:
  4806 ;;		Nothing
  4807 ;; This function is called by:
  4808 ;;		___flmul
  4809 ;; This function uses a non-reentrant model
  4810 ;;
  4811                           
  4812  0A6E                     __Umul8_16:	
  4813                           ;psect for function __Umul8_16
  4814                           
  4815                           
  4816                           ;incstack = 0
  4817                           ; Regs used in __Umul8_16: [wreg+status,2+status,0]
  4818                           ;__Umul8_16@multiplier stored from wreg
  4819  0A6E  00F8               	movwf	__Umul8_16@multiplier
  4820  0A6F                     i1l1898:
  4821  0A6F  01F4               	clrf	__Umul8_16@product
  4822  0A70  01F5               	clrf	__Umul8_16@product+1
  4823  0A71                     i1l1900:
  4824  0A71  0870               	movf	__Umul8_16@multiplicand,w
  4825  0A72  00F2               	movwf	??__Umul8_16
  4826  0A73  01F3               	clrf	??__Umul8_16+1
  4827  0A74  0872               	movf	??__Umul8_16,w
  4828  0A75  00F6               	movwf	__Umul8_16@word_mpld
  4829  0A76  0873               	movf	??__Umul8_16+1,w
  4830  0A77  00F7               	movwf	__Umul8_16@word_mpld+1
  4831  0A78                     i1l1902:
  4832  0A78  1C78               	btfss	__Umul8_16@multiplier,0
  4833  0A79  2A7B               	goto	u179_21
  4834  0A7A  2A7C               	goto	u179_20
  4835  0A7B                     u179_21:
  4836  0A7B  2A82               	goto	i1l716
  4837  0A7C                     u179_20:
  4838  0A7C                     i1l1904:
  4839  0A7C  0876               	movf	__Umul8_16@word_mpld,w
  4840  0A7D  07F4               	addwf	__Umul8_16@product,f
  4841  0A7E  1803               	skipnc
  4842  0A7F  0AF5               	incf	__Umul8_16@product+1,f
  4843  0A80  0877               	movf	__Umul8_16@word_mpld+1,w
  4844  0A81  07F5               	addwf	__Umul8_16@product+1,f
  4845  0A82                     i1l716:
  4846  0A82  3001               	movlw	1
  4847  0A83                     u180_25:
  4848  0A83  1003               	clrc
  4849  0A84  0DF6               	rlf	__Umul8_16@word_mpld,f
  4850  0A85  0DF7               	rlf	__Umul8_16@word_mpld+1,f
  4851  0A86  3EFF               	addlw	-1
  4852  0A87  1D03               	skipz
  4853  0A88  2A83               	goto	u180_25
  4854  0A89  1003               	clrc
  4855  0A8A  0CF8               	rrf	__Umul8_16@multiplier,f
  4856  0A8B                     i1l1906:
  4857  0A8B  0878               	movf	__Umul8_16@multiplier,w
  4858  0A8C  1D03               	btfss	3,2
  4859  0A8D  2A8F               	goto	u181_21
  4860  0A8E  2A90               	goto	u181_20
  4861  0A8F                     u181_21:
  4862  0A8F  2A78               	goto	i1l1902
  4863  0A90                     u181_20:
  4864  0A90                     i1l1908:
  4865  0A90  0875               	movf	__Umul8_16@product+1,w
  4866  0A91  00F1               	movwf	?__Umul8_16+1
  4867  0A92  0874               	movf	__Umul8_16@product,w
  4868  0A93  00F0               	movwf	?__Umul8_16
  4869  0A94                     i1l718:
  4870  0A94  0008               	return
  4871  0A95                     __end_of__Umul8_16:
  4872                           
  4873                           	psect	text18
  4874  061E                     __ptext18:	
  4875 ;; *************** function ___fldiv *****************
  4876 ;; Defined at:
  4877 ;;		line 8 in file "C:\Program Files\Microchip\xc8\v2.35\pic\sources\c90\common\sprcdiv.c"
  4878 ;; Parameters:    Size  Location     Type
  4879 ;;  a               4    0[BANK0 ] unsigned int 
  4880 ;;  b               4    4[BANK0 ] unsigned int 
  4881 ;; Auto vars:     Size  Location     Type
  4882 ;;  grs             4   20[BANK0 ] unsigned long 
  4883 ;;  rem             4   13[BANK0 ] unsigned long 
  4884 ;;  new_exp         2   18[BANK0 ] int 
  4885 ;;  aexp            1   25[BANK0 ] unsigned char 
  4886 ;;  bexp            1   24[BANK0 ] unsigned char 
  4887 ;;  sign            1   17[BANK0 ] unsigned char 
  4888 ;; Return value:  Size  Location     Type
  4889 ;;                  4    0[BANK0 ] unsigned char 
  4890 ;; Registers used:
  4891 ;;		wreg, status,2, status,0, btemp+1
  4892 ;; Tracked objects:
  4893 ;;		On entry : 0/0
  4894 ;;		On exit  : 0/0
  4895 ;;		Unchanged: 0/0
  4896 ;; Data sizes:     COMMON   BANK0   BANK1   BANK3   BANK2
  4897 ;;      Params:         0       8       0       0       0
  4898 ;;      Locals:         0      13       0       0       0
  4899 ;;      Temps:          0       5       0       0       0
  4900 ;;      Totals:         0      26       0       0       0
  4901 ;;Total ram usage:       26 bytes
  4902 ;; Hardware stack levels used: 1
  4903 ;; This function calls:
  4904 ;;		Nothing
  4905 ;; This function is called by:
  4906 ;;		_map
  4907 ;; This function uses a non-reentrant model
  4908 ;;
  4909                           
  4910  061E                     ___fldiv:	
  4911                           ;psect for function ___fldiv
  4912                           
  4913  061E                     i1l2256:	
  4914                           ;incstack = 0
  4915                           ; Regs used in ___fldiv: [wreg+status,2+status,0+btemp+1]
  4916                           
  4917  061E  1283               	bcf	3,5	;RP0=0, select bank0
  4918  061F  1303               	bcf	3,6	;RP1=0, select bank0
  4919  0620  0827               	movf	___fldiv@b+3,w
  4920  0621  3980               	andlw	128
  4921  0622  00A8               	movwf	??___fldiv
  4922  0623  0828               	movf	??___fldiv,w
  4923  0624  00B1               	movwf	___fldiv@sign
  4924  0625                     i1l2258:
  4925  0625  0827               	movf	___fldiv@b+3,w
  4926  0626  00A8               	movwf	??___fldiv
  4927  0627  0728               	addwf	??___fldiv,w
  4928  0628  00A9               	movwf	??___fldiv+1
  4929  0629  0829               	movf	??___fldiv+1,w
  4930  062A  00B8               	movwf	___fldiv@bexp
  4931  062B                     i1l2260:
  4932  062B  1FA6               	btfss	___fldiv@b+2,7
  4933  062C  2E2E               	goto	u243_21
  4934  062D  2E2F               	goto	u243_20
  4935  062E                     u243_21:
  4936  062E  2E30               	goto	i1l2264
  4937  062F                     u243_20:
  4938  062F                     i1l2262:
  4939  062F  1438               	bsf	___fldiv@bexp,0
  4940  0630                     i1l2264:
  4941  0630  0838               	movf	___fldiv@bexp,w
  4942  0631  1903               	btfsc	3,2
  4943  0632  2E34               	goto	u244_21
  4944  0633  2E35               	goto	u244_20
  4945  0634                     u244_21:
  4946  0634  2E45               	goto	i1l2274
  4947  0635                     u244_20:
  4948  0635                     i1l2266:
  4949  0635  0A38               	incf	___fldiv@bexp,w
  4950  0636  1D03               	btfss	3,2
  4951  0637  2E39               	goto	u245_21
  4952  0638  2E3A               	goto	u245_20
  4953  0639                     u245_21:
  4954  0639  2E42               	goto	i1l2270
  4955  063A                     u245_20:
  4956  063A                     i1l2268:
  4957  063A  3000               	movlw	0
  4958  063B  00A7               	movwf	___fldiv@b+3
  4959  063C  3000               	movlw	0
  4960  063D  00A6               	movwf	___fldiv@b+2
  4961  063E  3000               	movlw	0
  4962  063F  00A5               	movwf	___fldiv@b+1
  4963  0640  3000               	movlw	0
  4964  0641  00A4               	movwf	___fldiv@b
  4965  0642                     i1l2270:
  4966  0642  17A6               	bsf	___fldiv@b+2,7
  4967  0643                     i1l2272:
  4968  0643  01A7               	clrf	___fldiv@b+3
  4969  0644  2E4D               	goto	i1l2276
  4970  0645                     i1l2274:
  4971  0645  3000               	movlw	0
  4972  0646  00A7               	movwf	___fldiv@b+3
  4973  0647  3000               	movlw	0
  4974  0648  00A6               	movwf	___fldiv@b+2
  4975  0649  3000               	movlw	0
  4976  064A  00A5               	movwf	___fldiv@b+1
  4977  064B  3000               	movlw	0
  4978  064C  00A4               	movwf	___fldiv@b
  4979  064D                     i1l2276:
  4980  064D  0823               	movf	___fldiv@a+3,w
  4981  064E  3980               	andlw	128
  4982  064F  00A8               	movwf	??___fldiv
  4983  0650  0828               	movf	??___fldiv,w
  4984  0651  06B1               	xorwf	___fldiv@sign,f
  4985  0652                     i1l2278:
  4986  0652  0823               	movf	___fldiv@a+3,w
  4987  0653  00A8               	movwf	??___fldiv
  4988  0654  0728               	addwf	??___fldiv,w
  4989  0655  00A9               	movwf	??___fldiv+1
  4990  0656  0829               	movf	??___fldiv+1,w
  4991  0657  00B9               	movwf	___fldiv@aexp
  4992  0658                     i1l2280:
  4993  0658  1FA2               	btfss	___fldiv@a+2,7
  4994  0659  2E5B               	goto	u246_21
  4995  065A  2E5C               	goto	u246_20
  4996  065B                     u246_21:
  4997  065B  2E5D               	goto	i1l2284
  4998  065C                     u246_20:
  4999  065C                     i1l2282:
  5000  065C  1439               	bsf	___fldiv@aexp,0
  5001  065D                     i1l2284:
  5002  065D  0839               	movf	___fldiv@aexp,w
  5003  065E  1903               	btfsc	3,2
  5004  065F  2E61               	goto	u247_21
  5005  0660  2E62               	goto	u247_20
  5006  0661                     u247_21:
  5007  0661  2E72               	goto	i1l2294
  5008  0662                     u247_20:
  5009  0662                     i1l2286:
  5010  0662  0A39               	incf	___fldiv@aexp,w
  5011  0663  1D03               	btfss	3,2
  5012  0664  2E66               	goto	u248_21
  5013  0665  2E67               	goto	u248_20
  5014  0666                     u248_21:
  5015  0666  2E6F               	goto	i1l2290
  5016  0667                     u248_20:
  5017  0667                     i1l2288:
  5018  0667  3000               	movlw	0
  5019  0668  00A3               	movwf	___fldiv@a+3
  5020  0669  3000               	movlw	0
  5021  066A  00A2               	movwf	___fldiv@a+2
  5022  066B  3000               	movlw	0
  5023  066C  00A1               	movwf	___fldiv@a+1
  5024  066D  3000               	movlw	0
  5025  066E  00A0               	movwf	___fldiv@a
  5026  066F                     i1l2290:
  5027  066F  17A2               	bsf	___fldiv@a+2,7
  5028  0670                     i1l2292:
  5029  0670  01A3               	clrf	___fldiv@a+3
  5030  0671  2E7A               	goto	i1l657
  5031  0672                     i1l2294:
  5032  0672  3000               	movlw	0
  5033  0673  00A3               	movwf	___fldiv@a+3
  5034  0674  3000               	movlw	0
  5035  0675  00A2               	movwf	___fldiv@a+2
  5036  0676  3000               	movlw	0
  5037  0677  00A1               	movwf	___fldiv@a+1
  5038  0678  3000               	movlw	0
  5039  0679  00A0               	movwf	___fldiv@a
  5040  067A                     i1l657:
  5041  067A  0823               	movf	___fldiv@a+3,w
  5042  067B  0422               	iorwf	___fldiv@a+2,w
  5043  067C  0421               	iorwf	___fldiv@a+1,w
  5044  067D  0420               	iorwf	___fldiv@a,w
  5045  067E  1D03               	skipz
  5046  067F  2E81               	goto	u249_21
  5047  0680  2E82               	goto	u249_20
  5048  0681                     u249_21:
  5049  0681  2E9B               	goto	i1l2304
  5050  0682                     u249_20:
  5051  0682                     i1l2296:
  5052  0682  3000               	movlw	0
  5053  0683  00A7               	movwf	___fldiv@b+3
  5054  0684  3000               	movlw	0
  5055  0685  00A6               	movwf	___fldiv@b+2
  5056  0686  3000               	movlw	0
  5057  0687  00A5               	movwf	___fldiv@b+1
  5058  0688  3000               	movlw	0
  5059  0689  00A4               	movwf	___fldiv@b
  5060  068A  3080               	movlw	128
  5061  068B  04A6               	iorwf	___fldiv@b+2,f
  5062  068C  307F               	movlw	127
  5063  068D  04A7               	iorwf	___fldiv@b+3,f
  5064  068E                     i1l2298:
  5065  068E  0831               	movf	___fldiv@sign,w
  5066  068F  00A8               	movwf	??___fldiv
  5067  0690  0828               	movf	??___fldiv,w
  5068  0691  04A7               	iorwf	___fldiv@b+3,f
  5069  0692                     i1l2300:
  5070  0692  0827               	movf	___fldiv@b+3,w
  5071  0693  00A3               	movwf	?___fldiv+3
  5072  0694  0826               	movf	___fldiv@b+2,w
  5073  0695  00A2               	movwf	?___fldiv+2
  5074  0696  0825               	movf	___fldiv@b+1,w
  5075  0697  00A1               	movwf	?___fldiv+1
  5076  0698  0824               	movf	___fldiv@b,w
  5077  0699  00A0               	movwf	?___fldiv
  5078  069A  2FFA               	goto	i1l659
  5079  069B                     i1l2304:
  5080  069B  0838               	movf	___fldiv@bexp,w
  5081  069C  1D03               	btfss	3,2
  5082  069D  2E9F               	goto	u250_21
  5083  069E  2EA0               	goto	u250_20
  5084  069F                     u250_21:
  5085  069F  2EA9               	goto	i1l2310
  5086  06A0                     u250_20:
  5087  06A0                     i1l2306:
  5088  06A0  3000               	movlw	0
  5089  06A1  00A3               	movwf	?___fldiv+3
  5090  06A2  3000               	movlw	0
  5091  06A3  00A2               	movwf	?___fldiv+2
  5092  06A4  3000               	movlw	0
  5093  06A5  00A1               	movwf	?___fldiv+1
  5094  06A6  3000               	movlw	0
  5095  06A7  00A0               	movwf	?___fldiv
  5096  06A8  2FFA               	goto	i1l659
  5097  06A9                     i1l2310:
  5098  06A9  0838               	movf	___fldiv@bexp,w
  5099  06AA  00A8               	movwf	??___fldiv
  5100  06AB  01A9               	clrf	??___fldiv+1
  5101  06AC  0829               	movf	??___fldiv+1,w
  5102  06AD  00AB               	movwf	??___fldiv+3
  5103  06AE  0839               	movf	___fldiv@aexp,w
  5104  06AF  0228               	subwf	??___fldiv,w
  5105  06B0  00AA               	movwf	??___fldiv+2
  5106  06B1  1C03               	skipc
  5107  06B2  03AB               	decf	??___fldiv+3,f
  5108  06B3  082A               	movf	??___fldiv+2,w
  5109  06B4  3E7F               	addlw	127
  5110  06B5  00B2               	movwf	___fldiv@new_exp
  5111  06B6  082B               	movf	??___fldiv+3,w
  5112  06B7  1803               	skipnc
  5113  06B8  3E01               	addlw	1
  5114  06B9  3E00               	addlw	0
  5115  06BA  00B3               	movwf	___fldiv@new_exp+1
  5116  06BB                     i1l2312:
  5117  06BB  0827               	movf	___fldiv@b+3,w
  5118  06BC  00B0               	movwf	___fldiv@rem+3
  5119  06BD  0826               	movf	___fldiv@b+2,w
  5120  06BE  00AF               	movwf	___fldiv@rem+2
  5121  06BF  0825               	movf	___fldiv@b+1,w
  5122  06C0  00AE               	movwf	___fldiv@rem+1
  5123  06C1  0824               	movf	___fldiv@b,w
  5124  06C2  00AD               	movwf	___fldiv@rem
  5125  06C3                     i1l2314:
  5126  06C3  3000               	movlw	0
  5127  06C4  00A7               	movwf	___fldiv@b+3
  5128  06C5  3000               	movlw	0
  5129  06C6  00A6               	movwf	___fldiv@b+2
  5130  06C7  3000               	movlw	0
  5131  06C8  00A5               	movwf	___fldiv@b+1
  5132  06C9  3000               	movlw	0
  5133  06CA  00A4               	movwf	___fldiv@b
  5134  06CB                     i1l2316:
  5135  06CB  3000               	movlw	0
  5136  06CC  00B7               	movwf	___fldiv@grs+3
  5137  06CD  3000               	movlw	0
  5138  06CE  00B6               	movwf	___fldiv@grs+2
  5139  06CF  3000               	movlw	0
  5140  06D0  00B5               	movwf	___fldiv@grs+1
  5141  06D1  3000               	movlw	0
  5142  06D2  00B4               	movwf	___fldiv@grs
  5143  06D3                     i1l2318:
  5144  06D3  01B9               	clrf	___fldiv@aexp
  5145  06D4  2F1F               	goto	i1l2338
  5146  06D5                     i1l2320:
  5147  06D5  0839               	movf	___fldiv@aexp,w
  5148  06D6  1903               	btfsc	3,2
  5149  06D7  2ED9               	goto	u251_21
  5150  06D8  2EDA               	goto	u251_20
  5151  06D9                     u251_21:
  5152  06D9  2EFA               	goto	i1l2330
  5153  06DA                     u251_20:
  5154  06DA                     i1l2322:
  5155  06DA  3001               	movlw	1
  5156  06DB  00A8               	movwf	??___fldiv
  5157  06DC                     u252_25:
  5158  06DC  1003               	clrc
  5159  06DD  0DAD               	rlf	___fldiv@rem,f
  5160  06DE  0DAE               	rlf	___fldiv@rem+1,f
  5161  06DF  0DAF               	rlf	___fldiv@rem+2,f
  5162  06E0  0DB0               	rlf	___fldiv@rem+3,f
  5163  06E1  0BA8               	decfsz	??___fldiv,f
  5164  06E2  2EDC               	goto	u252_25
  5165  06E3  3001               	movlw	1
  5166  06E4  00A8               	movwf	??___fldiv
  5167  06E5                     u253_25:
  5168  06E5  1003               	clrc
  5169  06E6  0DA4               	rlf	___fldiv@b,f
  5170  06E7  0DA5               	rlf	___fldiv@b+1,f
  5171  06E8  0DA6               	rlf	___fldiv@b+2,f
  5172  06E9  0DA7               	rlf	___fldiv@b+3,f
  5173  06EA  0BA8               	decfsz	??___fldiv,f
  5174  06EB  2EE5               	goto	u253_25
  5175  06EC                     i1l2324:
  5176  06EC  1FB7               	btfss	___fldiv@grs+3,7
  5177  06ED  2EEF               	goto	u254_21
  5178  06EE  2EF0               	goto	u254_20
  5179  06EF                     u254_21:
  5180  06EF  2EF1               	goto	i1l2328
  5181  06F0                     u254_20:
  5182  06F0                     i1l2326:
  5183  06F0  1424               	bsf	___fldiv@b,0
  5184  06F1                     i1l2328:
  5185  06F1  3001               	movlw	1
  5186  06F2  00A8               	movwf	??___fldiv
  5187  06F3                     u255_25:
  5188  06F3  1003               	clrc
  5189  06F4  0DB4               	rlf	___fldiv@grs,f
  5190  06F5  0DB5               	rlf	___fldiv@grs+1,f
  5191  06F6  0DB6               	rlf	___fldiv@grs+2,f
  5192  06F7  0DB7               	rlf	___fldiv@grs+3,f
  5193  06F8  0BA8               	decfsz	??___fldiv,f
  5194  06F9  2EF3               	goto	u255_25
  5195  06FA                     i1l2330:
  5196  06FA  0823               	movf	___fldiv@a+3,w
  5197  06FB  0230               	subwf	___fldiv@rem+3,w
  5198  06FC  1D03               	skipz
  5199  06FD  2F08               	goto	u256_25
  5200  06FE  0822               	movf	___fldiv@a+2,w
  5201  06FF  022F               	subwf	___fldiv@rem+2,w
  5202  0700  1D03               	skipz
  5203  0701  2F08               	goto	u256_25
  5204  0702  0821               	movf	___fldiv@a+1,w
  5205  0703  022E               	subwf	___fldiv@rem+1,w
  5206  0704  1D03               	skipz
  5207  0705  2F08               	goto	u256_25
  5208  0706  0820               	movf	___fldiv@a,w
  5209  0707  022D               	subwf	___fldiv@rem,w
  5210  0708                     u256_25:
  5211  0708  1C03               	skipc
  5212  0709  2F0B               	goto	u256_21
  5213  070A  2F0C               	goto	u256_20
  5214  070B                     u256_21:
  5215  070B  2F1B               	goto	i1l2336
  5216  070C                     u256_20:
  5217  070C                     i1l2332:
  5218  070C  1737               	bsf	___fldiv@grs+3,6
  5219  070D                     i1l2334:
  5220  070D  0820               	movf	___fldiv@a,w
  5221  070E  02AD               	subwf	___fldiv@rem,f
  5222  070F  0821               	movf	___fldiv@a+1,w
  5223  0710  1C03               	skipc
  5224  0711  0F21               	incfsz	___fldiv@a+1,w
  5225  0712  02AE               	subwf	___fldiv@rem+1,f
  5226  0713  0822               	movf	___fldiv@a+2,w
  5227  0714  1C03               	skipc
  5228  0715  0F22               	incfsz	___fldiv@a+2,w
  5229  0716  02AF               	subwf	___fldiv@rem+2,f
  5230  0717  0823               	movf	___fldiv@a+3,w
  5231  0718  1C03               	skipc
  5232  0719  0F23               	incfsz	___fldiv@a+3,w
  5233  071A  02B0               	subwf	___fldiv@rem+3,f
  5234  071B                     i1l2336:
  5235  071B  3001               	movlw	1
  5236  071C  00A8               	movwf	??___fldiv
  5237  071D  0828               	movf	??___fldiv,w
  5238  071E  07B9               	addwf	___fldiv@aexp,f
  5239  071F                     i1l2338:
  5240  071F  301A               	movlw	26
  5241  0720  0239               	subwf	___fldiv@aexp,w
  5242  0721  1C03               	skipc
  5243  0722  2F24               	goto	u257_21
  5244  0723  2F25               	goto	u257_20
  5245  0724                     u257_21:
  5246  0724  2ED5               	goto	i1l2320
  5247  0725                     u257_20:
  5248  0725                     i1l2340:
  5249  0725  0830               	movf	___fldiv@rem+3,w
  5250  0726  042F               	iorwf	___fldiv@rem+2,w
  5251  0727  042E               	iorwf	___fldiv@rem+1,w
  5252  0728  042D               	iorwf	___fldiv@rem,w
  5253  0729  1903               	skipnz
  5254  072A  2F2C               	goto	u258_21
  5255  072B  2F2D               	goto	u258_20
  5256  072C                     u258_21:
  5257  072C  2F4C               	goto	i1l2354
  5258  072D                     u258_20:
  5259  072D                     i1l2342:
  5260  072D  1434               	bsf	___fldiv@grs,0
  5261  072E  2F4C               	goto	i1l2354
  5262  072F                     i1l2344:
  5263  072F  3001               	movlw	1
  5264  0730  00A8               	movwf	??___fldiv
  5265  0731                     u259_25:
  5266  0731  1003               	clrc
  5267  0732  0DA4               	rlf	___fldiv@b,f
  5268  0733  0DA5               	rlf	___fldiv@b+1,f
  5269  0734  0DA6               	rlf	___fldiv@b+2,f
  5270  0735  0DA7               	rlf	___fldiv@b+3,f
  5271  0736  0BA8               	decfsz	??___fldiv,f
  5272  0737  2F31               	goto	u259_25
  5273  0738                     i1l2346:
  5274  0738  1FB7               	btfss	___fldiv@grs+3,7
  5275  0739  2F3B               	goto	u260_21
  5276  073A  2F3C               	goto	u260_20
  5277  073B                     u260_21:
  5278  073B  2F3D               	goto	i1l2350
  5279  073C                     u260_20:
  5280  073C                     i1l2348:
  5281  073C  1424               	bsf	___fldiv@b,0
  5282  073D                     i1l2350:
  5283  073D  3001               	movlw	1
  5284  073E  00A8               	movwf	??___fldiv
  5285  073F                     u261_25:
  5286  073F  1003               	clrc
  5287  0740  0DB4               	rlf	___fldiv@grs,f
  5288  0741  0DB5               	rlf	___fldiv@grs+1,f
  5289  0742  0DB6               	rlf	___fldiv@grs+2,f
  5290  0743  0DB7               	rlf	___fldiv@grs+3,f
  5291  0744  0BA8               	decfsz	??___fldiv,f
  5292  0745  2F3F               	goto	u261_25
  5293  0746                     i1l2352:
  5294  0746  30FF               	movlw	255
  5295  0747  07B2               	addwf	___fldiv@new_exp,f
  5296  0748  1803               	skipnc
  5297  0749  0AB3               	incf	___fldiv@new_exp+1,f
  5298  074A  30FF               	movlw	255
  5299  074B  07B3               	addwf	___fldiv@new_exp+1,f
  5300  074C                     i1l2354:
  5301  074C  1FA6               	btfss	___fldiv@b+2,7
  5302  074D  2F4F               	goto	u262_21
  5303  074E  2F50               	goto	u262_20
  5304  074F                     u262_21:
  5305  074F  2F2F               	goto	i1l2344
  5306  0750                     u262_20:
  5307  0750                     i1l2356:
  5308  0750  01B9               	clrf	___fldiv@aexp
  5309  0751                     i1l2358:
  5310  0751  1FB7               	btfss	___fldiv@grs+3,7
  5311  0752  2F54               	goto	u263_21
  5312  0753  2F55               	goto	u263_20
  5313  0754                     u263_21:
  5314  0754  2F71               	goto	i1l2366
  5315  0755                     u263_20:
  5316  0755                     i1l2360:
  5317  0755  30FF               	movlw	255
  5318  0756  0534               	andwf	___fldiv@grs,w
  5319  0757  00A8               	movwf	??___fldiv
  5320  0758  30FF               	movlw	255
  5321  0759  0535               	andwf	___fldiv@grs+1,w
  5322  075A  00A9               	movwf	??___fldiv+1
  5323  075B  30FF               	movlw	255
  5324  075C  0536               	andwf	___fldiv@grs+2,w
  5325  075D  00AA               	movwf	??___fldiv+2
  5326  075E  307F               	movlw	127
  5327  075F  0537               	andwf	___fldiv@grs+3,w
  5328  0760  00AB               	movwf	??___fldiv+3
  5329  0761  082B               	movf	??___fldiv+3,w
  5330  0762  042A               	iorwf	??___fldiv+2,w
  5331  0763  0429               	iorwf	??___fldiv+1,w
  5332  0764  0428               	iorwf	??___fldiv,w
  5333  0765  1903               	skipnz
  5334  0766  2F68               	goto	u264_21
  5335  0767  2F69               	goto	u264_20
  5336  0768                     u264_21:
  5337  0768  2F6C               	goto	i1l673
  5338  0769                     u264_20:
  5339  0769                     i1l2362:
  5340  0769  01B9               	clrf	___fldiv@aexp
  5341  076A  0AB9               	incf	___fldiv@aexp,f
  5342  076B  2F71               	goto	i1l2366
  5343  076C                     i1l673:
  5344  076C  1C24               	btfss	___fldiv@b,0
  5345  076D  2F6F               	goto	u265_21
  5346  076E  2F70               	goto	u265_20
  5347  076F                     u265_21:
  5348  076F  2F71               	goto	i1l2366
  5349  0770                     u265_20:
  5350  0770  2F69               	goto	i1l2362
  5351  0771                     i1l2366:
  5352  0771  0839               	movf	___fldiv@aexp,w
  5353  0772  1903               	btfsc	3,2
  5354  0773  2F75               	goto	u266_21
  5355  0774  2F76               	goto	u266_20
  5356  0775                     u266_21:
  5357  0775  2FA7               	goto	i1l2376
  5358  0776                     u266_20:
  5359  0776                     i1l2368:
  5360  0776  3001               	movlw	1
  5361  0777  07A4               	addwf	___fldiv@b,f
  5362  0778  3000               	movlw	0
  5363  0779  1803               	skipnc
  5364  077A  3001               	movlw	1
  5365  077B  07A5               	addwf	___fldiv@b+1,f
  5366  077C  3000               	movlw	0
  5367  077D  1803               	skipnc
  5368  077E  3001               	movlw	1
  5369  077F  07A6               	addwf	___fldiv@b+2,f
  5370  0780  3000               	movlw	0
  5371  0781  1803               	skipnc
  5372  0782  3001               	movlw	1
  5373  0783  07A7               	addwf	___fldiv@b+3,f
  5374  0784                     i1l2370:
  5375  0784  1C27               	btfss	___fldiv@b+3,0
  5376  0785  2F87               	goto	u267_21
  5377  0786  2F88               	goto	u267_20
  5378  0787                     u267_21:
  5379  0787  2FA7               	goto	i1l2376
  5380  0788                     u267_20:
  5381  0788                     i1l2372:
  5382  0788  0824               	movf	___fldiv@b,w
  5383  0789  00A8               	movwf	??___fldiv
  5384  078A  0825               	movf	___fldiv@b+1,w
  5385  078B  00A9               	movwf	??___fldiv+1
  5386  078C  0826               	movf	___fldiv@b+2,w
  5387  078D  00AA               	movwf	??___fldiv+2
  5388  078E  0827               	movf	___fldiv@b+3,w
  5389  078F  00AB               	movwf	??___fldiv+3
  5390  0790  3001               	movlw	1
  5391  0791  00AC               	movwf	??___fldiv+4
  5392  0792                     u268_25:
  5393  0792  0D2B               	rlf	??___fldiv+3,w
  5394  0793  0CAB               	rrf	??___fldiv+3,f
  5395  0794  0CAA               	rrf	??___fldiv+2,f
  5396  0795  0CA9               	rrf	??___fldiv+1,f
  5397  0796  0CA8               	rrf	??___fldiv,f
  5398  0797                     u268_20:
  5399  0797  0BAC               	decfsz	??___fldiv+4,f
  5400  0798  2F92               	goto	u268_25
  5401  0799  082B               	movf	??___fldiv+3,w
  5402  079A  00A7               	movwf	___fldiv@b+3
  5403  079B  082A               	movf	??___fldiv+2,w
  5404  079C  00A6               	movwf	___fldiv@b+2
  5405  079D  0829               	movf	??___fldiv+1,w
  5406  079E  00A5               	movwf	___fldiv@b+1
  5407  079F  0828               	movf	??___fldiv,w
  5408  07A0  00A4               	movwf	___fldiv@b
  5409  07A1                     i1l2374:
  5410  07A1  3001               	movlw	1
  5411  07A2  07B2               	addwf	___fldiv@new_exp,f
  5412  07A3  1803               	skipnc
  5413  07A4  0AB3               	incf	___fldiv@new_exp+1,f
  5414  07A5  3000               	movlw	0
  5415  07A6  07B3               	addwf	___fldiv@new_exp+1,f
  5416  07A7                     i1l2376:
  5417  07A7  0833               	movf	___fldiv@new_exp+1,w
  5418  07A8  3A80               	xorlw	128
  5419  07A9  00FF               	movwf	btemp+1
  5420  07AA  3080               	movlw	128
  5421  07AB  027F               	subwf	btemp+1,w
  5422  07AC  1D03               	skipz
  5423  07AD  2FB0               	goto	u269_25
  5424  07AE  30FF               	movlw	255
  5425  07AF  0232               	subwf	___fldiv@new_exp,w
  5426  07B0                     u269_25:
  5427  07B0  1C03               	skipc
  5428  07B1  2FB3               	goto	u269_21
  5429  07B2  2FB4               	goto	u269_20
  5430  07B3                     u269_21:
  5431  07B3  2FC2               	goto	i1l2380
  5432  07B4                     u269_20:
  5433  07B4                     i1l2378:
  5434  07B4  30FF               	movlw	255
  5435  07B5  1283               	bcf	3,5	;RP0=0, select bank0
  5436  07B6  1303               	bcf	3,6	;RP1=0, select bank0
  5437  07B7  00B2               	movwf	___fldiv@new_exp
  5438  07B8  3000               	movlw	0
  5439  07B9  00B3               	movwf	___fldiv@new_exp+1
  5440  07BA  3000               	movlw	0
  5441  07BB  00A7               	movwf	___fldiv@b+3
  5442  07BC  3000               	movlw	0
  5443  07BD  00A6               	movwf	___fldiv@b+2
  5444  07BE  3000               	movlw	0
  5445  07BF  00A5               	movwf	___fldiv@b+1
  5446  07C0  3000               	movlw	0
  5447  07C1  00A4               	movwf	___fldiv@b
  5448  07C2                     i1l2380:
  5449  07C2  1283               	bcf	3,5	;RP0=0, select bank0
  5450  07C3  1303               	bcf	3,6	;RP1=0, select bank0
  5451  07C4  0833               	movf	___fldiv@new_exp+1,w
  5452  07C5  3A80               	xorlw	128
  5453  07C6  00FF               	movwf	btemp+1
  5454  07C7  3080               	movlw	128
  5455  07C8  027F               	subwf	btemp+1,w
  5456  07C9  1D03               	skipz
  5457  07CA  2FCD               	goto	u270_25
  5458  07CB  3001               	movlw	1
  5459  07CC  0232               	subwf	___fldiv@new_exp,w
  5460  07CD                     u270_25:
  5461  07CD  1803               	skipnc
  5462  07CE  2FD0               	goto	u270_21
  5463  07CF  2FD1               	goto	u270_20
  5464  07D0                     u270_21:
  5465  07D0  2FDE               	goto	i1l679
  5466  07D1                     u270_20:
  5467  07D1                     i1l2382:
  5468  07D1  1283               	bcf	3,5	;RP0=0, select bank0
  5469  07D2  1303               	bcf	3,6	;RP1=0, select bank0
  5470  07D3  01B2               	clrf	___fldiv@new_exp
  5471  07D4  01B3               	clrf	___fldiv@new_exp+1
  5472  07D5                     i1l2384:
  5473  07D5  3000               	movlw	0
  5474  07D6  00A7               	movwf	___fldiv@b+3
  5475  07D7  3000               	movlw	0
  5476  07D8  00A6               	movwf	___fldiv@b+2
  5477  07D9  3000               	movlw	0
  5478  07DA  00A5               	movwf	___fldiv@b+1
  5479  07DB  3000               	movlw	0
  5480  07DC  00A4               	movwf	___fldiv@b
  5481  07DD                     i1l2386:
  5482  07DD  01B1               	clrf	___fldiv@sign
  5483  07DE                     i1l679:
  5484  07DE  1283               	bcf	3,5	;RP0=0, select bank0
  5485  07DF  1303               	bcf	3,6	;RP1=0, select bank0
  5486  07E0  0832               	movf	___fldiv@new_exp,w
  5487  07E1  00A8               	movwf	??___fldiv
  5488  07E2  0828               	movf	??___fldiv,w
  5489  07E3  00B8               	movwf	___fldiv@bexp
  5490  07E4                     i1l2388:
  5491  07E4  1C38               	btfss	___fldiv@bexp,0
  5492  07E5  2FE7               	goto	u271_21
  5493  07E6  2FE8               	goto	u271_20
  5494  07E7                     u271_21:
  5495  07E7  2FEA               	goto	i1l2392
  5496  07E8                     u271_20:
  5497  07E8                     i1l2390:
  5498  07E8  17A6               	bsf	___fldiv@b+2,7
  5499  07E9  2FEE               	goto	i1l681
  5500  07EA                     i1l2392:
  5501  07EA  307F               	movlw	127
  5502  07EB  00A8               	movwf	??___fldiv
  5503  07EC  0828               	movf	??___fldiv,w
  5504  07ED  05A6               	andwf	___fldiv@b+2,f
  5505  07EE                     i1l681:
  5506  07EE  0838               	movf	___fldiv@bexp,w
  5507  07EF  00A8               	movwf	??___fldiv
  5508  07F0  1003               	clrc
  5509  07F1  0C28               	rrf	??___fldiv,w
  5510  07F2  00A9               	movwf	??___fldiv+1
  5511  07F3  0829               	movf	??___fldiv+1,w
  5512  07F4  00A7               	movwf	___fldiv@b+3
  5513  07F5  0831               	movf	___fldiv@sign,w
  5514  07F6  00A8               	movwf	??___fldiv
  5515  07F7  0828               	movf	??___fldiv,w
  5516  07F8  04A7               	iorwf	___fldiv@b+3,f
  5517  07F9  2E92               	goto	i1l2300
  5518  07FA                     i1l659:
  5519  07FA  0008               	return
  5520  07FB                     __end_of___fldiv:
  5521                           
  5522                           	psect	text19
  5523  0396                     __ptext19:	
  5524 ;; *************** function ___fladd *****************
  5525 ;; Defined at:
  5526 ;;		line 10 in file "C:\Program Files\Microchip\xc8\v2.35\pic\sources\c90\common\sprcadd.c"
  5527 ;; Parameters:    Size  Location     Type
  5528 ;;  b               4   52[BANK0 ] unsigned char 
  5529 ;;  a               4   56[BANK0 ] unsigned char 
  5530 ;; Auto vars:     Size  Location     Type
  5531 ;;  grs             1   71[BANK0 ] unsigned char 
  5532 ;;  bexp            1   70[BANK0 ] unsigned char 
  5533 ;;  aexp            1   69[BANK0 ] unsigned char 
  5534 ;;  signs           1   68[BANK0 ] unsigned char 
  5535 ;; Return value:  Size  Location     Type
  5536 ;;                  4   52[BANK0 ] unsigned char 
  5537 ;; Registers used:
  5538 ;;		wreg, status,2, status,0, btemp+1
  5539 ;; Tracked objects:
  5540 ;;		On entry : 0/0
  5541 ;;		On exit  : 0/0
  5542 ;;		Unchanged: 0/0
  5543 ;; Data sizes:     COMMON   BANK0   BANK1   BANK3   BANK2
  5544 ;;      Params:         0       8       0       0       0
  5545 ;;      Locals:         0       4       0       0       0
  5546 ;;      Temps:          0       8       0       0       0
  5547 ;;      Totals:         0      20       0       0       0
  5548 ;;Total ram usage:       20 bytes
  5549 ;; Hardware stack levels used: 1
  5550 ;; This function calls:
  5551 ;;		Nothing
  5552 ;; This function is called by:
  5553 ;;		_map
  5554 ;; This function uses a non-reentrant model
  5555 ;;
  5556                           
  5557  0396                     ___fladd:	
  5558                           ;psect for function ___fladd
  5559                           
  5560  0396                     i1l2062:	
  5561                           ;incstack = 0
  5562                           ; Regs used in ___fladd: [wreg+status,2+status,0+btemp+1]
  5563                           
  5564  0396  1283               	bcf	3,5	;RP0=0, select bank0
  5565  0397  1303               	bcf	3,6	;RP1=0, select bank0
  5566  0398  0857               	movf	___fladd@b+3,w
  5567  0399  3980               	andlw	128
  5568  039A  00DC               	movwf	??___fladd
  5569  039B  085C               	movf	??___fladd,w
  5570  039C  00E4               	movwf	___fladd@signs
  5571  039D                     i1l2064:
  5572  039D  0857               	movf	___fladd@b+3,w
  5573  039E  00DC               	movwf	??___fladd
  5574  039F  075C               	addwf	??___fladd,w
  5575  03A0  00DD               	movwf	??___fladd+1
  5576  03A1  085D               	movf	??___fladd+1,w
  5577  03A2  00E6               	movwf	___fladd@bexp
  5578  03A3                     i1l2066:
  5579  03A3  1FD6               	btfss	___fladd@b+2,7
  5580  03A4  2BA6               	goto	u197_21
  5581  03A5  2BA7               	goto	u197_20
  5582  03A6                     u197_21:
  5583  03A6  2BA8               	goto	i1l2070
  5584  03A7                     u197_20:
  5585  03A7                     i1l2068:
  5586  03A7  1466               	bsf	___fladd@bexp,0
  5587  03A8                     i1l2070:
  5588  03A8  0866               	movf	___fladd@bexp,w
  5589  03A9  1903               	btfsc	3,2
  5590  03AA  2BAC               	goto	u198_21
  5591  03AB  2BAD               	goto	u198_20
  5592  03AC                     u198_21:
  5593  03AC  2BBD               	goto	i1l2080
  5594  03AD                     u198_20:
  5595  03AD                     i1l2072:
  5596  03AD  0A66               	incf	___fladd@bexp,w
  5597  03AE  1D03               	btfss	3,2
  5598  03AF  2BB1               	goto	u199_21
  5599  03B0  2BB2               	goto	u199_20
  5600  03B1                     u199_21:
  5601  03B1  2BBA               	goto	i1l2076
  5602  03B2                     u199_20:
  5603  03B2                     i1l2074:
  5604  03B2  3000               	movlw	0
  5605  03B3  00D7               	movwf	___fladd@b+3
  5606  03B4  3000               	movlw	0
  5607  03B5  00D6               	movwf	___fladd@b+2
  5608  03B6  3000               	movlw	0
  5609  03B7  00D5               	movwf	___fladd@b+1
  5610  03B8  3000               	movlw	0
  5611  03B9  00D4               	movwf	___fladd@b
  5612  03BA                     i1l2076:
  5613  03BA  17D6               	bsf	___fladd@b+2,7
  5614  03BB                     i1l2078:
  5615  03BB  01D7               	clrf	___fladd@b+3
  5616  03BC  2BC5               	goto	i1l2082
  5617  03BD                     i1l2080:
  5618  03BD  3000               	movlw	0
  5619  03BE  00D7               	movwf	___fladd@b+3
  5620  03BF  3000               	movlw	0
  5621  03C0  00D6               	movwf	___fladd@b+2
  5622  03C1  3000               	movlw	0
  5623  03C2  00D5               	movwf	___fladd@b+1
  5624  03C3  3000               	movlw	0
  5625  03C4  00D4               	movwf	___fladd@b
  5626  03C5                     i1l2082:
  5627  03C5  085B               	movf	___fladd@a+3,w
  5628  03C6  3980               	andlw	128
  5629  03C7  00DC               	movwf	??___fladd
  5630  03C8  085C               	movf	??___fladd,w
  5631  03C9  00E5               	movwf	___fladd@aexp
  5632  03CA                     i1l2084:
  5633  03CA  0865               	movf	___fladd@aexp,w
  5634  03CB  0664               	xorwf	___fladd@signs,w
  5635  03CC  1903               	skipnz
  5636  03CD  2BCF               	goto	u200_21
  5637  03CE  2BD0               	goto	u200_20
  5638  03CF                     u200_21:
  5639  03CF  2BD1               	goto	i1l2088
  5640  03D0                     u200_20:
  5641  03D0                     i1l2086:
  5642  03D0  1764               	bsf	___fladd@signs,6
  5643  03D1                     i1l2088:
  5644  03D1  085B               	movf	___fladd@a+3,w
  5645  03D2  00DC               	movwf	??___fladd
  5646  03D3  075C               	addwf	??___fladd,w
  5647  03D4  00DD               	movwf	??___fladd+1
  5648  03D5  085D               	movf	??___fladd+1,w
  5649  03D6  00E5               	movwf	___fladd@aexp
  5650  03D7                     i1l2090:
  5651  03D7  1FDA               	btfss	___fladd@a+2,7
  5652  03D8  2BDA               	goto	u201_21
  5653  03D9  2BDB               	goto	u201_20
  5654  03DA                     u201_21:
  5655  03DA  2BDC               	goto	i1l2094
  5656  03DB                     u201_20:
  5657  03DB                     i1l2092:
  5658  03DB  1465               	bsf	___fladd@aexp,0
  5659  03DC                     i1l2094:
  5660  03DC  0865               	movf	___fladd@aexp,w
  5661  03DD  1903               	btfsc	3,2
  5662  03DE  2BE0               	goto	u202_21
  5663  03DF  2BE1               	goto	u202_20
  5664  03E0                     u202_21:
  5665  03E0  2BF1               	goto	i1l2104
  5666  03E1                     u202_20:
  5667  03E1                     i1l2096:
  5668  03E1  0A65               	incf	___fladd@aexp,w
  5669  03E2  1D03               	btfss	3,2
  5670  03E3  2BE5               	goto	u203_21
  5671  03E4  2BE6               	goto	u203_20
  5672  03E5                     u203_21:
  5673  03E5  2BEE               	goto	i1l2100
  5674  03E6                     u203_20:
  5675  03E6                     i1l2098:
  5676  03E6  3000               	movlw	0
  5677  03E7  00DB               	movwf	___fladd@a+3
  5678  03E8  3000               	movlw	0
  5679  03E9  00DA               	movwf	___fladd@a+2
  5680  03EA  3000               	movlw	0
  5681  03EB  00D9               	movwf	___fladd@a+1
  5682  03EC  3000               	movlw	0
  5683  03ED  00D8               	movwf	___fladd@a
  5684  03EE                     i1l2100:
  5685  03EE  17DA               	bsf	___fladd@a+2,7
  5686  03EF                     i1l2102:
  5687  03EF  01DB               	clrf	___fladd@a+3
  5688  03F0  2BF9               	goto	i1l601
  5689  03F1                     i1l2104:
  5690  03F1  3000               	movlw	0
  5691  03F2  00DB               	movwf	___fladd@a+3
  5692  03F3  3000               	movlw	0
  5693  03F4  00DA               	movwf	___fladd@a+2
  5694  03F5  3000               	movlw	0
  5695  03F6  00D9               	movwf	___fladd@a+1
  5696  03F7  3000               	movlw	0
  5697  03F8  00D8               	movwf	___fladd@a
  5698  03F9                     i1l601:
  5699  03F9  0866               	movf	___fladd@bexp,w
  5700  03FA  0265               	subwf	___fladd@aexp,w
  5701  03FB  1803               	skipnc
  5702  03FC  2BFE               	goto	u204_21
  5703  03FD  2BFF               	goto	u204_20
  5704  03FE                     u204_21:
  5705  03FE  2C43               	goto	i1l2140
  5706  03FF                     u204_20:
  5707  03FF                     i1l2106:
  5708  03FF  1F64               	btfss	___fladd@signs,6
  5709  0400  2C02               	goto	u205_21
  5710  0401  2C03               	goto	u205_20
  5711  0402                     u205_21:
  5712  0402  2C07               	goto	i1l2110
  5713  0403                     u205_20:
  5714  0403                     i1l2108:
  5715  0403  3080               	movlw	128
  5716  0404  00DC               	movwf	??___fladd
  5717  0405  085C               	movf	??___fladd,w
  5718  0406  06E4               	xorwf	___fladd@signs,f
  5719  0407                     i1l2110:
  5720  0407  0866               	movf	___fladd@bexp,w
  5721  0408  00DC               	movwf	??___fladd
  5722  0409  085C               	movf	??___fladd,w
  5723  040A  00E7               	movwf	___fladd@grs
  5724  040B                     i1l2112:
  5725  040B  0865               	movf	___fladd@aexp,w
  5726  040C  00DC               	movwf	??___fladd
  5727  040D  085C               	movf	??___fladd,w
  5728  040E  00E6               	movwf	___fladd@bexp
  5729  040F                     i1l2114:
  5730  040F  0867               	movf	___fladd@grs,w
  5731  0410  00DC               	movwf	??___fladd
  5732  0411  085C               	movf	??___fladd,w
  5733  0412  00E5               	movwf	___fladd@aexp
  5734  0413                     i1l2116:
  5735  0413  0854               	movf	___fladd@b,w
  5736  0414  00DC               	movwf	??___fladd
  5737  0415  085C               	movf	??___fladd,w
  5738  0416  00E7               	movwf	___fladd@grs
  5739  0417                     i1l2118:
  5740  0417  0858               	movf	___fladd@a,w
  5741  0418  00DC               	movwf	??___fladd
  5742  0419  085C               	movf	??___fladd,w
  5743  041A  00D4               	movwf	___fladd@b
  5744  041B                     i1l2120:
  5745  041B  0867               	movf	___fladd@grs,w
  5746  041C  00DC               	movwf	??___fladd
  5747  041D  085C               	movf	??___fladd,w
  5748  041E  00D8               	movwf	___fladd@a
  5749  041F                     i1l2122:
  5750  041F  0855               	movf	___fladd@b+1,w
  5751  0420  00DC               	movwf	??___fladd
  5752  0421  085C               	movf	??___fladd,w
  5753  0422  00E7               	movwf	___fladd@grs
  5754  0423                     i1l2124:
  5755  0423  0859               	movf	___fladd@a+1,w
  5756  0424  00DC               	movwf	??___fladd
  5757  0425  085C               	movf	??___fladd,w
  5758  0426  00D5               	movwf	___fladd@b+1
  5759  0427                     i1l2126:
  5760  0427  0867               	movf	___fladd@grs,w
  5761  0428  00DC               	movwf	??___fladd
  5762  0429  085C               	movf	??___fladd,w
  5763  042A  00D9               	movwf	___fladd@a+1
  5764  042B                     i1l2128:
  5765  042B  0856               	movf	___fladd@b+2,w
  5766  042C  00DC               	movwf	??___fladd
  5767  042D  085C               	movf	??___fladd,w
  5768  042E  00E7               	movwf	___fladd@grs
  5769  042F                     i1l2130:
  5770  042F  085A               	movf	___fladd@a+2,w
  5771  0430  00DC               	movwf	??___fladd
  5772  0431  085C               	movf	??___fladd,w
  5773  0432  00D6               	movwf	___fladd@b+2
  5774  0433                     i1l2132:
  5775  0433  0867               	movf	___fladd@grs,w
  5776  0434  00DC               	movwf	??___fladd
  5777  0435  085C               	movf	??___fladd,w
  5778  0436  00DA               	movwf	___fladd@a+2
  5779  0437                     i1l2134:
  5780  0437  0857               	movf	___fladd@b+3,w
  5781  0438  00DC               	movwf	??___fladd
  5782  0439  085C               	movf	??___fladd,w
  5783  043A  00E7               	movwf	___fladd@grs
  5784  043B                     i1l2136:
  5785  043B  085B               	movf	___fladd@a+3,w
  5786  043C  00DC               	movwf	??___fladd
  5787  043D  085C               	movf	??___fladd,w
  5788  043E  00D7               	movwf	___fladd@b+3
  5789  043F                     i1l2138:
  5790  043F  0867               	movf	___fladd@grs,w
  5791  0440  00DC               	movwf	??___fladd
  5792  0441  085C               	movf	??___fladd,w
  5793  0442  00DB               	movwf	___fladd@a+3
  5794  0443                     i1l2140:
  5795  0443  01E7               	clrf	___fladd@grs
  5796  0444                     i1l2142:
  5797  0444  0865               	movf	___fladd@aexp,w
  5798  0445  00DC               	movwf	??___fladd
  5799  0446  01DD               	clrf	??___fladd+1
  5800  0447  085D               	movf	??___fladd+1,w
  5801  0448  00DF               	movwf	??___fladd+3
  5802  0449  0866               	movf	___fladd@bexp,w
  5803  044A  025C               	subwf	??___fladd,w
  5804  044B  00DE               	movwf	??___fladd+2
  5805  044C  1C03               	skipc
  5806  044D  03DF               	decf	??___fladd+3,f
  5807  044E  085F               	movf	??___fladd+3,w
  5808  044F  3A80               	xorlw	128
  5809  0450  00FF               	movwf	btemp+1
  5810  0451  3080               	movlw	128
  5811  0452  027F               	subwf	btemp+1,w
  5812  0453  1D03               	skipz
  5813  0454  2C57               	goto	u206_25
  5814  0455  301A               	movlw	26
  5815  0456  025E               	subwf	??___fladd+2,w
  5816  0457                     u206_25:
  5817  0457  1C03               	skipc
  5818  0458  2C5A               	goto	u206_21
  5819  0459  2C5B               	goto	u206_20
  5820  045A                     u206_21:
  5821  045A  2C98               	goto	i1l2158
  5822  045B                     u206_20:
  5823  045B                     i1l2144:
  5824  045B  1283               	bcf	3,5	;RP0=0, select bank0
  5825  045C  1303               	bcf	3,6	;RP1=0, select bank0
  5826  045D  0857               	movf	___fladd@b+3,w
  5827  045E  0456               	iorwf	___fladd@b+2,w
  5828  045F  0455               	iorwf	___fladd@b+1,w
  5829  0460  0454               	iorwf	___fladd@b,w
  5830  0461  1D03               	skipz
  5831  0462  2C64               	goto	u207_21
  5832  0463  2C66               	goto	u207_20
  5833  0464                     u207_21:
  5834  0464  3001               	movlw	1
  5835  0465  2C67               	goto	u208_20
  5836  0466                     u207_20:
  5837  0466  3000               	movlw	0
  5838  0467                     u208_20:
  5839  0467  00DC               	movwf	??___fladd
  5840  0468  085C               	movf	??___fladd,w
  5841  0469  00E7               	movwf	___fladd@grs
  5842  046A  3000               	movlw	0
  5843  046B  00D7               	movwf	___fladd@b+3
  5844  046C  3000               	movlw	0
  5845  046D  00D6               	movwf	___fladd@b+2
  5846  046E  3000               	movlw	0
  5847  046F  00D5               	movwf	___fladd@b+1
  5848  0470  3000               	movlw	0
  5849  0471  00D4               	movwf	___fladd@b
  5850  0472  0865               	movf	___fladd@aexp,w
  5851  0473  00DC               	movwf	??___fladd
  5852  0474  085C               	movf	??___fladd,w
  5853  0475  00E6               	movwf	___fladd@bexp
  5854  0476  2CA0               	goto	i1l605
  5855  0477                     i1l607:
  5856  0477  1C67               	btfss	___fladd@grs,0
  5857  0478  2C7A               	goto	u209_21
  5858  0479  2C7B               	goto	u209_20
  5859  047A                     u209_21:
  5860  047A  2C84               	goto	i1l2148
  5861  047B                     u209_20:
  5862  047B                     i1l2146:
  5863  047B  0867               	movf	___fladd@grs,w
  5864  047C  00DC               	movwf	??___fladd
  5865  047D  1003               	clrc
  5866  047E  0C5C               	rrf	??___fladd,w
  5867  047F  3801               	iorlw	1
  5868  0480  00DD               	movwf	??___fladd+1
  5869  0481  085D               	movf	??___fladd+1,w
  5870  0482  00E7               	movwf	___fladd@grs
  5871  0483  2C86               	goto	i1l2150
  5872  0484                     i1l2148:
  5873  0484  1003               	clrc
  5874  0485  0CE7               	rrf	___fladd@grs,f
  5875  0486                     i1l2150:
  5876  0486  1C54               	btfss	___fladd@b,0
  5877  0487  2C89               	goto	u210_21
  5878  0488  2C8A               	goto	u210_20
  5879  0489                     u210_21:
  5880  0489  2C8B               	goto	i1l2154
  5881  048A                     u210_20:
  5882  048A                     i1l2152:
  5883  048A  17E7               	bsf	___fladd@grs,7
  5884  048B                     i1l2154:
  5885  048B  3001               	movlw	1
  5886  048C  00DC               	movwf	??___fladd
  5887  048D                     u211_25:
  5888  048D  0D57               	rlf	___fladd@b+3,w
  5889  048E  0CD7               	rrf	___fladd@b+3,f
  5890  048F  0CD6               	rrf	___fladd@b+2,f
  5891  0490  0CD5               	rrf	___fladd@b+1,f
  5892  0491  0CD4               	rrf	___fladd@b,f
  5893  0492  0BDC               	decfsz	??___fladd& (0+127),f
  5894  0493  2C8D               	goto	u211_25
  5895  0494                     i1l2156:
  5896  0494  3001               	movlw	1
  5897  0495  00DC               	movwf	??___fladd
  5898  0496  085C               	movf	??___fladd,w
  5899  0497  07E6               	addwf	___fladd@bexp,f
  5900  0498                     i1l2158:
  5901  0498  1283               	bcf	3,5	;RP0=0, select bank0
  5902  0499  1303               	bcf	3,6	;RP1=0, select bank0
  5903  049A  0865               	movf	___fladd@aexp,w
  5904  049B  0266               	subwf	___fladd@bexp,w
  5905  049C  1C03               	skipc
  5906  049D  2C9F               	goto	u212_21
  5907  049E  2CA0               	goto	u212_20
  5908  049F                     u212_21:
  5909  049F  2C77               	goto	i1l607
  5910  04A0                     u212_20:
  5911  04A0                     i1l605:
  5912  04A0  1B64               	btfsc	___fladd@signs,6
  5913  04A1  2CA3               	goto	u213_21
  5914  04A2  2CA4               	goto	u213_20
  5915  04A3                     u213_21:
  5916  04A3  2CEF               	goto	i1l2184
  5917  04A4                     u213_20:
  5918  04A4                     i1l2160:
  5919  04A4  0866               	movf	___fladd@bexp,w
  5920  04A5  1D03               	btfss	3,2
  5921  04A6  2CA8               	goto	u214_21
  5922  04A7  2CA9               	goto	u214_20
  5923  04A8                     u214_21:
  5924  04A8  2CB2               	goto	i1l2166
  5925  04A9                     u214_20:
  5926  04A9                     i1l2162:
  5927  04A9  3000               	movlw	0
  5928  04AA  00D7               	movwf	?___fladd+3
  5929  04AB  3000               	movlw	0
  5930  04AC  00D6               	movwf	?___fladd+2
  5931  04AD  3000               	movlw	0
  5932  04AE  00D5               	movwf	?___fladd+1
  5933  04AF  3000               	movlw	0
  5934  04B0  00D4               	movwf	?___fladd
  5935  04B1  2E1D               	goto	i1l614
  5936  04B2                     i1l2166:
  5937  04B2  0858               	movf	___fladd@a,w
  5938  04B3  07D4               	addwf	___fladd@b,f
  5939  04B4  0859               	movf	___fladd@a+1,w
  5940  04B5  1103               	clrz
  5941  04B6  1803               	skipnc
  5942  04B7  3E01               	addlw	1
  5943  04B8  1903               	skipnz
  5944  04B9  2CBB               	goto	u215_21
  5945  04BA  07D5               	addwf	___fladd@b+1,f
  5946  04BB                     u215_21:
  5947  04BB  085A               	movf	___fladd@a+2,w
  5948  04BC  1103               	clrz
  5949  04BD  1803               	skipnc
  5950  04BE  3E01               	addlw	1
  5951  04BF  1903               	skipnz
  5952  04C0  2CC2               	goto	u215_22
  5953  04C1  07D6               	addwf	___fladd@b+2,f
  5954  04C2                     u215_22:
  5955  04C2  085B               	movf	___fladd@a+3,w
  5956  04C3  1103               	clrz
  5957  04C4  1803               	skipnc
  5958  04C5  3E01               	addlw	1
  5959  04C6  1903               	skipnz
  5960  04C7  2CC9               	goto	u215_23
  5961  04C8  07D7               	addwf	___fladd@b+3,f
  5962  04C9                     u215_23:
  5963  04C9                     i1l2168:
  5964  04C9  1C57               	btfss	___fladd@b+3,0
  5965  04CA  2CCC               	goto	u216_21
  5966  04CB  2CCD               	goto	u216_20
  5967  04CC                     u216_21:
  5968  04CC  2DA3               	goto	i1l2218
  5969  04CD                     u216_20:
  5970  04CD                     i1l2170:
  5971  04CD  1C67               	btfss	___fladd@grs,0
  5972  04CE  2CD0               	goto	u217_21
  5973  04CF  2CD1               	goto	u217_20
  5974  04D0                     u217_21:
  5975  04D0  2CDA               	goto	i1l2174
  5976  04D1                     u217_20:
  5977  04D1                     i1l2172:
  5978  04D1  0867               	movf	___fladd@grs,w
  5979  04D2  00DC               	movwf	??___fladd
  5980  04D3  1003               	clrc
  5981  04D4  0C5C               	rrf	??___fladd,w
  5982  04D5  3801               	iorlw	1
  5983  04D6  00DD               	movwf	??___fladd+1
  5984  04D7  085D               	movf	??___fladd+1,w
  5985  04D8  00E7               	movwf	___fladd@grs
  5986  04D9  2CDC               	goto	i1l2176
  5987  04DA                     i1l2174:
  5988  04DA  1003               	clrc
  5989  04DB  0CE7               	rrf	___fladd@grs,f
  5990  04DC                     i1l2176:
  5991  04DC  1C54               	btfss	___fladd@b,0
  5992  04DD  2CDF               	goto	u218_21
  5993  04DE  2CE0               	goto	u218_20
  5994  04DF                     u218_21:
  5995  04DF  2CE1               	goto	i1l2180
  5996  04E0                     u218_20:
  5997  04E0                     i1l2178:
  5998  04E0  17E7               	bsf	___fladd@grs,7
  5999  04E1                     i1l2180:
  6000  04E1  3001               	movlw	1
  6001  04E2  00DC               	movwf	??___fladd
  6002  04E3                     u219_25:
  6003  04E3  0D57               	rlf	___fladd@b+3,w
  6004  04E4  0CD7               	rrf	___fladd@b+3,f
  6005  04E5  0CD6               	rrf	___fladd@b+2,f
  6006  04E6  0CD5               	rrf	___fladd@b+1,f
  6007  04E7  0CD4               	rrf	___fladd@b,f
  6008  04E8  0BDC               	decfsz	??___fladd& (0+127),f
  6009  04E9  2CE3               	goto	u219_25
  6010  04EA                     i1l2182:
  6011  04EA  3001               	movlw	1
  6012  04EB  00DC               	movwf	??___fladd
  6013  04EC  085C               	movf	??___fladd,w
  6014  04ED  07E6               	addwf	___fladd@bexp,f
  6015  04EE  2DA3               	goto	i1l2218
  6016  04EF                     i1l2184:
  6017  04EF  0857               	movf	___fladd@b+3,w
  6018  04F0  3A80               	xorlw	128
  6019  04F1  00FF               	movwf	btemp+1
  6020  04F2  085B               	movf	___fladd@a+3,w
  6021  04F3  3A80               	xorlw	128
  6022  04F4  027F               	subwf	btemp+1,w
  6023  04F5  1D03               	skipz
  6024  04F6  2D01               	goto	u220_23
  6025  04F7  085A               	movf	___fladd@a+2,w
  6026  04F8  0256               	subwf	___fladd@b+2,w
  6027  04F9  1D03               	skipz
  6028  04FA  2D01               	goto	u220_23
  6029  04FB  0859               	movf	___fladd@a+1,w
  6030  04FC  0255               	subwf	___fladd@b+1,w
  6031  04FD  1D03               	skipz
  6032  04FE  2D01               	goto	u220_23
  6033  04FF  0858               	movf	___fladd@a,w
  6034  0500  0254               	subwf	___fladd@b,w
  6035  0501                     u220_23:
  6036  0501  1803               	skipnc
  6037  0502  2D04               	goto	u220_21
  6038  0503  2D05               	goto	u220_20
  6039  0504                     u220_21:
  6040  0504  2D5D               	goto	i1l2194
  6041  0505                     u220_20:
  6042  0505                     i1l2186:
  6043  0505  30FF               	movlw	255
  6044  0506  00DC               	movwf	??___fladd
  6045  0507  30FF               	movlw	255
  6046  0508  00DD               	movwf	??___fladd+1
  6047  0509  30FF               	movlw	255
  6048  050A  00DE               	movwf	??___fladd+2
  6049  050B  30FF               	movlw	255
  6050  050C  00DF               	movwf	??___fladd+3
  6051  050D  0858               	movf	___fladd@a,w
  6052  050E  00E0               	movwf	??___fladd+4
  6053  050F  0859               	movf	___fladd@a+1,w
  6054  0510  00E1               	movwf	??___fladd+5
  6055  0511  085A               	movf	___fladd@a+2,w
  6056  0512  00E2               	movwf	??___fladd+6
  6057  0513  085B               	movf	___fladd@a+3,w
  6058  0514  00E3               	movwf	??___fladd+7
  6059  0515  0854               	movf	___fladd@b,w
  6060  0516  02E0               	subwf	??___fladd+4,f
  6061  0517  0855               	movf	___fladd@b+1,w
  6062  0518  1C03               	skipc
  6063  0519  0F55               	incfsz	___fladd@b+1,w
  6064  051A  2D1C               	goto	u221_21
  6065  051B  2D1D               	goto	u221_22
  6066  051C                     u221_21:
  6067  051C  02E1               	subwf	??___fladd+5,f
  6068  051D                     u221_22:
  6069  051D  0856               	movf	___fladd@b+2,w
  6070  051E  1C03               	skipc
  6071  051F  0F56               	incfsz	___fladd@b+2,w
  6072  0520  2D22               	goto	u221_23
  6073  0521  2D23               	goto	u221_24
  6074  0522                     u221_23:
  6075  0522  02E2               	subwf	??___fladd+6,f
  6076  0523                     u221_24:
  6077  0523  0857               	movf	___fladd@b+3,w
  6078  0524  1C03               	skipc
  6079  0525  0F57               	incfsz	___fladd@b+3,w
  6080  0526  2D28               	goto	u221_25
  6081  0527  2D29               	goto	u221_26
  6082  0528                     u221_25:
  6083  0528  02E3               	subwf	??___fladd+7,f
  6084  0529                     u221_26:
  6085  0529  0860               	movf	??___fladd+4,w
  6086  052A  07DC               	addwf	??___fladd,f
  6087  052B  0861               	movf	??___fladd+5,w
  6088  052C  1803               	skipnc
  6089  052D  0F61               	incfsz	??___fladd+5,w
  6090  052E  2D30               	goto	u222_20
  6091  052F  2D31               	goto	u222_21
  6092  0530                     u222_20:
  6093  0530  07DD               	addwf	??___fladd+1,f
  6094  0531                     u222_21:
  6095  0531  0862               	movf	??___fladd+6,w
  6096  0532  1803               	skipnc
  6097  0533  0F62               	incfsz	??___fladd+6,w
  6098  0534  2D36               	goto	u222_22
  6099  0535  2D37               	goto	u222_23
  6100  0536                     u222_22:
  6101  0536  07DE               	addwf	??___fladd+2,f
  6102  0537                     u222_23:
  6103  0537  0863               	movf	??___fladd+7,w
  6104  0538  1803               	skipnc
  6105  0539  0A63               	incf	??___fladd+7,w
  6106  053A  07DF               	addwf	??___fladd+3,f
  6107  053B  085F               	movf	??___fladd+3,w
  6108  053C  00D7               	movwf	___fladd@b+3
  6109  053D  085E               	movf	??___fladd+2,w
  6110  053E  00D6               	movwf	___fladd@b+2
  6111  053F  085D               	movf	??___fladd+1,w
  6112  0540  00D5               	movwf	___fladd@b+1
  6113  0541  085C               	movf	??___fladd,w
  6114  0542  00D4               	movwf	___fladd@b
  6115  0543                     i1l2188:
  6116  0543  3080               	movlw	128
  6117  0544  00DC               	movwf	??___fladd
  6118  0545  085C               	movf	??___fladd,w
  6119  0546  06E4               	xorwf	___fladd@signs,f
  6120  0547  09E7               	comf	___fladd@grs,f
  6121  0548  0AE7               	incf	___fladd@grs,f
  6122  0549                     i1l2190:
  6123  0549  0867               	movf	___fladd@grs,w
  6124  054A  1D03               	btfss	3,2
  6125  054B  2D4D               	goto	u223_21
  6126  054C  2D4E               	goto	u223_20
  6127  054D                     u223_21:
  6128  054D  2D6B               	goto	i1l622
  6129  054E                     u223_20:
  6130  054E                     i1l2192:
  6131  054E  3001               	movlw	1
  6132  054F  07D4               	addwf	___fladd@b,f
  6133  0550  3000               	movlw	0
  6134  0551  1803               	skipnc
  6135  0552  3001               	movlw	1
  6136  0553  07D5               	addwf	___fladd@b+1,f
  6137  0554  3000               	movlw	0
  6138  0555  1803               	skipnc
  6139  0556  3001               	movlw	1
  6140  0557  07D6               	addwf	___fladd@b+2,f
  6141  0558  3000               	movlw	0
  6142  0559  1803               	skipnc
  6143  055A  3001               	movlw	1
  6144  055B  07D7               	addwf	___fladd@b+3,f
  6145  055C  2D6B               	goto	i1l622
  6146  055D                     i1l2194:
  6147  055D  0858               	movf	___fladd@a,w
  6148  055E  02D4               	subwf	___fladd@b,f
  6149  055F  0859               	movf	___fladd@a+1,w
  6150  0560  1C03               	skipc
  6151  0561  0F59               	incfsz	___fladd@a+1,w
  6152  0562  02D5               	subwf	___fladd@b+1,f
  6153  0563  085A               	movf	___fladd@a+2,w
  6154  0564  1C03               	skipc
  6155  0565  0F5A               	incfsz	___fladd@a+2,w
  6156  0566  02D6               	subwf	___fladd@b+2,f
  6157  0567  085B               	movf	___fladd@a+3,w
  6158  0568  1C03               	skipc
  6159  0569  0F5B               	incfsz	___fladd@a+3,w
  6160  056A  02D7               	subwf	___fladd@b+3,f
  6161  056B                     i1l622:
  6162  056B  0857               	movf	___fladd@b+3,w
  6163  056C  0456               	iorwf	___fladd@b+2,w
  6164  056D  0455               	iorwf	___fladd@b+1,w
  6165  056E  0454               	iorwf	___fladd@b,w
  6166  056F  1D03               	skipz
  6167  0570  2D72               	goto	u224_21
  6168  0571  2D73               	goto	u224_20
  6169  0572                     u224_21:
  6170  0572  2D9F               	goto	i1l2216
  6171  0573                     u224_20:
  6172  0573                     i1l2196:
  6173  0573  0867               	movf	___fladd@grs,w
  6174  0574  1D03               	btfss	3,2
  6175  0575  2D77               	goto	u225_21
  6176  0576  2D78               	goto	u225_20
  6177  0577                     u225_21:
  6178  0577  2D9F               	goto	i1l2216
  6179  0578                     u225_20:
  6180  0578                     i1l2198:
  6181  0578  3000               	movlw	0
  6182  0579  00D7               	movwf	?___fladd+3
  6183  057A  3000               	movlw	0
  6184  057B  00D6               	movwf	?___fladd+2
  6185  057C  3000               	movlw	0
  6186  057D  00D5               	movwf	?___fladd+1
  6187  057E  3000               	movlw	0
  6188  057F  00D4               	movwf	?___fladd
  6189  0580  2E1D               	goto	i1l614
  6190  0581                     i1l2202:
  6191  0581  3001               	movlw	1
  6192  0582  00DC               	movwf	??___fladd
  6193  0583                     u226_25:
  6194  0583  1003               	clrc
  6195  0584  0DD4               	rlf	___fladd@b,f
  6196  0585  0DD5               	rlf	___fladd@b+1,f
  6197  0586  0DD6               	rlf	___fladd@b+2,f
  6198  0587  0DD7               	rlf	___fladd@b+3,f
  6199  0588  0BDC               	decfsz	??___fladd,f
  6200  0589  2D83               	goto	u226_25
  6201  058A                     i1l2204:
  6202  058A  1FE7               	btfss	___fladd@grs,7
  6203  058B  2D8D               	goto	u227_21
  6204  058C  2D8E               	goto	u227_20
  6205  058D                     u227_21:
  6206  058D  2D8F               	goto	i1l626
  6207  058E                     u227_20:
  6208  058E                     i1l2206:
  6209  058E  1454               	bsf	___fladd@b,0
  6210  058F                     i1l626:
  6211  058F  1C67               	btfss	___fladd@grs,0
  6212  0590  2D92               	goto	u228_21
  6213  0591  2D93               	goto	u228_20
  6214  0592                     u228_21:
  6215  0592  2D96               	goto	i1l2210
  6216  0593                     u228_20:
  6217  0593                     i1l2208:
  6218  0593  1403               	setc
  6219  0594  0DE7               	rlf	___fladd@grs,f
  6220  0595  2D98               	goto	i1l2212
  6221  0596                     i1l2210:
  6222  0596  1003               	clrc
  6223  0597  0DE7               	rlf	___fladd@grs,f
  6224  0598                     i1l2212:
  6225  0598  0866               	movf	___fladd@bexp,w
  6226  0599  1903               	btfsc	3,2
  6227  059A  2D9C               	goto	u229_21
  6228  059B  2D9D               	goto	u229_20
  6229  059C                     u229_21:
  6230  059C  2D9F               	goto	i1l2216
  6231  059D                     u229_20:
  6232  059D                     i1l2214:
  6233  059D  3001               	movlw	1
  6234  059E  02E6               	subwf	___fladd@bexp,f
  6235  059F                     i1l2216:
  6236  059F  1FD6               	btfss	___fladd@b+2,7
  6237  05A0  2DA2               	goto	u230_21
  6238  05A1  2DA3               	goto	u230_20
  6239  05A2                     u230_21:
  6240  05A2  2D81               	goto	i1l2202
  6241  05A3                     u230_20:
  6242  05A3                     i1l2218:
  6243  05A3  01E5               	clrf	___fladd@aexp
  6244  05A4                     i1l2220:
  6245  05A4  1FE7               	btfss	___fladd@grs,7
  6246  05A5  2DA7               	goto	u231_21
  6247  05A6  2DA8               	goto	u231_20
  6248  05A7                     u231_21:
  6249  05A7  2DB6               	goto	i1l2228
  6250  05A8                     u231_20:
  6251  05A8                     i1l2222:
  6252  05A8  0867               	movf	___fladd@grs,w
  6253  05A9  397F               	andlw	127
  6254  05AA  1903               	btfsc	3,2
  6255  05AB  2DAD               	goto	u232_21
  6256  05AC  2DAE               	goto	u232_20
  6257  05AD                     u232_21:
  6258  05AD  2DB1               	goto	i1l632
  6259  05AE                     u232_20:
  6260  05AE                     i1l2224:
  6261  05AE  01E5               	clrf	___fladd@aexp
  6262  05AF  0AE5               	incf	___fladd@aexp,f
  6263  05B0  2DB6               	goto	i1l2228
  6264  05B1                     i1l632:
  6265  05B1  1C54               	btfss	___fladd@b,0
  6266  05B2  2DB4               	goto	u233_21
  6267  05B3  2DB5               	goto	u233_20
  6268  05B4                     u233_21:
  6269  05B4  2DB6               	goto	i1l2228
  6270  05B5                     u233_20:
  6271  05B5  2DAE               	goto	i1l2224
  6272  05B6                     i1l2228:
  6273  05B6  0865               	movf	___fladd@aexp,w
  6274  05B7  1903               	btfsc	3,2
  6275  05B8  2DBA               	goto	u234_21
  6276  05B9  2DBB               	goto	u234_20
  6277  05BA                     u234_21:
  6278  05BA  2DEF               	goto	i1l635
  6279  05BB                     u234_20:
  6280  05BB                     i1l2230:
  6281  05BB  3001               	movlw	1
  6282  05BC  07D4               	addwf	___fladd@b,f
  6283  05BD  3000               	movlw	0
  6284  05BE  1803               	skipnc
  6285  05BF  3001               	movlw	1
  6286  05C0  07D5               	addwf	___fladd@b+1,f
  6287  05C1  3000               	movlw	0
  6288  05C2  1803               	skipnc
  6289  05C3  3001               	movlw	1
  6290  05C4  07D6               	addwf	___fladd@b+2,f
  6291  05C5  3000               	movlw	0
  6292  05C6  1803               	skipnc
  6293  05C7  3001               	movlw	1
  6294  05C8  07D7               	addwf	___fladd@b+3,f
  6295  05C9                     i1l2232:
  6296  05C9  1C57               	btfss	___fladd@b+3,0
  6297  05CA  2DCC               	goto	u235_21
  6298  05CB  2DCD               	goto	u235_20
  6299  05CC                     u235_21:
  6300  05CC  2DEF               	goto	i1l635
  6301  05CD                     u235_20:
  6302  05CD                     i1l2234:
  6303  05CD  0854               	movf	___fladd@b,w
  6304  05CE  00DC               	movwf	??___fladd
  6305  05CF  0855               	movf	___fladd@b+1,w
  6306  05D0  00DD               	movwf	??___fladd+1
  6307  05D1  0856               	movf	___fladd@b+2,w
  6308  05D2  00DE               	movwf	??___fladd+2
  6309  05D3  0857               	movf	___fladd@b+3,w
  6310  05D4  00DF               	movwf	??___fladd+3
  6311  05D5  3001               	movlw	1
  6312  05D6  00E0               	movwf	??___fladd+4
  6313  05D7                     u236_25:
  6314  05D7  0D5F               	rlf	??___fladd+3,w
  6315  05D8  0CDF               	rrf	??___fladd+3,f
  6316  05D9  0CDE               	rrf	??___fladd+2,f
  6317  05DA  0CDD               	rrf	??___fladd+1,f
  6318  05DB  0CDC               	rrf	??___fladd,f
  6319  05DC                     u236_20:
  6320  05DC  0BE0               	decfsz	??___fladd+4,f
  6321  05DD  2DD7               	goto	u236_25
  6322  05DE  085F               	movf	??___fladd+3,w
  6323  05DF  00D7               	movwf	___fladd@b+3
  6324  05E0  085E               	movf	??___fladd+2,w
  6325  05E1  00D6               	movwf	___fladd@b+2
  6326  05E2  085D               	movf	??___fladd+1,w
  6327  05E3  00D5               	movwf	___fladd@b+1
  6328  05E4  085C               	movf	??___fladd,w
  6329  05E5  00D4               	movwf	___fladd@b
  6330  05E6  0A66               	incf	___fladd@bexp,w
  6331  05E7  1903               	btfsc	3,2
  6332  05E8  2DEA               	goto	u237_21
  6333  05E9  2DEB               	goto	u237_20
  6334  05EA                     u237_21:
  6335  05EA  2DEF               	goto	i1l635
  6336  05EB                     u237_20:
  6337  05EB                     i1l2236:
  6338  05EB  3001               	movlw	1
  6339  05EC  00DC               	movwf	??___fladd
  6340  05ED  085C               	movf	??___fladd,w
  6341  05EE  07E6               	addwf	___fladd@bexp,f
  6342  05EF                     i1l635:
  6343  05EF  0A66               	incf	___fladd@bexp,w
  6344  05F0  1903               	btfsc	3,2
  6345  05F1  2DF3               	goto	u238_21
  6346  05F2  2DF4               	goto	u238_20
  6347  05F3                     u238_21:
  6348  05F3  2DF9               	goto	i1l2240
  6349  05F4                     u238_20:
  6350  05F4                     i1l2238:
  6351  05F4  0866               	movf	___fladd@bexp,w
  6352  05F5  1D03               	btfss	3,2
  6353  05F6  2DF8               	goto	u239_21
  6354  05F7  2DF9               	goto	u239_20
  6355  05F8                     u239_21:
  6356  05F8  2E07               	goto	i1l2246
  6357  05F9                     u239_20:
  6358  05F9                     i1l2240:
  6359  05F9  3000               	movlw	0
  6360  05FA  00D7               	movwf	___fladd@b+3
  6361  05FB  3000               	movlw	0
  6362  05FC  00D6               	movwf	___fladd@b+2
  6363  05FD  3000               	movlw	0
  6364  05FE  00D5               	movwf	___fladd@b+1
  6365  05FF  3000               	movlw	0
  6366  0600  00D4               	movwf	___fladd@b
  6367  0601                     i1l2242:
  6368  0601  0866               	movf	___fladd@bexp,w
  6369  0602  1D03               	btfss	3,2
  6370  0603  2E05               	goto	u240_21
  6371  0604  2E06               	goto	u240_20
  6372  0605                     u240_21:
  6373  0605  2E07               	goto	i1l2246
  6374  0606                     u240_20:
  6375  0606                     i1l2244:
  6376  0606  01E4               	clrf	___fladd@signs
  6377  0607                     i1l2246:
  6378  0607  1C66               	btfss	___fladd@bexp,0
  6379  0608  2E0A               	goto	u241_21
  6380  0609  2E0B               	goto	u241_20
  6381  060A                     u241_21:
  6382  060A  2E0D               	goto	i1l2250
  6383  060B                     u241_20:
  6384  060B                     i1l2248:
  6385  060B  17D6               	bsf	___fladd@b+2,7
  6386  060C  2E11               	goto	i1l643
  6387  060D                     i1l2250:
  6388  060D  307F               	movlw	127
  6389  060E  00DC               	movwf	??___fladd
  6390  060F  085C               	movf	??___fladd,w
  6391  0610  05D6               	andwf	___fladd@b+2,f
  6392  0611                     i1l643:
  6393  0611  0866               	movf	___fladd@bexp,w
  6394  0612  00DC               	movwf	??___fladd
  6395  0613  1003               	clrc
  6396  0614  0C5C               	rrf	??___fladd,w
  6397  0615  00DD               	movwf	??___fladd+1
  6398  0616  085D               	movf	??___fladd+1,w
  6399  0617  00D7               	movwf	___fladd@b+3
  6400  0618                     i1l2252:
  6401  0618  1FE4               	btfss	___fladd@signs,7
  6402  0619  2E1B               	goto	u242_21
  6403  061A  2E1C               	goto	u242_20
  6404  061B                     u242_21:
  6405  061B  2E1D               	goto	i1l644
  6406  061C                     u242_20:
  6407  061C                     i1l2254:
  6408  061C  17D7               	bsf	___fladd@b+3,7
  6409  061D                     i1l644:
  6410  061D                     i1l614:
  6411  061D  0008               	return
  6412  061E                     __end_of___fladd:
  6413                           
  6414                           	psect	text20
  6415  0A11                     __ptext20:	
  6416 ;; *************** function _adc_read *****************
  6417 ;; Defined at:
  6418 ;;		line 66 in file "adc.c"
  6419 ;; Parameters:    Size  Location     Type
  6420 ;;		None
  6421 ;; Auto vars:     Size  Location     Type
  6422 ;;		None
  6423 ;; Return value:  Size  Location     Type
  6424 ;;                  2    0[COMMON] unsigned int 
  6425 ;; Registers used:
  6426 ;;		wreg
  6427 ;; Tracked objects:
  6428 ;;		On entry : 0/0
  6429 ;;		On exit  : 0/0
  6430 ;;		Unchanged: 0/0
  6431 ;; Data sizes:     COMMON   BANK0   BANK1   BANK3   BANK2
  6432 ;;      Params:         2       0       0       0       0
  6433 ;;      Locals:         0       0       0       0       0
  6434 ;;      Temps:          0       0       0       0       0
  6435 ;;      Totals:         2       0       0       0       0
  6436 ;;Total ram usage:        2 bytes
  6437 ;; Hardware stack levels used: 1
  6438 ;; This function calls:
  6439 ;;		Nothing
  6440 ;; This function is called by:
  6441 ;;		_slave
  6442 ;; This function uses a non-reentrant model
  6443 ;;
  6444                           
  6445  0A11                     _adc_read:	
  6446                           ;psect for function _adc_read
  6447                           
  6448  0A11                     i1l2582:	
  6449                           ;incstack = 0
  6450                           ; Regs used in _adc_read: [wreg]
  6451                           
  6452                           
  6453                           ;adc.c: 67:     PIR1bits.ADIF = 0;
  6454  0A11  1283               	bcf	3,5	;RP0=0, select bank0
  6455  0A12  1303               	bcf	3,6	;RP1=0, select bank0
  6456  0A13  130C               	bcf	12,6	;volatile
  6457  0A14                     i1l2584:
  6458                           
  6459                           ;adc.c: 68:     return ((ADRESH << 8) + ADRESL);
  6460  0A14  081E               	movf	30,w	;volatile
  6461  0A15  00F1               	movwf	?_adc_read+1
  6462  0A16  1683               	bsf	3,5	;RP0=1, select bank1
  6463  0A17  1303               	bcf	3,6	;RP1=0, select bank1
  6464  0A18  081E               	movf	30,w	;volatile
  6465  0A19  00F0               	movwf	?_adc_read
  6466  0A1A                     i1l170:
  6467  0A1A  0008               	return
  6468  0A1B                     __end_of_adc_read:
  6469  007E                     btemp	set	126	;btemp
  6470  007E                     wtemp0	set	126
  6471                           
  6472                           	psect	idloc
  6473                           
  6474                           ;Config register IDLOC0 @ 0x2000
  6475                           ;	unspecified, using default values
  6476  2000                     	org	8192
  6477  2000  3FFF               	dw	16383
  6478                           
  6479                           ;Config register IDLOC1 @ 0x2001
  6480                           ;	unspecified, using default values
  6481  2001                     	org	8193
  6482  2001  3FFF               	dw	16383
  6483                           
  6484                           ;Config register IDLOC2 @ 0x2002
  6485                           ;	unspecified, using default values
  6486  2002                     	org	8194
  6487  2002  3FFF               	dw	16383
  6488                           
  6489                           ;Config register IDLOC3 @ 0x2003
  6490                           ;	unspecified, using default values
  6491  2003                     	org	8195
  6492  2003  3FFF               	dw	16383
  6493                           
  6494                           	psect	config
  6495                           
  6496                           ;Config register CONFIG1 @ 0x2007
  6497                           ;	Oscillator Selection bits
  6498                           ;	FOSC = INTRC_NOCLKOUT, INTOSCIO oscillator: I/O function on RA6/OSC2/CLKOUT pin, I/O f
      +                          unction on RA7/OSC1/CLKIN
  6499                           ;	Watchdog Timer Enable bit
  6500                           ;	WDTE = OFF, WDT disabled and can be enabled by SWDTEN bit of the WDTCON register
  6501                           ;	Power-up Timer Enable bit
  6502                           ;	PWRTE = OFF, PWRT disabled
  6503                           ;	RE3/MCLR pin function select bit
  6504                           ;	MCLRE = OFF, RE3/MCLR pin function is digital input, MCLR internally tied to VDD
  6505                           ;	Code Protection bit
  6506                           ;	CP = OFF, Program memory code protection is disabled
  6507                           ;	Data Code Protection bit
  6508                           ;	CPD = OFF, Data memory code protection is disabled
  6509                           ;	Brown Out Reset Selection bits
  6510                           ;	BOREN = OFF, BOR disabled
  6511                           ;	Internal External Switchover bit
  6512                           ;	IESO = OFF, Internal/External Switchover mode is disabled
  6513                           ;	Fail-Safe Clock Monitor Enabled bit
  6514                           ;	FCMEN = OFF, Fail-Safe Clock Monitor is disabled
  6515                           ;	Low Voltage Programming Enable bit
  6516                           ;	LVP = OFF, RB3 pin has digital I/O, HV on MCLR must be used for programming
  6517                           ;	In-Circuit Debugger Mode bit
  6518                           ;	DEBUG = 0x1, unprogrammed default
  6519  2007                     	org	8199
  6520  2007  20D4               	dw	8404
  6521                           
  6522                           ;Config register CONFIG2 @ 0x2008
  6523                           ;	Brown-out Reset Selection bit
  6524                           ;	BOR4V = BOR21V, Brown-out Reset set to 2.1V
  6525                           ;	Flash Program Memory Self Write Enable bits
  6526                           ;	WRT = OFF, Write protection off
  6527  2008                     	org	8200
  6528  2008  3EFF               	dw	16127

Data Sizes:
    Strings     0
    Constant    0
    Data        4
    BSS         4
    Persistent  0
    Stack       0

Auto Spaces:
    Space          Size  Autos    Used
    COMMON           14     14      14
    BANK0            80     78      78
    BANK1            80     48      56
    BANK3            96      0       0
    BANK2            96      0       0

Pointer List with Targets:

    None.

Critical Paths under _main in COMMON

    None.

Critical Paths under _slave in COMMON

    _map->___xxtofl
    ___fltol->___xxtofl
    ___flmul->___xxtofl
    ___fldiv->___xxtofl
    ___fladd->___xxtofl

Critical Paths under _main in BANK0

    None.

Critical Paths under _slave in BANK0

    _map->___fltol
    ___fltol->___fladd
    ___flmul->___fldiv
    ___fladd->___flmul

Critical Paths under _main in BANK1

    _setup->_USART_set
    _USART_set->___lldiv
    _servo->_pwm_duty_cycle
    _motor_dc->_USART_send

Critical Paths under _slave in BANK1

    _slave->_map
    _map->___fltol

Critical Paths under _main in BANK3

    None.

Critical Paths under _slave in BANK3

    None.

Critical Paths under _main in BANK2

    None.

Critical Paths under _slave in BANK2

    None.

Call Graph Tables:

 ---------------------------------------------------------------------------------
 (Depth) Function   	        Calls       Base Space   Used Autos Params    Refs
 ---------------------------------------------------------------------------------
 (0) _main                                                 0     0      0    1286
                      _adc_ch_switch
                           _motor_dc
                              _servo
                              _setup
 ---------------------------------------------------------------------------------
 (1) _setup                                                0     0      0     696
                          _USART_set
                           _adc_init
                        _int_osc_MHz
                           _pwm_init
 ---------------------------------------------------------------------------------
 (2) _pwm_init                                             3     3      0      22
                                             18 BANK1      3     3      0
 ---------------------------------------------------------------------------------
 (2) _int_osc_MHz                                          3     3      0      22
                                             18 BANK1      3     3      0
 ---------------------------------------------------------------------------------
 (2) _adc_init                                             5     3      2     218
                                             18 BANK1      5     3      2
 ---------------------------------------------------------------------------------
 (2) _USART_set                                           16    12      4     434
                                             32 BANK1     16    12      4
                            ___lldiv
 ---------------------------------------------------------------------------------
 (3) ___lldiv                                             14     6      8     314
                                             18 BANK1     14     6      8
 ---------------------------------------------------------------------------------
 (1) _servo                                                2     0      2     382
                                             22 BANK1      2     0      2
                         _USART_send
                     _pwm_duty_cycle
 ---------------------------------------------------------------------------------
 (2) _pwm_duty_cycle                                       4     2      2     196
                                             18 BANK1      4     2      2
 ---------------------------------------------------------------------------------
 (1) _motor_dc                                             2     0      2     186
                                             19 BANK1      2     0      2
                         _USART_send
 ---------------------------------------------------------------------------------
 (2) _USART_send                                           1     1      0      22
                                             18 BANK1      1     1      0
 ---------------------------------------------------------------------------------
 (1) _adc_ch_switch                                        3     3      0      22
                                             18 BANK1      3     3      0
 ---------------------------------------------------------------------------------
 Estimated maximum stack depth 3
 ---------------------------------------------------------------------------------
 (Depth) Function   	        Calls       Base Space   Used Autos Params    Refs
 ---------------------------------------------------------------------------------
 (4) _slave                                                4     4      0    7417
                                             14 BANK1      4     4      0
                           _adc_read
                                _map
 ---------------------------------------------------------------------------------
 (5) _map                                                  9     0      9    7417
                                              5 BANK1      9     0      9
                            ___fladd
                            ___fldiv
                            ___flmul
                            ___fltol
                           ___xxtofl
                           _adc_read (ARG)
 ---------------------------------------------------------------------------------
 (6) ___xxtofl                                            14    10      4     626
                                              0 COMMON    14    10      4
 ---------------------------------------------------------------------------------
 (6) ___fltol                                             11     7      4     305
                                             72 BANK0      6     2      4
                                              0 BANK1      5     5      0
                            ___fladd (ARG)
                            ___fldiv (ARG)
                            ___flmul (ARG)
                           ___xxtofl (ARG)
 ---------------------------------------------------------------------------------
 (6) ___flmul                                             26    18      8    2417
                                             26 BANK0     26    18      8
                          __Umul8_16
                            ___fldiv (ARG)
                           ___xxtofl (ARG)
 ---------------------------------------------------------------------------------
 (7) __Umul8_16                                            9     7      2     799
                                              0 COMMON     9     7      2
 ---------------------------------------------------------------------------------
 (6) ___fldiv                                             26    18      8    1273
                                              0 BANK0     26    18      8
                           ___xxtofl (ARG)
 ---------------------------------------------------------------------------------
 (6) ___fladd                                             20    12      8    2262
                                             52 BANK0     20    12      8
                            ___fldiv (ARG)
                            ___flmul (ARG)
                           ___xxtofl (ARG)
 ---------------------------------------------------------------------------------
 (5) _adc_read                                             2     0      2       0
                                              0 COMMON     2     0      2
 ---------------------------------------------------------------------------------
 Estimated maximum stack depth 7
 ---------------------------------------------------------------------------------

 Call Graph Graphs:

 _main (ROOT)
   _adc_ch_switch
   _motor_dc
     _USART_send
   _servo
     _USART_send
     _pwm_duty_cycle
   _setup
     _USART_set
       ___lldiv
     _adc_init
     _int_osc_MHz
     _pwm_init

 _slave (ROOT)
   _adc_read
   _map
     ___fladd
       ___fldiv (ARG)
         ___xxtofl (ARG)
       ___flmul (ARG)
         __Umul8_16
         ___fldiv (ARG)
         ___xxtofl (ARG)
       ___xxtofl (ARG)
     ___fldiv
     ___flmul
     ___fltol
       ___fladd (ARG)
       ___fldiv (ARG)
       ___flmul (ARG)
       ___xxtofl (ARG)
     ___xxtofl
     _adc_read (ARG)

 Address spaces:
Name               Size   Autos  Total    Cost      Usage
BANK3               60      0       0       9        0.0%
BITBANK3            60      0       0       8        0.0%
SFR3                 0      0       0       4        0.0%
BITSFR3              0      0       0       4        0.0%
BANK2               60      0       0      11        0.0%
BITBANK2            60      0       0      10        0.0%
SFR2                 0      0       0       5        0.0%
BITSFR2              0      0       0       5        0.0%
BANK1               50     30      38       7       70.0%
BITBANK1            50      0       0       6        0.0%
SFR1                 0      0       0       2        0.0%
BITSFR1              0      0       0       2        0.0%
BANK0               50     4E      4E       5       97.5%
BITBANK0            50      0       0       4        0.0%
SFR0                 0      0       0       1        0.0%
BITSFR0              0      0       0       1        0.0%
COMMON               E      E       E       1      100.0%
BITCOMMON            E      0       0       0        0.0%
CODE                 0      0       0       0        0.0%
DATA                 0      0      94      12        0.0%
ABS                  0      0      94       3        0.0%
NULL                 0      0       0       0        0.0%
STACK                0      0       0       2        0.0%
EEDATA             100      0       0       0        0.0%


Microchip Technology PIC Macro Assembler V2.35 build 20211206165544 
Symbol Table                                                                                   Wed Sep 14 16:41:35 2022

            ___fldiv@aexp 0039              ___fldiv@bexp 0038              ___fldiv@sign 0031  
                      l81 0AC2                        l90 0BAF                        l69 0A4E  
                      l78 0AA8                        l87 0B2F                        l97 0AF4  
     __Umul8_16@word_mpld 0076                       l102 0AF5                       l120 0A1E  
                     l123 0A26                       l212 0B34                       l117 0CD7  
                     l222 0A48                       l214 0B3F                       l160 0D3F  
                     l216 0B63                       l161 0D2B                       l162 0D2D  
                     l154 0D11                       l218 0B67                       l163 0D49  
                     l219 0B6B                       l156 0D13                       l157 0D15  
                     l182 0EE2                       l190 0F45                       l174 0E93  
                     l159 0D29                       l344 0C6E                       l177 0EA6  
                     _PR2 0092                       _map 0DE6              ___flmul@aexp 004C  
            ___flmul@bexp 004D              ___flmul@sign 0047              ___flmul@temp 0052  
            ___flmul@prod 004E              ___fltol@exp1 006D                      l2002 0D17  
                    l2006 0D2F     adc_ch_switch@channels 00B4                      l2600 0B7A  
                    l2610 0B87                      l2602 0B7B                      l2700 0AFE  
                    l2620 0BA9                      l2612 0B89                      l2604 0B7E  
                    l2630 0E92                      l2702 0B08                      l2622 0BAA  
                    l2614 0B8F                      l2606 0B81                      l2640 0EB7  
                    l2632 0E99                      l1912 0A1E                      l2704 0B11  
                    l1920 0AC7                      l2624 0BAB                      l2616 0B9E  
                    l2608 0B84                      l2650 0ED7                      l2642 0EBD  
                    l2634 0E9B                      l1914 0A22                      l2706 0B1D  
                    l1922 0ACC                      l2626 0BAE                      l2618 0BA8  
                    l2660 0F01                      l2652 0EDE                      l2644 0EC5  
                    l2636 0EA2                      l1916 0A27                      l2708 0B21  
                    l1924 0AD1                      l1932 0ADE                      l1940 0B33  
                    l2732 0A49                      l2662 0F0E                      l2654 0EE8  
                    l2646 0ED2                      l2638 0EAC                      l1926 0AD6  
                    l1918 0AC6                      l1950 0B43                      l1942 0B35  
                    l2734 0A54                      l2672 0F27                      l2656 0EF3  
                    l1880 0C29                      l1928 0AD9                      l1960 0B5F  
                    l1944 0B38                      l2592 0B6C                      l2736 0A5F  
                    l2674 0F2E                      l2666 0F15                      l2658 0EF9  
                    l2690 0AAB                      l1890 0C57                      l1882 0C2D  
                    l1874 0C07                      l1970 0C6F                      l2930 0D03  
                    l1962 0B62                      l1946 0B3A                      l1954 0B48  
                    l2594 0B72                      l2668 0F22                      l2692 0AB7  
                    l1892 0C60                      l1884 0C36                      l1876 0C19  
                    l1980 0CD3                      l1972 0C75                      l2932 0D21  
                    l1948 0B40                      l1956 0B58                      l2596 0B76  
                    l2678 0F32                      l2694 0ABB                      l2686 0A95  
                    l1886 0C48                      l1878 0C1C                      l1894 0C66  
                    l1982 0CD6                      l1974 0C78                      l2934 0D37  
                    l1990 0CE8                      l1958 0B5B                      l2926 0B50  
                    l2598 0B77                      ?_map 00A5                      l2936 0F3A  
                    l2688 0AA4                      l1888 0C56                      l1976 0CCF  
                    l1992 0CEF                      l1984 0CDB                      l2928 0AE6  
                    l2698 0AF6                      l1978 0CD0                      l1994 0CF4  
                    l1986 0CDC                      l1988 0CE1                      l1998 0CFB  
                    u3300 0F22                      u3301 0F21                      u3230 0E99  
                    u3310 0AA4                      u3231 0E98                      u3311 0AA3  
                    u3240 0EAC                      u3320 0AB7                      u1720 0C19  
                    u3241 0EAB                      u3321 0AB6                      u1721 0C18  
                    u3250 0EB7                      u3330 0AFE                      u3251 0EB6  
                    u3315 0AA0                      u3331 0AFD                      u3260 0ED2  
                    u1820 0A22                      u3340 0B1D                      u1740 0C2D  
                    u3261 0ED1                      u1821 0A21                      u3325 0AB3  
                    u3341 0B1C                      u1741 0C2C                      u3270 0EE8  
                    u3350 0B28                      u1830 0B67                      u3271 0EE7  
                    u3351 0B26                      u1735 0C1E                      u1831 0B66  
                    u3280 0EF3                      u3360 0B29                      u1760 0C48  
                    u1840 0C86                      u3281 0EF2                      u3345 0B19  
                    u1761 0C47                      u3290 0F0E                      u1850 0C9F  
                    u3291 0F0D                      u3427 0E9F                      u1755 0C2F  
                    u1780 0C66                      u3437 0EC1                      u1781 0C65  
                    u1765 0C44                      u1861 0CB1                      u1845 0C81  
                    u1862 0CB2                      u3447 0EDB                      u1775 0C58  
                    u1863 0CB7                      u1855 0C9A                      u1864 0CB8  
                    u3457 0EFD                      u1865 0CBD                      u1866 0CBE  
                    u3467 0F2B                      i1l64 0BFC                      i1l75 0E8E  
                    _main 0A49                      map@x 00A5                      btemp 007E  
                    start 0010           ___fldiv@new_exp 0032            _pwm_duty_cycle 0A27  
                   ??_map 007E             ___fltol@sign1 006C           __end_of___fladd 061E  
                   ?_main 0070           __end_of___fldiv 07FB           __end_of___flmul 0396  
         __end_of___fltol 0DE6                     _ANSEL 0188           __end_of___lldiv 0C6F  
                   i1l170 0A1A                     i1l501 0DD0                     i1l504 0DE5  
                   i1l601 03F9                     i1l605 04A0                     i1l622 056B  
                   i1l614 061D                     i1l607 0477                     i1l703 0301  
                   i1l632 05B1                     i1l626 058F                     i1l643 0611  
                   i1l635 05EF                     i1l644 061D                     i1l716 0A82  
                   i1l709 0389                     i1l741 0F68                     i1l718 0A94  
                   i1l494 0DE5                     i1l743 0FFF                     i1l681 07EE  
                   i1l673 076C                     i1l657 067A                     i1l754 0FC9  
                   i1l659 07FA                     i1l755 0FD5                     i1l747 0FAD  
                   i1l679 07DE                     i1l697 0395                     _SPBRG 0099  
                   _TXREG 0019        adc_init@vref_minus 00B3           int_osc_MHz@freq 00B4  
                   _slave 0BB0                     map@x0 00A7                     map@x1 00A8  
                   map@y0 00AA                     map@y1 00AC                     _servo 0AF6  
                   _setup 0B6C              ?_int_osc_MHz 0070                     pclath 000A  
                   status 0003                     wtemp0 007E    __end_of_pwm_duty_cycle 0A49  
         __initialization 0013               ?_USART_send 0070              __end_of_main 0A6E  
            _switch_servo 00D2                    ??_main 00D0             _adc_ch_switch 0E8F  
                  _ADRESH 001E                    _ADRESL 009E                    _CCPR1L 0015  
                  ?_slave 0070                    ?_servo 00B6                    ?_setup 0070  
                  _ANSELH 0189          __end_of_adc_init 0D4A          __end_of_adc_read 0A1B  
                  i1l2100 03EE                    i1l2110 0407                    i1l2102 03EF  
                  i1l2120 041B                    i1l2112 040B                    i1l2104 03F1  
                  i1l2040 0D94                    i1l2032 0D64                    i1l2210 0596  
                  i1l2202 0581                    i1l2130 042F                    i1l2122 041F  
                  i1l2114 040F                    i1l2106 03FF                    i1l2042 0D98  
                  i1l2050 0DB6                    i1l2034 0D89                    i1l2026 0D4A  
                  i1l2220 05A4                    i1l2212 0598                    i1l2204 058A  
                  i1l2132 0433                    i1l2124 0423                    i1l2116 0413  
                  i1l2108 0403                    i1l2140 0443                    i1l2300 0692  
                  i1l2060 0DDA                    i1l2036 0D8A                    i1l2028 0D5B  
                  i1l2230 05BB                    i1l2222 05A8                    i1l2214 059D  
                  i1l2206 058E                    i1l2150 0486                    i1l2142 0444  
                  i1l2134 0437                    i1l2126 0427                    i1l2118 0417  
                  i1l2070 03A8                    i1l2062 0396                    i1l2310 06A9  
                  i1l2038 0D92                    i1l2240 05F9                    i1l2232 05C9  
                  i1l2224 05AE                    i1l2208 0593                    i1l2216 059F  
                  i1l2160 04A4                    i1l2152 048A                    i1l2144 045B  
                  i1l2136 043B                    i1l2128 042B                    u200_20 03D0  
                  i1l2072 03AD                    i1l2080 03BD                    i1l2064 039D  
                  i1l2320 06D5                    i1l2312 06BB                    i1l2304 069B  
                  i1l2400 003C                    i1l2056 0DBD                    i1l2048 0DA0  
                  u200_21 03CF                    i1l2250 060D                    i1l2242 0601  
                  i1l2234 05CD                    i1l2170 04CD                    i1l2218 05A3  
                  i1l2162 04A9                    i1l2154 048B                    i1l2146 047B  
                  i1l2138 043F                    i1l2090 03D7                    i1l2082 03C5  
                  i1l2074 03B2                    i1l2066 03A3                    i1l2322 06DA  
                  i1l2330 06FA                    i1l2314 06C3                    i1l2306 06A0  
                  i1l2410 0051                    i1l2402 0042                    i1l2058 0DD5  
                  i1l2252 0618                    i1l2244 0606                    i1l2236 05EB  
                  i1l2228 05B6                    i1l2180 04E1                    i1l2172 04D1  
                  i1l2156 0494                    i1l2148 0484                    i1l2092 03DB  
                  i1l2084 03CA                    i1l2076 03BA                    i1l2068 03A7  
                  i1l2340 0725                    i1l2332 070C                    i1l2324 06EC  
                  i1l2316 06CB                    i1l2260 062B                    i1l2500 02EA  
                  i1l2420 006E                    i1l2412 0059                    i1l2404 0046  
                  i1l2254 061C                    i1l2246 0607                    i1l2238 05F4  
                  i1l2190 0549                    i1l2182 04EA                    i1l2174 04DA  
                  i1l2166 04B2                    i1l2158 0498                    i1l2094 03DC  
                  i1l2086 03D0                    i1l2078 03BB                    i1l2350 073D  
                  i1l2342 072D                    i1l2334 070D                    i1l2326 06F0  
                  i1l2318 06D3                    i1l2270 0642                    i1l2262 062F  
                  i1l2510 0319                    i1l2502 02FE                    i1l2430 0085  
                  i1l2422 0072                    i1l2414 005B                    i1l2406 0047  
                  i1l2248 060B                    i1l2192 054E                    i1l2176 04DC  
                  i1l2168 04C9                    i1l2184 04EF                    i1l2096 03E1  
                  u201_20 03DB                    i1l2088 03D1                    i1l2360 0755  
                  i1l2352 0746                    i1l2344 072F                    i1l2336 071B  
                  i1l2328 06F1                    i1l2280 0658                    i1l2272 0643  
                  i1l2264 0630                    i1l2256 061E                    i1l2520 0354  
                  i1l2512 031D                    i1l2432 0087                    i1l2424 0073  
                  i1l2416 0063                    i1l2408 004C                    u201_21 03DA  
                  i1l2186 0505                    i1l2194 055D                    i1l2178 04E0  
                  i1l2098 03E6                    i1l2370 0784                    i1l2362 0769  
                  i1l2346 0738                    i1l2354 074C                    i1l2338 071F  
                  i1l2290 066F                    i1l2282 065C                    i1l2266 0635  
                  i1l2274 0645                    i1l2258 0625                    i1l2530 0381  
                  i1l2522 0363                    i1l2514 0336                    i1l2506 0306  
                  i1l2450 00F8                    i1l2442 00A2                    i1l2434 008F  
                  i1l2426 0078                    i1l2418 0068                    i1l2196 0573  
                  i1l2188 0543                    i1l2380 07C2                    i1l2372 0788  
                  i1l2356 0750                    i1l2348 073C                    i1l2292 0670  
                  i1l2284 065D                    i1l2276 064D                    i1l2268 063A  
                  i1l1900 0A71                    i1l2532 0382                    i1l2524 036D  
                  i1l2508 030B                    i1l2516 033C                    i1l2460 0175  
                  i1l2452 0124                    i1l2444 00B2                    i1l2436 0094  
                  i1l2428 007D                    i1l2540 0F4C                    i1l2198 0578  
                  i1l2390 07E8                    i1l2382 07D1                    i1l2374 07A1  
                  i1l2366 0771                    i1l2358 0751                    i1l2286 0662  
                  i1l2294 0672                    i1l2278 0652                    i1l1902 0A78  
                  i1l2534 038D                    i1l2526 036F                    i1l2518 0349  
                  i1l2470 01F5                    i1l2462 0192                    i1l2454 0140  
                  i1l2446 00BF                    i1l2438 0099                    i1l2550 0F79  
                  i1l2542 0F50                    u210_20 048A                    u202_20 03E1  
                  i1l2392 07EA                    i1l2384 07D5                    i1l2368 0776  
                  i1l2376 07A7                    i1l2296 0682                    i1l2288 0667  
                  i1l1904 0A7C                    i1l2528 037D                    i1l2480 02AD  
                  i1l2472 0222                    i1l2464 01A2                    i1l2456 015C  
                  i1l2448 00DC                    i1l2560 0FA4                    i1l2552 0F7E  
                  i1l2544 0F60                    i1l2720 0BC5                    i1l2712 0BB0  
                  u210_21 0489                    u202_21 03E0                    i1l2386 07DD  
                  i1l2378 07B4                    i1l2298 068E                    i1l1906 0A8B  
                  i1l2490 02D2                    i1l2482 02B6                    i1l2474 0232  
                  i1l2466 01BF                    i1l2458 0165                    i1l2570 0FD7  
                  i1l2562 0FB4                    i1l2554 0F8B                    i1l2546 0F70  
                  i1l2538 0F47                    i1l2714 0BB4                    i1l2722 0BC6  
                  i1l2388 07E4                    i1l1908 0A90                    i1l2492 02DB  
                  i1l2484 02C4                    i1l2476 025F                    i1l2468 01D8  
                  i1l2572 0FED                    i1l2564 0FBF                    i1l2556 0F92  
                  i1l2724 0BCC                    i1l2716 0BBA                    i1l2582 0A11  
                  i1l2486 02CD                    i1l2494 02E1                    i1l2478 0285  
                  i1l2398 0035                    i1l2574 0FF2                    i1l2566 0FC3  
                  i1l2558 0F96                    i1l2726 0BD7                    i1l2718 0BC1  
                  i1l2584 0A14                    u203_20 03E6                    i1l2496 02E5  
                  i1l2488 02D1                    i1l2576 0FF6                    i1l2568 0FCD  
                  i1l2728 0BF9                    u203_21 03E5                    i1l2498 02E6  
                  i1l2578 0FF7                    i1l2588 0DE6                    u211_25 048D  
                  u220_20 0505                    u212_20 04A0                    u204_20 03FF  
                  u300_20 02EA                    u220_21 0504                    u212_21 049F  
                  u204_21 03FE                    u300_21 02E9                    i1l1898 0A6F  
                  u220_23 0501                    u213_20 04A4                    u205_20 0403  
                  u301_20 02FE                    u221_21 051C                    u213_21 04A3  
                  u205_21 0402                    u301_21 02FD                    u221_22 051D  
                  u221_23 0522                    u221_24 0523                    u221_25 0528  
                  u221_26 0529                    u230_20 05A3                    u222_20 0530  
                  u214_20 04A9                    u206_20 045B                    u302_20 0305  
                  u310_20 0F50                    u230_21 05A2                    u222_21 0531  
                  u214_21 04A8                    u206_21 045A                    u302_21 0304  
                  u310_21 0F4F                    u222_22 0536                    u222_23 0537  
                  u206_25 0457                    u231_20 05A8                    u223_20 054E  
                  u207_20 0466                    u303_20 030B                    u311_20 0F70  
                  u231_21 05A7                    u223_21 054D                    u215_21 04BB  
                  u207_21 0464                    u303_21 030A                    u311_21 0F6F  
                  u215_22 04C2                    u215_23 04C9                    u240_20 0606  
                  u232_20 05AE                    u224_20 0573                    u216_20 04CD  
                  u208_20 0467                    u304_20 031D                    u320_20 0FE2  
                  u240_21 0605                    u232_21 05AD                    u224_21 0572  
                  u216_21 04CC                    u304_21 031C                    u320_25 0FDD  
                  u312_25 0F83                    u241_20 060B                    u233_20 05B5  
                  u225_20 0578                    u217_20 04D1                    u209_20 047B  
                  u305_20 032C                    u321_20 0FF2                    u313_20 0F91  
                  u241_21 060A                    u233_21 05B4                    u225_21 0577  
                  u217_21 04D0                    u209_21 047A                    u321_21 0FF1  
                  u313_21 0F90                    u305_25 0327                    u242_20 061C  
                  u234_20 05BB                    u218_20 04E0                    u250_20 06A0  
                  u306_20 0349                    u322_20 0FF6                    u242_21 061B  
                  u234_21 05BA                    u218_21 04DF                    u250_21 069F  
                  u306_21 0348                    u322_21 0FF5                    u226_25 0583  
                  u306_25 0345                    u314_25 0FA5                    u235_20 05CD  
                  u227_20 058E                    u251_20 06DA                    u243_20 062F  
                  u307_20 0363                    u315_20 0FB3                    u235_21 05CC  
                  u227_21 058D                    u251_21 06D9                    u243_21 062E  
                  u307_21 0362                    u315_21 0FB2                    u219_25 04E3  
                  u307_25 035F                    u236_20 05DC                    u228_20 0593  
                  u260_20 073C                    u244_20 0635                    u308_20 0381  
                  u340_20 0BD7                    u228_21 0592                    u260_21 073B  
                  u244_21 0634                    u308_21 0380                    u340_21 0BD6  
                  u236_25 05D7                    u252_25 06DC                    u180_25 0A83  
                  u316_25 0FB8                    u237_20 05EB                    u229_20 059D  
                  u245_20 063A                    u181_20 0A90                    u317_20 0FC3  
                  u309_20 0F4C                    u237_21 05EA                    u229_21 059C  
                  u245_21 0639                    u181_21 0A8F                    u317_21 0FC2  
                  u309_21 0F4B                    u261_25 073F                    u253_25 06E5  
                  u238_20 05F4                    u270_20 07D1                    u262_20 0750  
                  u254_20 06F0                    u246_20 065C                    u190_20 0D9F  
                  u318_20 0FC9                    u238_21 05F3                    u270_21 07D0  
                  u262_21 074F                    u254_21 06EF                    u246_21 065B  
                  u190_21 0D9E                    u318_21 0FC8                    u270_25 07CD  
                  u239_20 05F9                    u271_20 07E8                    u263_20 0755  
                  u247_20 0662                    u319_20 0FCD                    u239_21 05F8  
                  u271_21 07E7                    u263_21 0754                    u247_21 0661  
                  u319_21 0FCC                    u255_25 06F3                    u191_25 0DA1  
                  u264_20 0769                    u256_20 070C                    u248_20 0667  
                  u272_20 0046                    u192_20 0DB5                    u264_21 0768  
                  u256_21 070B                    u248_21 0666                    u280_21 00EA  
                  u272_21 0045                    u192_21 0DB4                    u280_22 00F1  
                  u280_23 00F8                    u256_25 0708                    u265_20 0770  
                  u257_20 0725                    u249_20 0682                    u273_20 004C  
                  u193_20 0DBC                    u337_20 0BB4                    u265_21 076F  
                  u257_21 0724                    u249_21 0681                    u281_21 0106  
                  u273_21 004B                    u193_21 0DBB                    u337_21 0BB3  
                  u281_22 010D                    u281_23 0114                    u266_20 0776  
                  u258_20 072D                    u274_20 0051                    u338_20 0BBA  
                  u266_21 0775                    u258_21 072C                    u290_21 0241  
                  u282_21 0132                    u274_21 0050                    u338_21 0BB9  
                  u290_22 0248                    u282_22 0139                    u290_23 024F  
                  u282_23 0140                    u194_25 0DC1                    u267_20 0788  
                  u179_20 0A7C                    u291_20 026B                    u275_20 0072  
                  u195_20 0DD5                    u187_20 0D5B                    u339_20 0BCC  
                  u267_21 0787                    u179_21 0A7B                    u283_21 014E  
                  u275_21 0071                    u195_21 0DD4                    u187_21 0D5A  
                  u339_21 0BCB                    u283_22 0155                    u283_23 015C  
                  u259_25 0731                    u291_25 0266                    u268_20 0797  
                  u276_20 0078                    u196_20 0DDA                    u188_20 0D80  
                  u292_21 0277                    u276_21 0077                    u196_21 0DD9  
                  u292_22 027E                    u292_23 0285                    u268_25 0792  
                  u284_25 015E                    u188_25 0D7B                    u197_20 03A7  
                  u269_20 07B4                    u293_20 0293                    u277_20 007D  
                  u189_20 0D98                    u197_21 03A6                    u269_21 07B3  
                  u285_21 0184                    u277_21 007C                    u189_21 0D97  
                  u285_22 018B                    u285_23 0192                    u269_25 07B0  
                  u293_25 028E                    u198_20 03AD                    u278_20 0094  
                  u198_21 03AC                    u294_21 029F                    u286_21 01B1  
                  u278_21 0093                    u294_22 02A6                    u286_22 01B8  
                  u294_23 02AD                    u286_23 01BF                    u199_20 03B2  
                  u279_20 0099                    u199_21 03B1                    u279_21 0098  
                  u295_25 02AF                    u287_25 01C1                    u288_21 01E7  
                  u288_22 01EE                    u288_23 01F5                    u296_25 02C6  
                  u297_20 02D1                    u297_21 02D0                    u289_21 0214  
                  u289_22 021B                    u289_23 0222                    u298_25 02D4  
                  u299_20 02E5                    u299_21 02E4                    _SPBRGH 009A  
        __end_of___xxtofl 1000           ?_pwm_duty_cycle 00B2                 ??___fladd 005C  
               ??___fldiv 0028                 ??___flmul 0042                 ??___fltol 00A0  
               ??___lldiv 00BA            ?_adc_ch_switch 0070         __end_of_USART_set 0CD8  
        __end_of_motor_dc 0AC3                    saved_w 007E          __end_of_pwm_init 0B6C  
         pwm_init@channel 00B4              ___xxtofl@arg 007A              ___xxtofl@exp 0079  
            ___xxtofl@val 0070   __end_of__initialization 0031                ___fltol@f1 0068  
          __pcstackCOMMON 0070              __pidataBANK1 07FB             __end_of_slave 0C07  
           __end_of_servo 0B30             __end_of_setup 0BB0            _OPTION_REGbits 0081  
          adc_init@adc_cs 00B6                   ??_slave 00AE                   ??_servo 00B8  
                 ??_setup 00D0                __pbssBANK1 00D0         __end_of__Umul8_16 0A95  
              __pmaintext 0A49                __pintentry 0004                   _CCP1CON 0017  
                 _CCP2CON 001D           ??_adc_ch_switch 00B2                 ?_adc_init 00B2  
               ?_adc_read 0070                 ?___xxtofl 0070              ??_USART_send 00B2  
               ?_motor_dc 00B3                   ___fladd 0396                   ___fldiv 061E  
                 ___flmul 0035                   ___fltol 0D4A                   ___lldiv 0C07  
               ?_pwm_init 0070                ??_adc_init 00B4                ??_adc_read 0072  
                 __ptext1 0B6C                   __ptext2 0B30                   __ptext3 0AC3  
                 __ptext4 0CD8                   __ptext5 0C6F                   __ptext6 0C07  
                 __ptext7 0AF6                   __ptext8 0A27                   __ptext9 0A95  
               _T2CONbits 0012                ??___xxtofl 0074        __end_of_USART_send 0A27  
    end_of_initialization 0031          ??_pwm_duty_cycle 00B4           ___lldiv@divisor 00B2  
         ___lldiv@counter 00BF                ??_motor_dc 00B5                 _RCSTAbits 0018  
              ??_pwm_init 00B2                 _PORTBbits 0006               ___fladd@grs 0067  
           ___xxtofl@sign 0078                 _TRISAbits 0085                 _TRISBbits 0086  
               _TRISCbits 0087                 _USART_set 0C6F               ___fldiv@grs 0034  
             ___fldiv@rem 002D               ___flmul@grs 0048               _CCP1CONbits 0017  
             _CCP2CONbits 001D                 _TXSTAbits 0098         adc_init@vref_plus 00B2  
             _BAUDCTLbits 0187       start_initialization 0013                ?_USART_set 00C0  
             __end_of_map 0E8F            USART_send@data 00B2         USART_set@baudrate 00C0  
               __Umul8_16 0A6E               __pdataBANK1 00D4                 ___fladd@a 0058  
               ___fladd@b 0054                 ___fldiv@a 0020                 ___fldiv@b 0024  
               ___flmul@a 003E                 ___flmul@b 003A                 ___latbits 0002  
           __pcstackBANK0 0020             __pcstackBANK1 00A0             ??_int_osc_MHz 00B2  
pwm_duty_cycle@duty_cycle 00B2                  ?___fladd 0054                  ?___fldiv 0020  
                ?___flmul 003A                  ?___fltol 0068                  ?___lldiv 00B2  
              ?__Umul8_16 0070     __end_of_adc_ch_switch 0F46               ??_USART_set 00C4  
       interrupt_function 0004                  _IOCBbits 0096                  _PIE1bits 008C  
     __end_of_int_osc_MHz 0AF6                  _OLD_TEMP 00D4                  _PIR1bits 000C  
                _TEMP_POT 00D0                _ADCON0bits 001F                _ADCON1bits 009F  
                _WPUBbits 0095               ??__Umul8_16 0072                  _adc_init 0CD8  
                _adc_read 0A11                  ___xxtofl 0F46                  __ptext10 0A1B  
                __ptext11 0E8F                  __ptext20 0A11                  __ptext12 0BB0  
                __ptext13 0DE6                  __ptext14 0F46                  __ptext15 0D4A  
                __ptext16 0035                  __ptext17 0A6E                  __ptext18 061E  
                __ptext19 0396               _int_osc_MHz 0AC3                  _last_mov 00D6  
                _motor_dc 0A95                  _pwm_init 0B30                _INTCONbits 000B  
                intlevel1 0000          ___lldiv@dividend 00B6              motor_dc@temp 00B3  
              _OSCCONbits 008F                  servo@mov 00B6    __Umul8_16@multiplicand 0070  
        ___lldiv@quotient 00BB             ___fladd@signs 0064              ___fladd@aexp 0065  
            ___fladd@bexp 0066      __Umul8_16@multiplier 0078         __Umul8_16@product 0074  
              _USART_send 0A1B  
