

Microchip MPLAB XC8 Assembler V2.35 build 20211206165544 
                                                                                               Thu Sep 15 18:58:39 2022

Microchip MPLAB XC8 C Compiler v2.35 (Free license) build 20211206165544 Og1 
     1                           	processor	16F887
     2                           	pagewidth 120
     3                           	opt	flic
     4                           	psect	idataBANK1,global,class=CODE,delta=2,noexec
     5                           	psect	idataBANK3,global,class=CODE,delta=2,noexec
     6                           	psect	strings,global,class=STRING,delta=2,noexec
     7                           	psect	cinit,global,class=CODE,merge=1,delta=2
     8                           	psect	bssBANK1,global,class=BANK1,space=1,delta=1,noexec
     9                           	psect	dataBANK1,global,class=BANK1,space=1,delta=1,noexec
    10                           	psect	bssBANK3,global,class=BANK3,space=1,delta=1,noexec
    11                           	psect	dataBANK3,global,class=BANK3,space=1,delta=1,noexec
    12                           	psect	inittext,global,class=CODE,delta=2
    13                           	psect	clrtext,global,class=CODE,delta=2
    14                           	psect	cstackBANK3,global,class=BANK3,space=1,delta=1,noexec
    15                           	psect	cstackBANK1,global,class=BANK1,space=1,delta=1,noexec
    16                           	psect	cstackCOMMON,global,class=COMMON,space=1,delta=1,noexec
    17                           	psect	cstackBANK0,global,class=BANK0,space=1,delta=1,noexec
    18                           	psect	maintext,global,class=CODE,split=1,delta=2
    19                           	psect	text1,local,class=CODE,merge=1,delta=2
    20                           	psect	text2,local,class=CODE,merge=1,delta=2
    21                           	psect	text3,local,class=CODE,merge=1,delta=2
    22                           	psect	text4,local,class=CODE,merge=1,delta=2
    23                           	psect	text5,local,class=CODE,merge=1,delta=2
    24                           	psect	text6,local,class=CODE,merge=1,delta=2,group=1
    25                           	psect	text7,local,class=CODE,merge=1,delta=2
    26                           	psect	text8,local,class=CODE,merge=1,delta=2
    27                           	psect	text9,local,class=CODE,merge=1,delta=2
    28                           	psect	text10,local,class=CODE,merge=1,delta=2
    29                           	psect	text11,local,class=CODE,merge=1,delta=2
    30                           	psect	text12,local,class=CODE,merge=1,delta=2,group=1
    31                           	psect	text13,local,class=CODE,merge=1,delta=2
    32                           	psect	intentry,global,class=CODE,delta=2
    33                           	psect	text14,local,class=CODE,merge=1,delta=2
    34                           	psect	text15,local,class=CODE,merge=1,delta=2
    35                           	psect	text16,local,class=CODE,merge=1,delta=2,group=1
    36                           	psect	text17,local,class=CODE,merge=1,delta=2,group=2
    37                           	psect	text18,local,class=CODE,merge=1,delta=2,group=2
    38                           	psect	text19,local,class=CODE,merge=1,delta=2,group=1
    39                           	psect	text20,local,class=CODE,merge=1,delta=2,group=2
    40                           	psect	text21,local,class=CODE,merge=1,delta=2,group=1
    41                           	psect	text22,local,class=CODE,merge=1,delta=2,group=1
    42                           	psect	text23,local,class=CODE,merge=1,delta=2,group=1
    43                           	psect	text24,local,class=CODE,merge=1,delta=2,group=1
    44                           	psect	text25,local,class=CODE,merge=1,delta=2
    45                           	psect	text26,local,class=CODE,merge=1,delta=2,group=1
    46                           	psect	text27,local,class=CODE,merge=1,delta=2,group=1
    47                           	psect	text28,local,class=CODE,merge=1,delta=2,group=1
    48                           	psect	idloc,global,abs,ovrld,class=IDLOC,space=5,delta=2,noexec
    49                           	psect	config,global,abs,ovrld,class=CONFIG,space=4,delta=2,noexec
    50                           	dabs	1,0x7E,2
    51  0000                     
    52                           ; Version 2.40
    53                           ; Generated 17/11/2021 GMT
    54                           ; 
    55                           ; Copyright © 2021, Microchip Technology Inc. and its subsidiaries ("Microchip")
    56                           ; All rights reserved.
    57                           ; 
    58                           ; This software is developed by Microchip Technology Inc. and its subsidiaries ("Microch
      +                          ip").
    59                           ; 
    60                           ; Redistribution and use in source and binary forms, with or without modification, are
    61                           ; permitted provided that the following conditions are met:
    62                           ; 
    63                           ;     1. Redistributions of source code must retain the above copyright notice, this lis
      +                          t of
    64                           ;        conditions and the following disclaimer.
    65                           ; 
    66                           ;     2. Redistributions in binary form must reproduce the above copyright notice, this 
      +                          list
    67                           ;        of conditions and the following disclaimer in the documentation and/or other
    68                           ;        materials provided with the distribution. Publication is not required when
    69                           ;        this file is used in an embedded application.
    70                           ; 
    71                           ;     3. Microchip's name may not be used to endorse or promote products derived from th
      +                          is
    72                           ;        software without specific prior written permission.
    73                           ; 
    74                           ; THIS SOFTWARE IS PROVIDED BY MICROCHIP "AS IS" AND ANY EXPRESS OR IMPLIED WARRANTIES,
    75                           ; INCLUDING, BUT NOT LIMITED TO, THE IMPLIED WARRANTIES OF MERCHANTABILITY AND FITNESS F
      +                          OR
    76                           ; PURPOSE ARE DISCLAIMED.  IN NO EVENT SHALL MICROCHIP BE LIABLE FOR ANY DIRECT, INDIREC
      +                          T,
    77                           ; INCIDENTAL, SPECIAL, EXEMPLARY, OR CONSEQUENTIAL DAMAGES (INCLUDING BUT NOT LIMITED TO
    78                           ; PROCUREMENT OF SUBSTITUTE GOODS OR SERVICES; LOSS OF USE, DATA OR PROFITS; OR BUSINESS
    79                           ; INTERRUPTION) HOWSOEVER CAUSED AND ON ANY THEORY OF LIABILITY, WHETHER IN CONTRACT, ST
      +                          RICT
    80                           ; LIABILITY, OR TORT (INCLUDING NEGLIGENCE OR OTHERWISE) ARISING IN ANY WAY OUT OF THE U
      +                          SE OF
    81                           ; THIS SOFTWARE, EVEN IF ADVISED OF THE POSSIBILITY OF SUCH DAMAGE.
    82                           ; 
    83                           ; 
    84                           ; Code-generator required, PIC16F887 Definitions
    85                           ; 
    86                           ; SFR Addresses
    87  0000                     	;# 
    88  0001                     	;# 
    89  0002                     	;# 
    90  0003                     	;# 
    91  0004                     	;# 
    92  0005                     	;# 
    93  0006                     	;# 
    94  0007                     	;# 
    95  0008                     	;# 
    96  0009                     	;# 
    97  000A                     	;# 
    98  000B                     	;# 
    99  000C                     	;# 
   100  000D                     	;# 
   101  000E                     	;# 
   102  000E                     	;# 
   103  000F                     	;# 
   104  0010                     	;# 
   105  0011                     	;# 
   106  0012                     	;# 
   107  0013                     	;# 
   108  0014                     	;# 
   109  0015                     	;# 
   110  0015                     	;# 
   111  0016                     	;# 
   112  0017                     	;# 
   113  0018                     	;# 
   114  0019                     	;# 
   115  001A                     	;# 
   116  001B                     	;# 
   117  001B                     	;# 
   118  001C                     	;# 
   119  001D                     	;# 
   120  001E                     	;# 
   121  001F                     	;# 
   122  0081                     	;# 
   123  0085                     	;# 
   124  0086                     	;# 
   125  0087                     	;# 
   126  0088                     	;# 
   127  0089                     	;# 
   128  008C                     	;# 
   129  008D                     	;# 
   130  008E                     	;# 
   131  008F                     	;# 
   132  0090                     	;# 
   133  0091                     	;# 
   134  0092                     	;# 
   135  0093                     	;# 
   136  0093                     	;# 
   137  0093                     	;# 
   138  0094                     	;# 
   139  0095                     	;# 
   140  0096                     	;# 
   141  0097                     	;# 
   142  0098                     	;# 
   143  0099                     	;# 
   144  009A                     	;# 
   145  009B                     	;# 
   146  009C                     	;# 
   147  009D                     	;# 
   148  009E                     	;# 
   149  009F                     	;# 
   150  0105                     	;# 
   151  0107                     	;# 
   152  0108                     	;# 
   153  0109                     	;# 
   154  010C                     	;# 
   155  010C                     	;# 
   156  010D                     	;# 
   157  010E                     	;# 
   158  010F                     	;# 
   159  0185                     	;# 
   160  0187                     	;# 
   161  0188                     	;# 
   162  0189                     	;# 
   163  018C                     	;# 
   164  018D                     	;# 
   165  0000                     	;# 
   166  0001                     	;# 
   167  0002                     	;# 
   168  0003                     	;# 
   169  0004                     	;# 
   170  0005                     	;# 
   171  0006                     	;# 
   172  0007                     	;# 
   173  0008                     	;# 
   174  0009                     	;# 
   175  000A                     	;# 
   176  000B                     	;# 
   177  000C                     	;# 
   178  000D                     	;# 
   179  000E                     	;# 
   180  000E                     	;# 
   181  000F                     	;# 
   182  0010                     	;# 
   183  0011                     	;# 
   184  0012                     	;# 
   185  0013                     	;# 
   186  0014                     	;# 
   187  0015                     	;# 
   188  0015                     	;# 
   189  0016                     	;# 
   190  0017                     	;# 
   191  0018                     	;# 
   192  0019                     	;# 
   193  001A                     	;# 
   194  001B                     	;# 
   195  001B                     	;# 
   196  001C                     	;# 
   197  001D                     	;# 
   198  001E                     	;# 
   199  001F                     	;# 
   200  0081                     	;# 
   201  0085                     	;# 
   202  0086                     	;# 
   203  0087                     	;# 
   204  0088                     	;# 
   205  0089                     	;# 
   206  008C                     	;# 
   207  008D                     	;# 
   208  008E                     	;# 
   209  008F                     	;# 
   210  0090                     	;# 
   211  0091                     	;# 
   212  0092                     	;# 
   213  0093                     	;# 
   214  0093                     	;# 
   215  0093                     	;# 
   216  0094                     	;# 
   217  0095                     	;# 
   218  0096                     	;# 
   219  0097                     	;# 
   220  0098                     	;# 
   221  0099                     	;# 
   222  009A                     	;# 
   223  009B                     	;# 
   224  009C                     	;# 
   225  009D                     	;# 
   226  009E                     	;# 
   227  009F                     	;# 
   228  0105                     	;# 
   229  0107                     	;# 
   230  0108                     	;# 
   231  0109                     	;# 
   232  010C                     	;# 
   233  010C                     	;# 
   234  010D                     	;# 
   235  010E                     	;# 
   236  010F                     	;# 
   237  0185                     	;# 
   238  0187                     	;# 
   239  0188                     	;# 
   240  0189                     	;# 
   241  018C                     	;# 
   242  018D                     	;# 
   243  0000                     	;# 
   244  0001                     	;# 
   245  0002                     	;# 
   246  0003                     	;# 
   247  0004                     	;# 
   248  0005                     	;# 
   249  0006                     	;# 
   250  0007                     	;# 
   251  0008                     	;# 
   252  0009                     	;# 
   253  000A                     	;# 
   254  000B                     	;# 
   255  000C                     	;# 
   256  000D                     	;# 
   257  000E                     	;# 
   258  000E                     	;# 
   259  000F                     	;# 
   260  0010                     	;# 
   261  0011                     	;# 
   262  0012                     	;# 
   263  0013                     	;# 
   264  0014                     	;# 
   265  0015                     	;# 
   266  0015                     	;# 
   267  0016                     	;# 
   268  0017                     	;# 
   269  0018                     	;# 
   270  0019                     	;# 
   271  001A                     	;# 
   272  001B                     	;# 
   273  001B                     	;# 
   274  001C                     	;# 
   275  001D                     	;# 
   276  001E                     	;# 
   277  001F                     	;# 
   278  0081                     	;# 
   279  0085                     	;# 
   280  0086                     	;# 
   281  0087                     	;# 
   282  0088                     	;# 
   283  0089                     	;# 
   284  008C                     	;# 
   285  008D                     	;# 
   286  008E                     	;# 
   287  008F                     	;# 
   288  0090                     	;# 
   289  0091                     	;# 
   290  0092                     	;# 
   291  0093                     	;# 
   292  0093                     	;# 
   293  0093                     	;# 
   294  0094                     	;# 
   295  0095                     	;# 
   296  0096                     	;# 
   297  0097                     	;# 
   298  0098                     	;# 
   299  0099                     	;# 
   300  009A                     	;# 
   301  009B                     	;# 
   302  009C                     	;# 
   303  009D                     	;# 
   304  009E                     	;# 
   305  009F                     	;# 
   306  0105                     	;# 
   307  0107                     	;# 
   308  0108                     	;# 
   309  0109                     	;# 
   310  010C                     	;# 
   311  010C                     	;# 
   312  010D                     	;# 
   313  010E                     	;# 
   314  010F                     	;# 
   315  0185                     	;# 
   316  0187                     	;# 
   317  0188                     	;# 
   318  0189                     	;# 
   319  018C                     	;# 
   320  018D                     	;# 
   321  0000                     	;# 
   322  0001                     	;# 
   323  0002                     	;# 
   324  0003                     	;# 
   325  0004                     	;# 
   326  0005                     	;# 
   327  0006                     	;# 
   328  0007                     	;# 
   329  0008                     	;# 
   330  0009                     	;# 
   331  000A                     	;# 
   332  000B                     	;# 
   333  000C                     	;# 
   334  000D                     	;# 
   335  000E                     	;# 
   336  000E                     	;# 
   337  000F                     	;# 
   338  0010                     	;# 
   339  0011                     	;# 
   340  0012                     	;# 
   341  0013                     	;# 
   342  0014                     	;# 
   343  0015                     	;# 
   344  0015                     	;# 
   345  0016                     	;# 
   346  0017                     	;# 
   347  0018                     	;# 
   348  0019                     	;# 
   349  001A                     	;# 
   350  001B                     	;# 
   351  001B                     	;# 
   352  001C                     	;# 
   353  001D                     	;# 
   354  001E                     	;# 
   355  001F                     	;# 
   356  0081                     	;# 
   357  0085                     	;# 
   358  0086                     	;# 
   359  0087                     	;# 
   360  0088                     	;# 
   361  0089                     	;# 
   362  008C                     	;# 
   363  008D                     	;# 
   364  008E                     	;# 
   365  008F                     	;# 
   366  0090                     	;# 
   367  0091                     	;# 
   368  0092                     	;# 
   369  0093                     	;# 
   370  0093                     	;# 
   371  0093                     	;# 
   372  0094                     	;# 
   373  0095                     	;# 
   374  0096                     	;# 
   375  0097                     	;# 
   376  0098                     	;# 
   377  0099                     	;# 
   378  009A                     	;# 
   379  009B                     	;# 
   380  009C                     	;# 
   381  009D                     	;# 
   382  009E                     	;# 
   383  009F                     	;# 
   384  0105                     	;# 
   385  0107                     	;# 
   386  0108                     	;# 
   387  0109                     	;# 
   388  010C                     	;# 
   389  010C                     	;# 
   390  010D                     	;# 
   391  010E                     	;# 
   392  010F                     	;# 
   393  0185                     	;# 
   394  0187                     	;# 
   395  0188                     	;# 
   396  0189                     	;# 
   397  018C                     	;# 
   398  018D                     	;# 
   399  0000                     	;# 
   400  0001                     	;# 
   401  0002                     	;# 
   402  0003                     	;# 
   403  0004                     	;# 
   404  0005                     	;# 
   405  0006                     	;# 
   406  0007                     	;# 
   407  0008                     	;# 
   408  0009                     	;# 
   409  000A                     	;# 
   410  000B                     	;# 
   411  000C                     	;# 
   412  000D                     	;# 
   413  000E                     	;# 
   414  000E                     	;# 
   415  000F                     	;# 
   416  0010                     	;# 
   417  0011                     	;# 
   418  0012                     	;# 
   419  0013                     	;# 
   420  0014                     	;# 
   421  0015                     	;# 
   422  0015                     	;# 
   423  0016                     	;# 
   424  0017                     	;# 
   425  0018                     	;# 
   426  0019                     	;# 
   427  001A                     	;# 
   428  001B                     	;# 
   429  001B                     	;# 
   430  001C                     	;# 
   431  001D                     	;# 
   432  001E                     	;# 
   433  001F                     	;# 
   434  0081                     	;# 
   435  0085                     	;# 
   436  0086                     	;# 
   437  0087                     	;# 
   438  0088                     	;# 
   439  0089                     	;# 
   440  008C                     	;# 
   441  008D                     	;# 
   442  008E                     	;# 
   443  008F                     	;# 
   444  0090                     	;# 
   445  0091                     	;# 
   446  0092                     	;# 
   447  0093                     	;# 
   448  0093                     	;# 
   449  0093                     	;# 
   450  0094                     	;# 
   451  0095                     	;# 
   452  0096                     	;# 
   453  0097                     	;# 
   454  0098                     	;# 
   455  0099                     	;# 
   456  009A                     	;# 
   457  009B                     	;# 
   458  009C                     	;# 
   459  009D                     	;# 
   460  009E                     	;# 
   461  009F                     	;# 
   462  0105                     	;# 
   463  0107                     	;# 
   464  0108                     	;# 
   465  0109                     	;# 
   466  010C                     	;# 
   467  010C                     	;# 
   468  010D                     	;# 
   469  010E                     	;# 
   470  010F                     	;# 
   471  0185                     	;# 
   472  0187                     	;# 
   473  0188                     	;# 
   474  0189                     	;# 
   475  018C                     	;# 
   476  018D                     	;# 
   477  0000                     	;# 
   478  0001                     	;# 
   479  0002                     	;# 
   480  0003                     	;# 
   481  0004                     	;# 
   482  0005                     	;# 
   483  0006                     	;# 
   484  0007                     	;# 
   485  0008                     	;# 
   486  0009                     	;# 
   487  000A                     	;# 
   488  000B                     	;# 
   489  000C                     	;# 
   490  000D                     	;# 
   491  000E                     	;# 
   492  000E                     	;# 
   493  000F                     	;# 
   494  0010                     	;# 
   495  0011                     	;# 
   496  0012                     	;# 
   497  0013                     	;# 
   498  0014                     	;# 
   499  0015                     	;# 
   500  0015                     	;# 
   501  0016                     	;# 
   502  0017                     	;# 
   503  0018                     	;# 
   504  0019                     	;# 
   505  001A                     	;# 
   506  001B                     	;# 
   507  001B                     	;# 
   508  001C                     	;# 
   509  001D                     	;# 
   510  001E                     	;# 
   511  001F                     	;# 
   512  0081                     	;# 
   513  0085                     	;# 
   514  0086                     	;# 
   515  0087                     	;# 
   516  0088                     	;# 
   517  0089                     	;# 
   518  008C                     	;# 
   519  008D                     	;# 
   520  008E                     	;# 
   521  008F                     	;# 
   522  0090                     	;# 
   523  0091                     	;# 
   524  0092                     	;# 
   525  0093                     	;# 
   526  0093                     	;# 
   527  0093                     	;# 
   528  0094                     	;# 
   529  0095                     	;# 
   530  0096                     	;# 
   531  0097                     	;# 
   532  0098                     	;# 
   533  0099                     	;# 
   534  009A                     	;# 
   535  009B                     	;# 
   536  009C                     	;# 
   537  009D                     	;# 
   538  009E                     	;# 
   539  009F                     	;# 
   540  0105                     	;# 
   541  0107                     	;# 
   542  0108                     	;# 
   543  0109                     	;# 
   544  010C                     	;# 
   545  010C                     	;# 
   546  010D                     	;# 
   547  010E                     	;# 
   548  010F                     	;# 
   549  0185                     	;# 
   550  0187                     	;# 
   551  0188                     	;# 
   552  0189                     	;# 
   553  018C                     	;# 
   554  018D                     	;# 
   555                           
   556                           	psect	idataBANK1
   557  0802                     __pidataBANK1:
   558                           
   559                           ;initializer for _A
   560  0802  34EB               	retlw	235
   561  0803  34FF               	retlw	255
   562  0804  3493               	retlw	147
   563  0805  343A               	retlw	58
   564                           
   565                           ;initializer for _R1
   566  0806  3400               	retlw	0
   567  0807  3440               	retlw	64
   568  0808  341C               	retlw	28
   569  0809  3446               	retlw	70
   570                           
   571                           	psect	idataBANK3
   572  1232                     __pidataBANK3:	
   573                           ;initializer for _C
   574                           
   575  1232  3459               	retlw	89
   576  1233  3447               	retlw	71
   577  1234  34BC               	retlw	188
   578  1235  3433               	retlw	51
   579                           
   580                           ;initializer for _OLD_TEMP
   581  1236  3496               	retlw	150
   582  1237  3400               	retlw	0
   583                           
   584                           ;initializer for _last_mov
   585  1238  3405               	retlw	5
   586  1239  3400               	retlw	0
   587                           
   588                           ;initializer for _B
   589  123A  3473               	retlw	115
   590  123B  347F               	retlw	127
   591  123C  3475               	retlw	117
   592  123D  3439               	retlw	57
   593                           
   594                           	psect	strings
   595  1000                     __pstrings:
   596  1000                     stringtab:
   597  1000                     __stringtab:
   598  1000                     stringcode:	
   599                           ;	String table - string pointers are 1 byte each
   600                           
   601  1000                     stringdir:
   602  1000  3010               	movlw	high stringdir
   603  1001  008A               	movwf	10
   604  1002  0804               	movf	4,w
   605  1003  0A84               	incf	4,f
   606  1004  0782               	addwf	2,f
   607  1005                     __stringbase:
   608  1005  3400               	retlw	0
   609  1006                     __end_of__stringtab:
   610  1006                     log@coeff:
   611  1006  3400               	retlw	0
   612  1007  3400               	retlw	0
   613  1008  3400               	retlw	0
   614  1009  3400               	retlw	0
   615  100A  34C4               	retlw	196
   616  100B  34FF               	retlw	255
   617  100C  347F               	retlw	127
   618  100D  343F               	retlw	63
   619  100E  3480               	retlw	128
   620  100F  34EF               	retlw	239
   621  1010  34FF               	retlw	255
   622  1011  34BE               	retlw	190
   623  1012  3490               	retlw	144
   624  1013  34E1               	retlw	225
   625  1014  34A9               	retlw	169
   626  1015  343E               	retlw	62
   627  1016  34EC               	retlw	236
   628  1017  3482               	retlw	130
   629  1018  3476               	retlw	118
   630  1019  34BE               	retlw	190
   631  101A  3482               	retlw	130
   632  101B  34AD               	retlw	173
   633  101C  342B               	retlw	43
   634  101D  343E               	retlw	62
   635  101E  340E               	retlw	14
   636  101F  343C               	retlw	60
   637  1020  34C3               	retlw	195
   638  1021  34BD               	retlw	189
   639  1022  3487               	retlw	135
   640  1023  34D1               	retlw	209
   641  1024  3413               	retlw	19
   642  1025  343D               	retlw	61
   643  1026  3441               	retlw	65
   644  1027  3478               	retlw	120
   645  1028  34D3               	retlw	211
   646  1029  34BB               	retlw	187
   647  102A                     __end_oflog@coeff:
   648  0015                     _CCPR1L	set	21
   649  0012                     _T2CONbits	set	18
   650  001D                     _CCP2CONbits	set	29
   651  001D                     _CCP2CON	set	29
   652  0017                     _CCP1CONbits	set	23
   653  0017                     _CCP1CON	set	23
   654  001E                     _ADRESH	set	30
   655  0019                     _TXREG	set	25
   656  0018                     _RCSTAbits	set	24
   657  0008                     _PORTD	set	8
   658  001F                     _ADCON0bits	set	31
   659  000C                     _PIR1bits	set	12
   660  0006                     _PORTBbits	set	6
   661  000B                     _INTCONbits	set	11
   662  0092                     _PR2	set	146
   663  0087                     _TRISCbits	set	135
   664  009E                     _ADRESL	set	158
   665  008C                     _PIE1bits	set	140
   666  009F                     _ADCON1bits	set	159
   667  0099                     _SPBRG	set	153
   668  009A                     _SPBRGH	set	154
   669  0098                     _TXSTAbits	set	152
   670  008F                     _OSCCONbits	set	143
   671  0096                     _IOCBbits	set	150
   672  0088                     _TRISD	set	136
   673  0095                     _WPUBbits	set	149
   674  0081                     _OPTION_REGbits	set	129
   675  0086                     _TRISBbits	set	134
   676  0085                     _TRISAbits	set	133
   677  0187                     _BAUDCTLbits	set	391
   678  0189                     _ANSELH	set	393
   679  0188                     _ANSEL	set	392
   680                           
   681                           	psect	cinit
   682  0015                     start_initialization:	
   683                           ; #config settings
   684                           
   685  0015                     __initialization:
   686                           
   687                           ; Initialize objects allocated to BANK3
   688  0015  1783               	bsf	3,7	;select IRP bank2
   689  0016  30BA               	movlw	low (__pdataBANK3+12)
   690  0017  00FD               	movwf	btemp+-1
   691  0018  3012               	movlw	high __pidataBANK3
   692  0019  00FE               	movwf	btemp
   693  001A  3032               	movlw	low __pidataBANK3
   694  001B  00FF               	movwf	btemp+1
   695  001C  30AE               	movlw	low __pdataBANK3
   696  001D  0084               	movwf	4
   697  001E  160A  118A  2251  120A  118A  	fcall	init_ram0
   698                           
   699                           ; Initialize objects allocated to BANK1
   700  0023  1383               	bcf	3,7	;select IRP bank0
   701  0024  30F0               	movlw	low (__pdataBANK1+8)
   702  0025  00FD               	movwf	btemp+-1
   703  0026  3008               	movlw	high __pidataBANK1
   704  0027  00FE               	movwf	btemp
   705  0028  3002               	movlw	low __pidataBANK1
   706  0029  00FF               	movwf	btemp+1
   707  002A  30E8               	movlw	low __pdataBANK1
   708  002B  0084               	movwf	4
   709  002C  160A  118A  2251  120A  118A  	fcall	init_ram0
   710                           
   711                           ; Clear objects allocated to BANK3
   712  0031  1683               	bsf	3,5	;RP0=1, select bank3
   713  0032  1703               	bsf	3,6	;RP1=1, select bank3
   714  0033  01BA               	clrf	__pbssBANK3& (0+127)
   715  0034  01BB               	clrf	(__pbssBANK3+1)& (0+127)
   716                           
   717                           ; Clear objects allocated to BANK1
   718  0035  30D8               	movlw	low __pbssBANK1
   719  0036  0084               	movwf	4
   720  0037  30E8               	movlw	low (__pbssBANK1+16)
   721  0038  160A  118A  222A  120A  118A  	fcall	clear_ram0
   722  003D                     end_of_initialization:	
   723                           ;End of C runtime variable initialization code
   724                           
   725  003D                     __end_of__initialization:
   726  003D  0183               	clrf	3
   727  003E  160A  118A  2B85   	ljmp	_main	;jump to C main() function
   728                           
   729                           	psect	bssBANK1
   730  00D8                     __pbssBANK1:
   731  00D8                     _TC:
   732  00D8                     	ds	4
   733  00DC                     _R2:
   734  00DC                     	ds	4
   735  00E0                     _logR2:
   736  00E0                     	ds	4
   737  00E4                     _errno:
   738  00E4                     	ds	2
   739  00E6                     _TEMP_POT:
   740  00E6                     	ds	2
   741                           
   742                           	psect	dataBANK1
   743  00E8                     __pdataBANK1:
   744  00E8                     _A:
   745  00E8                     	ds	4
   746  00EC                     _R1:
   747  00EC                     	ds	4
   748                           
   749                           	psect	bssBANK3
   750  01BA                     __pbssBANK3:
   751  01BA                     _switch_servo:
   752  01BA                     	ds	2
   753                           
   754                           	psect	dataBANK3
   755  01AE                     __pdataBANK3:
   756  01AE                     _C:
   757  01AE                     	ds	4
   758  01B2                     _OLD_TEMP:
   759  01B2                     	ds	2
   760  01B4                     _last_mov:
   761  01B4                     	ds	2
   762  01B6                     _B:
   763  01B6                     	ds	4
   764                           
   765                           	psect	inittext
   766  124D                     init_fetch0:	
   767                           ;	Called with low address in FSR and high address in W
   768                           
   769  124D  087E               	movf	btemp,w
   770  124E  008A               	movwf	10
   771  124F  087F               	movf	btemp+1,w
   772  1250  0082               	movwf	2
   773  1251                     init_ram0:	
   774                           ;Called with:
   775                           ;	high address of idata address in btemp 
   776                           ;	low address of idata address in btemp+1 
   777                           ;	low address of data in FSR
   778                           ;	high address + 1 of data in btemp-1
   779                           
   780  1251  160A  118A  224D  160A  118A  	fcall	init_fetch0
   781  1256  0080               	movwf	0
   782  1257  0A84               	incf	4,f
   783  1258  0804               	movf	4,w
   784  1259  067D               	xorwf	btemp+-1,w
   785  125A  1903               	btfsc	3,2
   786  125B  3400               	retlw	0
   787  125C  0AFF               	incf	btemp+1,f
   788  125D  1903               	btfsc	3,2
   789  125E  0AFE               	incf	btemp,f
   790  125F  2A51               	goto	init_ram0
   791                           
   792                           	psect	clrtext
   793  122A                     clear_ram0:	
   794                           ;	Called with FSR containing the base address, and
   795                           ;	W with the last address+1
   796                           
   797  122A  0064               	clrwdt	;clear the watchdog before getting into this loop
   798  122B                     clrloop0:
   799  122B  0180               	clrf	0	;clear RAM location pointed to by FSR
   800  122C  0A84               	incf	4,f	;increment pointer
   801  122D  0604               	xorwf	4,w	;XOR with final address
   802  122E  1903               	btfsc	3,2	;have we reached the end yet?
   803  122F  3400               	retlw	0	;all done for this memory range, return
   804  1230  0604               	xorwf	4,w	;XOR again to restore value
   805  1231  2A2B               	goto	clrloop0	;do the next byte
   806                           
   807                           	psect	cstackBANK3
   808  0190                     __pcstackBANK3:
   809  0190                     ??_adc_ch_switch:
   810  0190                     ??_USART_send:	
   811                           ; 1 bytes @ 0x0
   812                           
   813  0190                     ?_pwm_duty_cycle:	
   814                           ; 1 bytes @ 0x0
   815                           
   816  0190                     ??_int_osc_MHz:	
   817                           ; 1 bytes @ 0x0
   818                           
   819  0190                     ??_pwm_init:	
   820                           ; 1 bytes @ 0x0
   821                           
   822  0190                     ?_adc_init:	
   823                           ; 1 bytes @ 0x0
   824                           
   825  0190                     ?___lldiv:	
   826                           ; 1 bytes @ 0x0
   827                           
   828  0190                     ?___fltol:	
   829                           ; 4 bytes @ 0x0
   830                           
   831  0190                     USART_send@data:	
   832                           ; 4 bytes @ 0x0
   833                           
   834  0190                     adc_init@vref_plus:	
   835                           ; 1 bytes @ 0x0
   836                           
   837  0190                     pwm_duty_cycle@duty_cycle:	
   838                           ; 1 bytes @ 0x0
   839                           
   840  0190                     ___lldiv@divisor:	
   841                           ; 2 bytes @ 0x0
   842                           
   843  0190                     ___fltol@f1:	
   844                           ; 4 bytes @ 0x0
   845                           
   846                           
   847                           ; 4 bytes @ 0x0
   848  0190                     	ds	1
   849  0191                     adc_init@vref_minus:
   850                           
   851                           ; 1 bytes @ 0x1
   852  0191                     	ds	1
   853  0192                     ??_pwm_duty_cycle:
   854  0192                     ??_adc_init:	
   855                           ; 1 bytes @ 0x2
   856                           
   857  0192                     int_osc_MHz@freq:	
   858                           ; 1 bytes @ 0x2
   859                           
   860  0192                     adc_ch_switch@channels:	
   861                           ; 1 bytes @ 0x2
   862                           
   863  0192                     pwm_init@channel:	
   864                           ; 1 bytes @ 0x2
   865                           
   866                           
   867                           ; 1 bytes @ 0x2
   868  0192                     	ds	2
   869  0194                     ?_servo:
   870  0194                     ??___fltol:	
   871                           ; 1 bytes @ 0x4
   872                           
   873  0194                     adc_init@adc_cs:	
   874                           ; 1 bytes @ 0x4
   875                           
   876  0194                     servo@mov:	
   877                           ; 1 bytes @ 0x4
   878                           
   879  0194                     ___lldiv@dividend:	
   880                           ; 2 bytes @ 0x4
   881                           
   882                           
   883                           ; 4 bytes @ 0x4
   884  0194                     	ds	2
   885  0196                     ??_servo:
   886                           
   887                           ; 1 bytes @ 0x6
   888  0196                     	ds	2
   889  0198                     ??___lldiv:
   890                           
   891                           ; 1 bytes @ 0x8
   892  0198                     	ds	1
   893  0199                     ___fltol@sign1:
   894  0199                     ___lldiv@quotient:	
   895                           ; 1 bytes @ 0x9
   896                           
   897                           
   898                           ; 4 bytes @ 0x9
   899  0199                     	ds	1
   900  019A                     ___fltol@exp1:
   901                           
   902                           ; 1 bytes @ 0xA
   903  019A                     	ds	1
   904  019B                     ?_motor_dc:
   905  019B                     motor_dc@temp:	
   906                           ; 1 bytes @ 0xB
   907                           
   908                           
   909                           ; 2 bytes @ 0xB
   910  019B                     	ds	2
   911  019D                     ??_motor_dc:
   912  019D                     ___lldiv@counter:	
   913                           ; 1 bytes @ 0xD
   914                           
   915                           
   916                           ; 1 bytes @ 0xD
   917  019D                     	ds	1
   918  019E                     ?_USART_set:
   919  019E                     USART_set@baudrate:	
   920                           ; 1 bytes @ 0xE
   921                           
   922                           
   923                           ; 4 bytes @ 0xE
   924  019E                     	ds	4
   925  01A2                     ??_USART_set:
   926                           
   927                           ; 1 bytes @ 0x12
   928  01A2                     	ds	12
   929  01AE                     ??_setup:
   930  01AE                     ??_main:	
   931                           ; 1 bytes @ 0x1E
   932                           
   933                           
   934                           	psect	cstackBANK1
   935  00A0                     __pcstackBANK1:	
   936                           ; 1 bytes @ 0x1E
   937                           
   938  00A0                     ___fldiv@rem:
   939                           
   940                           ; 4 bytes @ 0x0
   941  00A0                     	ds	4
   942  00A4                     ___fldiv@sign:
   943                           
   944                           ; 1 bytes @ 0x4
   945  00A4                     	ds	1
   946  00A5                     ___fldiv@new_exp:
   947                           
   948                           ; 2 bytes @ 0x5
   949  00A5                     	ds	2
   950  00A7                     ___fldiv@grs:
   951                           
   952                           ; 4 bytes @ 0x7
   953  00A7                     	ds	4
   954  00AB                     ___fldiv@bexp:
   955                           
   956                           ; 1 bytes @ 0xB
   957  00AB                     	ds	1
   958  00AC                     ___fldiv@aexp:
   959                           
   960                           ; 1 bytes @ 0xC
   961  00AC                     	ds	1
   962  00AD                     ?i1___fltol:
   963  00AD                     i1___fltol@f1:	
   964                           ; 4 bytes @ 0xD
   965                           
   966                           
   967                           ; 4 bytes @ 0xD
   968  00AD                     	ds	4
   969  00B1                     ??i1___fltol:
   970                           
   971                           ; 1 bytes @ 0x11
   972  00B1                     	ds	5
   973  00B6                     ?_map:
   974  00B6                     map@x:	
   975                           ; 2 bytes @ 0x16
   976                           
   977                           
   978                           ; 2 bytes @ 0x16
   979  00B6                     	ds	2
   980  00B8                     map@x0:
   981                           
   982                           ; 2 bytes @ 0x18
   983  00B8                     	ds	2
   984  00BA                     map@x1:
   985                           
   986                           ; 2 bytes @ 0x1A
   987  00BA                     	ds	2
   988  00BC                     map@y0:
   989                           
   990                           ; 2 bytes @ 0x1C
   991  00BC                     	ds	2
   992  00BE                     map@y1:
   993                           
   994                           ; 2 bytes @ 0x1E
   995  00BE                     	ds	2
   996  00C0                     ??_slave:
   997                           
   998                           ; 1 bytes @ 0x20
   999  00C0                     	ds	8
  1000  00C8                     _slave$1495:
  1001                           
  1002                           ; 4 bytes @ 0x28
  1003  00C8                     	ds	4
  1004  00CC                     _slave$1496:
  1005                           
  1006                           ; 4 bytes @ 0x2C
  1007  00CC                     	ds	4
  1008  00D0                     _slave$1497:
  1009                           
  1010                           ; 4 bytes @ 0x30
  1011  00D0                     	ds	4
  1012  00D4                     _slave$1498:
  1013                           
  1014                           ; 4 bytes @ 0x34
  1015  00D4                     	ds	4
  1016                           
  1017                           	psect	cstackCOMMON
  1018  0070                     __pcstackCOMMON:
  1019  0070                     ?___fleq:
  1020  0070                     ?___flge:	
  1021                           ; 1 bit 
  1022                           
  1023  0070                     ?_setup:	
  1024                           ; 1 bit 
  1025                           
  1026  0070                     ?_adc_ch_switch:	
  1027                           ; 1 bytes @ 0x0
  1028                           
  1029  0070                     ?_USART_send:	
  1030                           ; 1 bytes @ 0x0
  1031                           
  1032  0070                     ?_int_osc_MHz:	
  1033                           ; 1 bytes @ 0x0
  1034                           
  1035  0070                     ?_pwm_init:	
  1036                           ; 1 bytes @ 0x0
  1037                           
  1038  0070                     ?_slave:	
  1039                           ; 1 bytes @ 0x0
  1040                           
  1041  0070                     ?_main:	
  1042                           ; 1 bytes @ 0x0
  1043                           
  1044  0070                     ?_adc_read:	
  1045                           ; 1 bytes @ 0x0
  1046                           
  1047  0070                     ?__Umul8_16:	
  1048                           ; 2 bytes @ 0x0
  1049                           
  1050  0070                     ?___lwdiv:	
  1051                           ; 2 bytes @ 0x0
  1052                           
  1053  0070                     __Umul8_16@multiplicand:	
  1054                           ; 2 bytes @ 0x0
  1055                           
  1056  0070                     ___lwdiv@divisor:	
  1057                           ; 1 bytes @ 0x0
  1058                           
  1059  0070                     ___fleq@ff1:	
  1060                           ; 2 bytes @ 0x0
  1061                           
  1062  0070                     ___flge@ff1:	
  1063                           ; 4 bytes @ 0x0
  1064                           
  1065                           
  1066                           ; 4 bytes @ 0x0
  1067  0070                     	ds	2
  1068  0072                     ??_adc_read:
  1069  0072                     ??__Umul8_16:	
  1070                           ; 1 bytes @ 0x2
  1071                           
  1072  0072                     ___lwdiv@dividend:	
  1073                           ; 1 bytes @ 0x2
  1074                           
  1075                           
  1076                           ; 2 bytes @ 0x2
  1077  0072                     	ds	2
  1078  0074                     ??___lwdiv:
  1079  0074                     __Umul8_16@product:	
  1080                           ; 1 bytes @ 0x4
  1081                           
  1082  0074                     ___fleq@ff2:	
  1083                           ; 2 bytes @ 0x4
  1084                           
  1085  0074                     ___flge@ff2:	
  1086                           ; 4 bytes @ 0x4
  1087                           
  1088                           
  1089                           ; 4 bytes @ 0x4
  1090  0074                     	ds	1
  1091  0075                     ___lwdiv@quotient:
  1092                           
  1093                           ; 2 bytes @ 0x5
  1094  0075                     	ds	1
  1095  0076                     __Umul8_16@word_mpld:
  1096                           
  1097                           ; 2 bytes @ 0x6
  1098  0076                     	ds	1
  1099  0077                     ___lwdiv@counter:
  1100                           
  1101                           ; 1 bytes @ 0x7
  1102  0077                     	ds	1
  1103  0078                     ??___fleq:
  1104  0078                     ??___flge:	
  1105                           ; 1 bytes @ 0x8
  1106                           
  1107  0078                     __Umul8_16@multiplier:	
  1108                           ; 1 bytes @ 0x8
  1109                           
  1110                           
  1111                           ; 1 bytes @ 0x8
  1112  0078                     	ds	1
  1113  0079                     ?___xxtofl:
  1114  0079                     ___xxtofl@val:	
  1115                           ; 4 bytes @ 0x9
  1116                           
  1117                           
  1118                           ; 4 bytes @ 0x9
  1119  0079                     	ds	3
  1120  007C                     ??_frexp:
  1121                           
  1122                           ; 1 bytes @ 0xC
  1123  007C                     	ds	2
  1124  007E                     ??_map:
  1125  007E                     ??___flsub:	
  1126                           ; 1 bytes @ 0xE
  1127                           
  1128                           
  1129                           	psect	cstackBANK0
  1130  0020                     __pcstackBANK0:	
  1131                           ; 1 bytes @ 0xE
  1132                           
  1133  0020                     ??___xxtofl:
  1134  0020                     ?_frexp:	
  1135                           ; 1 bytes @ 0x0
  1136                           
  1137  0020                     frexp@value:	
  1138                           ; 4 bytes @ 0x0
  1139                           
  1140                           
  1141                           ; 4 bytes @ 0x0
  1142  0020                     	ds	4
  1143  0024                     ___xxtofl@sign:
  1144  0024                     frexp@eptr:	
  1145                           ; 1 bytes @ 0x4
  1146                           
  1147                           
  1148                           ; 1 bytes @ 0x4
  1149  0024                     	ds	1
  1150  0025                     ___xxtofl@exp:
  1151                           
  1152                           ; 1 bytes @ 0x5
  1153  0025                     	ds	1
  1154  0026                     ___xxtofl@arg:
  1155                           
  1156                           ; 4 bytes @ 0x6
  1157  0026                     	ds	4
  1158  002A                     ?___fladd:
  1159  002A                     ___fladd@b:	
  1160                           ; 4 bytes @ 0xA
  1161                           
  1162                           
  1163                           ; 4 bytes @ 0xA
  1164  002A                     	ds	4
  1165  002E                     ___fladd@a:
  1166                           
  1167                           ; 4 bytes @ 0xE
  1168  002E                     	ds	4
  1169  0032                     ??___fladd:
  1170                           
  1171                           ; 1 bytes @ 0x12
  1172  0032                     	ds	8
  1173  003A                     ___fladd@signs:
  1174                           
  1175                           ; 1 bytes @ 0x1A
  1176  003A                     	ds	1
  1177  003B                     ___fladd@aexp:
  1178                           
  1179                           ; 1 bytes @ 0x1B
  1180  003B                     	ds	1
  1181  003C                     ___fladd@bexp:
  1182                           
  1183                           ; 1 bytes @ 0x1C
  1184  003C                     	ds	1
  1185  003D                     ___fladd@grs:
  1186                           
  1187                           ; 1 bytes @ 0x1D
  1188  003D                     	ds	1
  1189  003E                     ?___flmul:
  1190  003E                     ___flmul@b:	
  1191                           ; 4 bytes @ 0x1E
  1192                           
  1193                           
  1194                           ; 4 bytes @ 0x1E
  1195  003E                     	ds	4
  1196  0042                     ___flmul@a:
  1197                           
  1198                           ; 4 bytes @ 0x22
  1199  0042                     	ds	4
  1200  0046                     ??___flmul:
  1201                           
  1202                           ; 1 bytes @ 0x26
  1203  0046                     	ds	5
  1204  004B                     ___flmul@sign:
  1205                           
  1206                           ; 1 bytes @ 0x2B
  1207  004B                     	ds	1
  1208  004C                     ___flmul@grs:
  1209                           
  1210                           ; 4 bytes @ 0x2C
  1211  004C                     	ds	4
  1212  0050                     ___flmul@aexp:
  1213                           
  1214                           ; 1 bytes @ 0x30
  1215  0050                     	ds	1
  1216  0051                     ___flmul@bexp:
  1217                           
  1218                           ; 1 bytes @ 0x31
  1219  0051                     	ds	1
  1220  0052                     ___flmul@prod:
  1221                           
  1222                           ; 4 bytes @ 0x32
  1223  0052                     	ds	4
  1224  0056                     ___flmul@temp:
  1225                           
  1226                           ; 2 bytes @ 0x36
  1227  0056                     	ds	2
  1228  0058                     ?_eval_poly:
  1229  0058                     ?___fldiv:	
  1230                           ; 4 bytes @ 0x38
  1231                           
  1232  0058                     ___fldiv@a:	
  1233                           ; 4 bytes @ 0x38
  1234                           
  1235  0058                     eval_poly@x:	
  1236                           ; 4 bytes @ 0x38
  1237                           
  1238                           
  1239                           ; 4 bytes @ 0x38
  1240  0058                     	ds	4
  1241  005C                     eval_poly@d:
  1242  005C                     ___fldiv@b:	
  1243                           ; 1 bytes @ 0x3C
  1244                           
  1245                           
  1246                           ; 4 bytes @ 0x3C
  1247  005C                     	ds	1
  1248  005D                     eval_poly@n:
  1249                           
  1250                           ; 2 bytes @ 0x3D
  1251  005D                     	ds	2
  1252  005F                     ??_eval_poly:
  1253                           
  1254                           ; 1 bytes @ 0x3F
  1255  005F                     	ds	1
  1256  0060                     ??___fldiv:
  1257                           
  1258                           ; 1 bytes @ 0x40
  1259  0060                     	ds	4
  1260  0064                     eval_poly@res:
  1261                           
  1262                           ; 4 bytes @ 0x44
  1263  0064                     	ds	1
  1264  0065                     ?___flsub:
  1265  0065                     ___flsub@a:	
  1266                           ; 4 bytes @ 0x45
  1267                           
  1268                           
  1269                           ; 4 bytes @ 0x45
  1270  0065                     	ds	3
  1271  0068                     ?_log:
  1272  0068                     log@x:	
  1273                           ; 4 bytes @ 0x48
  1274                           
  1275                           
  1276                           ; 4 bytes @ 0x48
  1277  0068                     	ds	1
  1278  0069                     ___flsub@b:
  1279                           
  1280                           ; 4 bytes @ 0x49
  1281  0069                     	ds	3
  1282  006C                     ??_log:
  1283                           
  1284                           ; 1 bytes @ 0x4C
  1285  006C                     	ds	1
  1286  006D                     i1___fltol@sign1:
  1287  006D                     log@exponent:	
  1288                           ; 1 bytes @ 0x4D
  1289                           
  1290                           
  1291                           ; 2 bytes @ 0x4D
  1292  006D                     	ds	1
  1293  006E                     i1___fltol@exp1:
  1294                           
  1295                           ; 1 bytes @ 0x4E
  1296  006E                     	ds	1
  1297                           
  1298                           	psect	maintext
  1299  1385                     __pmaintext:	
  1300 ;;
  1301 ;;Main: autosize = 0, tempsize = 0, incstack = 0, save=0
  1302 ;;
  1303 ;; *************** function _main *****************
  1304 ;; Defined at:
  1305 ;;		line 101 in file "main_slave_p1.c"
  1306 ;; Parameters:    Size  Location     Type
  1307 ;;		None
  1308 ;; Auto vars:     Size  Location     Type
  1309 ;;		None
  1310 ;; Return value:  Size  Location     Type
  1311 ;;                  1    wreg      void 
  1312 ;; Registers used:
  1313 ;;		wreg, fsr0l, fsr0h, status,2, status,0, btemp+1, pclath, cstack
  1314 ;; Tracked objects:
  1315 ;;		On entry : B00/0
  1316 ;;		On exit  : 0/0
  1317 ;;		Unchanged: 0/0
  1318 ;; Data sizes:     COMMON   BANK0   BANK1   BANK3   BANK2
  1319 ;;      Params:         0       0       0       0       0
  1320 ;;      Locals:         0       0       0       0       0
  1321 ;;      Temps:          0       0       0       0       0
  1322 ;;      Totals:         0       0       0       0       0
  1323 ;;Total ram usage:        0 bytes
  1324 ;; Hardware stack levels required when called: 8
  1325 ;; This function calls:
  1326 ;;		___fltol
  1327 ;;		_adc_ch_switch
  1328 ;;		_motor_dc
  1329 ;;		_servo
  1330 ;;		_setup
  1331 ;; This function is called by:
  1332 ;;		Startup code after reset
  1333 ;; This function uses a non-reentrant model
  1334 ;;
  1335                           
  1336  1385                     _main:	
  1337                           ;psect for function _main
  1338                           
  1339  1385                     l3168:	
  1340                           ;incstack = 0
  1341                           ; Regs used in _main: [wreg-fsr0h+status,2+status,0+btemp+1+pclath+cstack]
  1342                           
  1343                           
  1344                           ;main_slave_p1.c: 102:     setup();
  1345  1385  160A  118A  240B  160A  118A  	fcall	_setup
  1346  138A                     l89:	
  1347                           ;main_slave_p1.c: 103:     while(1){
  1348                           
  1349                           
  1350                           ;main_slave_p1.c: 104:         adc_ch_switch(1);
  1351  138A  3001               	movlw	1
  1352  138B  120A  158A  20AC  160A  118A  	fcall	_adc_ch_switch
  1353  1390                     l3170:
  1354                           
  1355                           ;main_slave_p1.c: 105:         motor_dc(TC);
  1356  1390  1683               	bsf	3,5	;RP0=1, select bank1
  1357  1391  1303               	bcf	3,6	;RP1=0, select bank1
  1358  1392  085B               	movf	(_TC+3)^(0+128),w
  1359  1393  1683               	bsf	3,5	;RP0=1, select bank3
  1360  1394  1703               	bsf	3,6	;RP1=1, select bank3
  1361  1395  0093               	movwf	(___fltol@f1+3)^(0+384)
  1362  1396  1683               	bsf	3,5	;RP0=1, select bank1
  1363  1397  1303               	bcf	3,6	;RP1=0, select bank1
  1364  1398  085A               	movf	(_TC+2)^(0+128),w
  1365  1399  1683               	bsf	3,5	;RP0=1, select bank3
  1366  139A  1703               	bsf	3,6	;RP1=1, select bank3
  1367  139B  0092               	movwf	(___fltol@f1+2)^(0+384)
  1368  139C  1683               	bsf	3,5	;RP0=1, select bank1
  1369  139D  1303               	bcf	3,6	;RP1=0, select bank1
  1370  139E  0859               	movf	(_TC+1)^(0+128),w
  1371  139F  1683               	bsf	3,5	;RP0=1, select bank3
  1372  13A0  1703               	bsf	3,6	;RP1=1, select bank3
  1373  13A1  0091               	movwf	(___fltol@f1+1)^(0+384)
  1374  13A2  1683               	bsf	3,5	;RP0=1, select bank1
  1375  13A3  1303               	bcf	3,6	;RP1=0, select bank1
  1376  13A4  0858               	movf	_TC^(0+128),w
  1377  13A5  1683               	bsf	3,5	;RP0=1, select bank3
  1378  13A6  1703               	bsf	3,6	;RP1=1, select bank3
  1379  13A7  0090               	movwf	___fltol@f1^(0+384)
  1380  13A8  160A  118A  25D4  160A  118A  	fcall	___fltol
  1381  13AD  1683               	bsf	3,5	;RP0=1, select bank3
  1382  13AE  1703               	bsf	3,6	;RP1=1, select bank3
  1383  13AF  0811               	movf	(?___fltol+1)^(0+384),w
  1384  13B0  009C               	movwf	(motor_dc@temp+1)^(0+384)
  1385  13B1  0810               	movf	?___fltol^(0+384),w
  1386  13B2  009B               	movwf	motor_dc@temp^(0+384)
  1387  13B3  120A  118A  27C8  160A  118A  	fcall	_motor_dc
  1388  13B8                     l3172:
  1389                           
  1390                           ;main_slave_p1.c: 106:         servo(switch_servo);
  1391  13B8  1683               	bsf	3,5	;RP0=1, select bank3
  1392  13B9  1703               	bsf	3,6	;RP1=1, select bank3
  1393  13BA  083B               	movf	(_switch_servo+1)^(0+384),w
  1394  13BB  0095               	movwf	(servo@mov+1)^(0+384)
  1395  13BC  083A               	movf	_switch_servo^(0+384),w
  1396  13BD  0094               	movwf	servo@mov^(0+384)
  1397  13BE  160A  118A  22CD  160A  118A  	fcall	_servo
  1398  13C3  2B8A               	goto	l89
  1399  13C4  120A  118A  2812   	ljmp	start
  1400  13C7                     __end_of_main:
  1401                           
  1402                           	psect	text1
  1403  140B                     __ptext1:	
  1404 ;; *************** function _setup *****************
  1405 ;; Defined at:
  1406 ;;		line 152 in file "main_slave_p1.c"
  1407 ;; Parameters:    Size  Location     Type
  1408 ;;		None
  1409 ;; Auto vars:     Size  Location     Type
  1410 ;;		None
  1411 ;; Return value:  Size  Location     Type
  1412 ;;                  1    wreg      void 
  1413 ;; Registers used:
  1414 ;;		wreg, fsr0l, fsr0h, status,2, status,0, pclath, cstack
  1415 ;; Tracked objects:
  1416 ;;		On entry : 0/0
  1417 ;;		On exit  : 0/0
  1418 ;;		Unchanged: 0/0
  1419 ;; Data sizes:     COMMON   BANK0   BANK1   BANK3   BANK2
  1420 ;;      Params:         0       0       0       0       0
  1421 ;;      Locals:         0       0       0       0       0
  1422 ;;      Temps:          0       0       0       0       0
  1423 ;;      Totals:         0       0       0       0       0
  1424 ;;Total ram usage:        0 bytes
  1425 ;; Hardware stack levels used: 1
  1426 ;; Hardware stack levels required when called: 7
  1427 ;; This function calls:
  1428 ;;		_USART_set
  1429 ;;		_adc_init
  1430 ;;		_int_osc_MHz
  1431 ;;		_pwm_init
  1432 ;; This function is called by:
  1433 ;;		_main
  1434 ;; This function uses a non-reentrant model
  1435 ;;
  1436                           
  1437  140B                     _setup:	
  1438                           ;psect for function _setup
  1439                           
  1440  140B                     l2942:	
  1441                           ;incstack = 0
  1442                           ; Regs used in _setup: [wreg-fsr0h+status,2+status,0+pclath+cstack]
  1443                           
  1444                           
  1445                           ;main_slave_p1.c: 153:     int_osc_MHz(1);
  1446  140B  3001               	movlw	1
  1447  140C  160A  118A  2307  160A  118A  	fcall	_int_osc_MHz
  1448  1411                     l2944:
  1449                           
  1450                           ;main_slave_p1.c: 156:     ANSEL = 0x01;
  1451  1411  3001               	movlw	1
  1452  1412  1683               	bsf	3,5	;RP0=1, select bank3
  1453  1413  1703               	bsf	3,6	;RP1=1, select bank3
  1454  1414  0088               	movwf	8	;volatile
  1455  1415                     l2946:
  1456                           
  1457                           ;main_slave_p1.c: 157:     ANSELH = 0;
  1458  1415  0189               	clrf	9	;volatile
  1459  1416                     l2948:
  1460                           
  1461                           ;main_slave_p1.c: 158:     TRISAbits.TRISA0 = 1;
  1462  1416  1683               	bsf	3,5	;RP0=1, select bank1
  1463  1417  1303               	bcf	3,6	;RP1=0, select bank1
  1464  1418  1405               	bsf	5,0	;volatile
  1465  1419                     l2950:
  1466                           
  1467                           ;main_slave_p1.c: 160:     TRISBbits.TRISB0 = 0;
  1468  1419  1006               	bcf	6,0	;volatile
  1469  141A                     l2952:
  1470                           
  1471                           ;main_slave_p1.c: 161:     PORTBbits.RB0 = 0;
  1472  141A  1283               	bcf	3,5	;RP0=0, select bank0
  1473  141B  1303               	bcf	3,6	;RP1=0, select bank0
  1474  141C  1006               	bcf	6,0	;volatile
  1475  141D                     l2954:
  1476                           
  1477                           ;main_slave_p1.c: 162:     TRISBbits.TRISB1 = 1;
  1478  141D  1683               	bsf	3,5	;RP0=1, select bank1
  1479  141E  1303               	bcf	3,6	;RP1=0, select bank1
  1480  141F  1486               	bsf	6,1	;volatile
  1481  1420                     l2956:
  1482                           
  1483                           ;main_slave_p1.c: 163:     PORTBbits.RB1 = 0;
  1484  1420  1283               	bcf	3,5	;RP0=0, select bank0
  1485  1421  1303               	bcf	3,6	;RP1=0, select bank0
  1486  1422  1086               	bcf	6,1	;volatile
  1487  1423                     l2958:
  1488                           
  1489                           ;main_slave_p1.c: 164:     OPTION_REGbits.nRBPU = 0;
  1490  1423  1683               	bsf	3,5	;RP0=1, select bank1
  1491  1424  1303               	bcf	3,6	;RP1=0, select bank1
  1492  1425  1381               	bcf	1,7	;volatile
  1493  1426                     l2960:
  1494                           
  1495                           ;main_slave_p1.c: 165:     WPUBbits.WPUB = 0x02;
  1496  1426  3002               	movlw	2
  1497  1427  0095               	movwf	21	;volatile
  1498  1428                     l2962:
  1499                           
  1500                           ;main_slave_p1.c: 167:     pwm_init(1);
  1501  1428  3001               	movlw	1
  1502  1429  160A  118A  2344  160A  118A  	fcall	_pwm_init
  1503  142E                     l2964:
  1504                           
  1505                           ;main_slave_p1.c: 168:     USART_set(9600);
  1506  142E  3000               	movlw	0
  1507  142F  1683               	bsf	3,5	;RP0=1, select bank3
  1508  1430  1703               	bsf	3,6	;RP1=1, select bank3
  1509  1431  00A1               	movwf	(USART_set@baudrate+3)^(0+384)
  1510  1432  3000               	movlw	0
  1511  1433  00A0               	movwf	(USART_set@baudrate+2)^(0+384)
  1512  1434  3025               	movlw	37
  1513  1435  009F               	movwf	(USART_set@baudrate+1)^(0+384)
  1514  1436  3080               	movlw	128
  1515  1437  009E               	movwf	USART_set@baudrate^(0+384)
  1516  1438  160A  118A  2567  160A  118A  	fcall	_USART_set
  1517  143D                     l2966:
  1518                           
  1519                           ;main_slave_p1.c: 169:     adc_init(0,0,0);
  1520  143D  1683               	bsf	3,5	;RP0=1, select bank3
  1521  143E  1703               	bsf	3,6	;RP1=1, select bank3
  1522  143F  0190               	clrf	adc_init@vref_plus^(0+384)
  1523  1440  0191               	clrf	adc_init@vref_minus^(0+384)
  1524  1441  3000               	movlw	0
  1525  1442  160A  118A  2650  160A  118A  	fcall	_adc_init
  1526  1447                     l2968:
  1527                           
  1528                           ;main_slave_p1.c: 171:     TRISD = 0;
  1529  1447  1683               	bsf	3,5	;RP0=1, select bank1
  1530  1448  1303               	bcf	3,6	;RP1=0, select bank1
  1531  1449  0188               	clrf	8	;volatile
  1532  144A                     l2970:
  1533                           
  1534                           ;main_slave_p1.c: 172:     PORTD = 0;
  1535  144A  1283               	bcf	3,5	;RP0=0, select bank0
  1536  144B  1303               	bcf	3,6	;RP1=0, select bank0
  1537  144C  0188               	clrf	8	;volatile
  1538  144D                     l2972:
  1539                           
  1540                           ;main_slave_p1.c: 175:     INTCONbits.GIE = 1;
  1541  144D  178B               	bsf	11,7	;volatile
  1542  144E                     l2974:
  1543                           
  1544                           ;main_slave_p1.c: 176:     INTCONbits.PEIE = 1;
  1545  144E  170B               	bsf	11,6	;volatile
  1546  144F                     l2976:
  1547                           
  1548                           ;main_slave_p1.c: 177:     INTCONbits.RBIE = 1;
  1549  144F  158B               	bsf	11,3	;volatile
  1550  1450                     l2978:
  1551                           
  1552                           ;main_slave_p1.c: 178:     IOCBbits.IOCB1 = 1;
  1553  1450  1683               	bsf	3,5	;RP0=1, select bank1
  1554  1451  1303               	bcf	3,6	;RP1=0, select bank1
  1555  1452  1496               	bsf	22,1	;volatile
  1556  1453                     l2980:
  1557                           
  1558                           ;main_slave_p1.c: 179:     INTCONbits.RBIF = 0;
  1559  1453  100B               	bcf	11,0	;volatile
  1560  1454                     l110:
  1561  1454  0008               	return
  1562  1455                     __end_of_setup:
  1563                           
  1564                           	psect	text2
  1565  1344                     __ptext2:	
  1566 ;; *************** function _pwm_init *****************
  1567 ;; Defined at:
  1568 ;;		line 12 in file "pwm.c"
  1569 ;; Parameters:    Size  Location     Type
  1570 ;;  channel         1    wreg     unsigned char 
  1571 ;; Auto vars:     Size  Location     Type
  1572 ;;  channel         1    2[BANK3 ] unsigned char 
  1573 ;; Return value:  Size  Location     Type
  1574 ;;                  1    wreg      void 
  1575 ;; Registers used:
  1576 ;;		wreg, fsr0l, fsr0h, status,2, status,0
  1577 ;; Tracked objects:
  1578 ;;		On entry : 0/0
  1579 ;;		On exit  : 0/0
  1580 ;;		Unchanged: 0/0
  1581 ;; Data sizes:     COMMON   BANK0   BANK1   BANK3   BANK2
  1582 ;;      Params:         0       0       0       0       0
  1583 ;;      Locals:         0       0       0       1       0
  1584 ;;      Temps:          0       0       0       2       0
  1585 ;;      Totals:         0       0       0       3       0
  1586 ;;Total ram usage:        3 bytes
  1587 ;; Hardware stack levels used: 1
  1588 ;; Hardware stack levels required when called: 5
  1589 ;; This function calls:
  1590 ;;		Nothing
  1591 ;; This function is called by:
  1592 ;;		_setup
  1593 ;; This function uses a non-reentrant model
  1594 ;;
  1595                           
  1596  1344                     _pwm_init:	
  1597                           ;psect for function _pwm_init
  1598                           
  1599                           
  1600                           ;incstack = 0
  1601                           ; Regs used in _pwm_init: [wreg-fsr0h+status,2+status,0]
  1602                           ;pwm_init@channel stored from wreg
  1603  1344  1683               	bsf	3,5	;RP0=1, select bank3
  1604  1345  1703               	bsf	3,6	;RP1=1, select bank3
  1605  1346  0092               	movwf	pwm_init@channel^(0+384)
  1606  1347                     l2552:
  1607                           
  1608                           ;pwm.c: 13:     switch(channel) {
  1609  1347  2B60               	goto	l2566
  1610  1348                     l232:	
  1611                           ;pwm.c: 14:         case 1:
  1612                           
  1613                           
  1614                           ;pwm.c: 15:             TRISCbits.TRISC2 = 1;
  1615  1348  1683               	bsf	3,5	;RP0=1, select bank1
  1616  1349  1303               	bcf	3,6	;RP1=0, select bank1
  1617  134A  1507               	bsf	7,2	;volatile
  1618  134B                     l2554:
  1619                           
  1620                           ;pwm.c: 16:             CCP1CON = 0;
  1621  134B  1283               	bcf	3,5	;RP0=0, select bank0
  1622  134C  1303               	bcf	3,6	;RP1=0, select bank0
  1623  134D  0197               	clrf	23	;volatile
  1624  134E                     l2556:
  1625                           
  1626                           ;pwm.c: 17:             CCP1CONbits.P1M = 0;
  1627  134E  303F               	movlw	-193
  1628  134F  0597               	andwf	23,f	;volatile
  1629  1350                     l2558:
  1630                           
  1631                           ;pwm.c: 18:             CCP1CONbits.CCP1M = 0b1100;
  1632  1350  0817               	movf	23,w	;volatile
  1633  1351  39F0               	andlw	-16
  1634  1352  380C               	iorlw	12
  1635  1353  0097               	movwf	23	;volatile
  1636                           
  1637                           ;pwm.c: 19:             break;
  1638  1354  2B70               	goto	l2568
  1639  1355                     l234:	
  1640                           ;pwm.c: 20:         case 2:
  1641                           
  1642                           
  1643                           ;pwm.c: 21:             TRISCbits.TRISC1 = 1;
  1644  1355  1683               	bsf	3,5	;RP0=1, select bank1
  1645  1356  1303               	bcf	3,6	;RP1=0, select bank1
  1646  1357  1487               	bsf	7,1	;volatile
  1647  1358                     l2560:
  1648                           
  1649                           ;pwm.c: 22:             CCP2CON = 0;
  1650  1358  1283               	bcf	3,5	;RP0=0, select bank0
  1651  1359  1303               	bcf	3,6	;RP1=0, select bank0
  1652  135A  019D               	clrf	29	;volatile
  1653  135B                     l2562:
  1654                           
  1655                           ;pwm.c: 23:             CCP2CONbits.CCP2M = 0b1100;
  1656  135B  081D               	movf	29,w	;volatile
  1657  135C  39F0               	andlw	-16
  1658  135D  380C               	iorlw	12
  1659  135E  009D               	movwf	29	;volatile
  1660                           
  1661                           ;pwm.c: 24:             break;
  1662  135F  2B70               	goto	l2568
  1663  1360                     l2566:
  1664  1360  0812               	movf	pwm_init@channel^(0+384),w
  1665  1361  0090               	movwf	??_pwm_init^(0+384)
  1666  1362  0191               	clrf	(??_pwm_init^(0+384)+1)
  1667                           
  1668                           ; Switch on 2 bytes has been partitioned into a top level switch of size 1, and 1 sub-sw
      +                          itches
  1669                           ; Switch size 1, requested type "simple"
  1670                           ; Number of cases is 1, Range of values is 0 to 0
  1671                           ; switch strategies available:
  1672                           ; Name         Instructions Cycles
  1673                           ; simple_byte            4     3 (average)
  1674                           ; direct_byte           11     8 (fixed)
  1675                           ; jumptable            260     6 (fixed)
  1676                           ;	Chosen strategy is simple_byte
  1677  1363  0811               	movf	(??_pwm_init+1)^(0+384),w
  1678  1364  3A00               	xorlw	0	; case 0
  1679  1365  1903               	skipnz
  1680  1366  2B68               	goto	l3362
  1681  1367  2B70               	goto	l2568
  1682  1368                     l3362:
  1683                           
  1684                           ; Switch size 1, requested type "simple"
  1685                           ; Number of cases is 2, Range of values is 1 to 2
  1686                           ; switch strategies available:
  1687                           ; Name         Instructions Cycles
  1688                           ; simple_byte            7     4 (average)
  1689                           ; direct_byte           17    11 (fixed)
  1690                           ; jumptable            263     9 (fixed)
  1691                           ;	Chosen strategy is simple_byte
  1692  1368  0810               	movf	??_pwm_init^(0+384),w
  1693  1369  3A01               	xorlw	1	; case 1
  1694  136A  1903               	skipnz
  1695  136B  2B48               	goto	l232
  1696  136C  3A03               	xorlw	3	; case 2
  1697  136D  1903               	skipnz
  1698  136E  2B55               	goto	l234
  1699  136F  2B70               	goto	l2568
  1700  1370                     l2568:
  1701                           
  1702                           ;pwm.c: 28:     T2CONbits.T2CKPS = 0b11;
  1703  1370  3003               	movlw	3
  1704  1371  1283               	bcf	3,5	;RP0=0, select bank0
  1705  1372  1303               	bcf	3,6	;RP1=0, select bank0
  1706  1373  0492               	iorwf	18,f	;volatile
  1707  1374                     l2570:
  1708                           
  1709                           ;pwm.c: 29:     PR2 = 255;
  1710  1374  30FF               	movlw	255
  1711  1375  1683               	bsf	3,5	;RP0=1, select bank1
  1712  1376  1303               	bcf	3,6	;RP1=0, select bank1
  1713  1377  0092               	movwf	18	;volatile
  1714  1378                     l2572:
  1715                           
  1716                           ;pwm.c: 32:     PIR1bits.TMR2IF = 0;
  1717  1378  1283               	bcf	3,5	;RP0=0, select bank0
  1718  1379  1303               	bcf	3,6	;RP1=0, select bank0
  1719  137A  108C               	bcf	12,1	;volatile
  1720  137B                     l2574:
  1721                           
  1722                           ;pwm.c: 33:     T2CONbits.TMR2ON = 1;
  1723  137B  1512               	bsf	18,2	;volatile
  1724  137C                     l236:	
  1725                           ;pwm.c: 34:     while(!PIR1bits.TMR2IF);
  1726                           
  1727  137C  1C8C               	btfss	12,1	;volatile
  1728  137D  2B7F               	goto	u3021
  1729  137E  2B80               	goto	u3020
  1730  137F                     u3021:
  1731  137F  2B7C               	goto	l236
  1732  1380                     u3020:
  1733  1380                     l238:
  1734                           
  1735                           ;pwm.c: 35:     PIR1bits.TMR2IF = 0;
  1736  1380  108C               	bcf	12,1	;volatile
  1737                           
  1738                           ;pwm.c: 36:     TRISCbits.TRISC2 = 0;
  1739  1381  1683               	bsf	3,5	;RP0=1, select bank1
  1740  1382  1303               	bcf	3,6	;RP1=0, select bank1
  1741  1383  1107               	bcf	7,2	;volatile
  1742  1384                     l239:
  1743  1384  0008               	return
  1744  1385                     __end_of_pwm_init:
  1745                           
  1746                           	psect	text3
  1747  1307                     __ptext3:	
  1748 ;; *************** function _int_osc_MHz *****************
  1749 ;; Defined at:
  1750 ;;		line 13 in file "osc.c"
  1751 ;; Parameters:    Size  Location     Type
  1752 ;;  freq            1    wreg     unsigned char 
  1753 ;; Auto vars:     Size  Location     Type
  1754 ;;  freq            1    2[BANK3 ] unsigned char 
  1755 ;; Return value:  Size  Location     Type
  1756 ;;                  1    wreg      void 
  1757 ;; Registers used:
  1758 ;;		wreg, fsr0l, fsr0h, status,2, status,0
  1759 ;; Tracked objects:
  1760 ;;		On entry : 0/0
  1761 ;;		On exit  : 0/0
  1762 ;;		Unchanged: 0/0
  1763 ;; Data sizes:     COMMON   BANK0   BANK1   BANK3   BANK2
  1764 ;;      Params:         0       0       0       0       0
  1765 ;;      Locals:         0       0       0       1       0
  1766 ;;      Temps:          0       0       0       2       0
  1767 ;;      Totals:         0       0       0       3       0
  1768 ;;Total ram usage:        3 bytes
  1769 ;; Hardware stack levels used: 1
  1770 ;; Hardware stack levels required when called: 5
  1771 ;; This function calls:
  1772 ;;		Nothing
  1773 ;; This function is called by:
  1774 ;;		_setup
  1775 ;; This function uses a non-reentrant model
  1776 ;;
  1777                           
  1778  1307                     _int_osc_MHz:	
  1779                           ;psect for function _int_osc_MHz
  1780                           
  1781                           
  1782                           ;incstack = 0
  1783                           ; Regs used in _int_osc_MHz: [wreg-fsr0h+status,2+status,0]
  1784                           ;int_osc_MHz@freq stored from wreg
  1785  1307  1683               	bsf	3,5	;RP0=1, select bank3
  1786  1308  1703               	bsf	3,6	;RP1=1, select bank3
  1787  1309  0092               	movwf	int_osc_MHz@freq^(0+384)
  1788  130A                     l2530:
  1789                           
  1790                           ;osc.c: 14:     switch(freq){
  1791  130A  2B2C               	goto	l2544
  1792  130B                     l2532:
  1793                           
  1794                           ;osc.c: 16:             OSCCONbits.IRCF = 0b100;
  1795  130B  1683               	bsf	3,5	;RP0=1, select bank1
  1796  130C  1303               	bcf	3,6	;RP1=0, select bank1
  1797  130D  080F               	movf	15,w	;volatile
  1798  130E  398F               	andlw	-113
  1799  130F  3840               	iorlw	64
  1800  1310  008F               	movwf	15	;volatile
  1801                           
  1802                           ;osc.c: 17:             break;
  1803  1311  2B42               	goto	l117
  1804  1312                     l2534:
  1805                           
  1806                           ;osc.c: 19:             OSCCONbits.IRCF = 0b101;
  1807  1312  1683               	bsf	3,5	;RP0=1, select bank1
  1808  1313  1303               	bcf	3,6	;RP1=0, select bank1
  1809  1314  080F               	movf	15,w	;volatile
  1810  1315  398F               	andlw	-113
  1811  1316  3850               	iorlw	80
  1812  1317  008F               	movwf	15	;volatile
  1813                           
  1814                           ;osc.c: 20:             break;
  1815  1318  2B42               	goto	l117
  1816  1319                     l2536:
  1817                           
  1818                           ;osc.c: 22:             OSCCONbits.IRCF = 0b110;
  1819  1319  1683               	bsf	3,5	;RP0=1, select bank1
  1820  131A  1303               	bcf	3,6	;RP1=0, select bank1
  1821  131B  080F               	movf	15,w	;volatile
  1822  131C  398F               	andlw	-113
  1823  131D  3860               	iorlw	96
  1824  131E  008F               	movwf	15	;volatile
  1825                           
  1826                           ;osc.c: 23:             break;
  1827  131F  2B42               	goto	l117
  1828  1320                     l2538:
  1829                           
  1830                           ;osc.c: 25:             OSCCONbits.IRCF = 0b111;
  1831  1320  3070               	movlw	112
  1832  1321  1683               	bsf	3,5	;RP0=1, select bank1
  1833  1322  1303               	bcf	3,6	;RP1=0, select bank1
  1834  1323  048F               	iorwf	15,f	;volatile
  1835                           
  1836                           ;osc.c: 26:             break;
  1837  1324  2B42               	goto	l117
  1838  1325                     l2540:
  1839                           
  1840                           ;osc.c: 28:             OSCCONbits.IRCF = 0b110;
  1841  1325  1683               	bsf	3,5	;RP0=1, select bank1
  1842  1326  1303               	bcf	3,6	;RP1=0, select bank1
  1843  1327  080F               	movf	15,w	;volatile
  1844  1328  398F               	andlw	-113
  1845  1329  3860               	iorlw	96
  1846  132A  008F               	movwf	15	;volatile
  1847                           
  1848                           ;osc.c: 29:             break;
  1849  132B  2B42               	goto	l117
  1850  132C                     l2544:
  1851  132C  0812               	movf	int_osc_MHz@freq^(0+384),w
  1852  132D  0090               	movwf	??_int_osc_MHz^(0+384)
  1853  132E  0191               	clrf	(??_int_osc_MHz^(0+384)+1)
  1854                           
  1855                           ; Switch on 2 bytes has been partitioned into a top level switch of size 1, and 1 sub-sw
      +                          itches
  1856                           ; Switch size 1, requested type "simple"
  1857                           ; Number of cases is 1, Range of values is 0 to 0
  1858                           ; switch strategies available:
  1859                           ; Name         Instructions Cycles
  1860                           ; simple_byte            4     3 (average)
  1861                           ; direct_byte           11     8 (fixed)
  1862                           ; jumptable            260     6 (fixed)
  1863                           ;	Chosen strategy is simple_byte
  1864  132F  0811               	movf	(??_int_osc_MHz+1)^(0+384),w
  1865  1330  3A00               	xorlw	0	; case 0
  1866  1331  1903               	skipnz
  1867  1332  2B34               	goto	l3364
  1868  1333  2B25               	goto	l2540
  1869  1334                     l3364:
  1870                           
  1871                           ; Switch size 1, requested type "simple"
  1872                           ; Number of cases is 4, Range of values is 1 to 8
  1873                           ; switch strategies available:
  1874                           ; Name         Instructions Cycles
  1875                           ; simple_byte           13     7 (average)
  1876                           ; direct_byte           35    11 (fixed)
  1877                           ; jumptable            263     9 (fixed)
  1878                           ;	Chosen strategy is simple_byte
  1879  1334  0810               	movf	??_int_osc_MHz^(0+384),w
  1880  1335  3A01               	xorlw	1	; case 1
  1881  1336  1903               	skipnz
  1882  1337  2B0B               	goto	l2532
  1883  1338  3A03               	xorlw	3	; case 2
  1884  1339  1903               	skipnz
  1885  133A  2B12               	goto	l2534
  1886  133B  3A06               	xorlw	6	; case 4
  1887  133C  1903               	skipnz
  1888  133D  2B19               	goto	l2536
  1889  133E  3A0C               	xorlw	12	; case 8
  1890  133F  1903               	skipnz
  1891  1340  2B20               	goto	l2538
  1892  1341  2B25               	goto	l2540
  1893  1342                     l117:
  1894                           
  1895                           ;osc.c: 31:     OSCCONbits.SCS = 1;
  1896  1342  140F               	bsf	15,0	;volatile
  1897  1343                     l122:
  1898  1343  0008               	return
  1899  1344                     __end_of_int_osc_MHz:
  1900                           
  1901                           	psect	text4
  1902  1650                     __ptext4:	
  1903 ;; *************** function _adc_init *****************
  1904 ;; Defined at:
  1905 ;;		line 14 in file "adc.c"
  1906 ;; Parameters:    Size  Location     Type
  1907 ;;  adc_cs          1    wreg     unsigned char 
  1908 ;;  vref_plus       1    0[BANK3 ] unsigned char 
  1909 ;;  vref_minus      1    1[BANK3 ] unsigned char 
  1910 ;; Auto vars:     Size  Location     Type
  1911 ;;  adc_cs          1    4[BANK3 ] unsigned char 
  1912 ;; Return value:  Size  Location     Type
  1913 ;;                  1    wreg      void 
  1914 ;; Registers used:
  1915 ;;		wreg, fsr0l, fsr0h, status,2, status,0
  1916 ;; Tracked objects:
  1917 ;;		On entry : 0/0
  1918 ;;		On exit  : 0/0
  1919 ;;		Unchanged: 0/0
  1920 ;; Data sizes:     COMMON   BANK0   BANK1   BANK3   BANK2
  1921 ;;      Params:         0       0       0       2       0
  1922 ;;      Locals:         0       0       0       1       0
  1923 ;;      Temps:          0       0       0       2       0
  1924 ;;      Totals:         0       0       0       5       0
  1925 ;;Total ram usage:        5 bytes
  1926 ;; Hardware stack levels used: 1
  1927 ;; Hardware stack levels required when called: 5
  1928 ;; This function calls:
  1929 ;;		Nothing
  1930 ;; This function is called by:
  1931 ;;		_setup
  1932 ;; This function uses a non-reentrant model
  1933 ;;
  1934                           
  1935  1650                     _adc_init:	
  1936                           ;psect for function _adc_init
  1937                           
  1938                           
  1939                           ;incstack = 0
  1940                           ; Regs used in _adc_init: [wreg-fsr0h+status,2+status,0]
  1941                           ;adc_init@adc_cs stored from wreg
  1942  1650  1683               	bsf	3,5	;RP0=1, select bank3
  1943  1651  1703               	bsf	3,6	;RP1=1, select bank3
  1944  1652  0094               	movwf	adc_init@adc_cs^(0+384)
  1945  1653                     l2596:
  1946                           
  1947                           ;adc.c: 15:     switch(adc_cs){
  1948  1653  2E73               	goto	l2610
  1949  1654                     l2598:
  1950                           
  1951                           ;adc.c: 17:             ADCON0bits.ADCS = 0b00;
  1952  1654  303F               	movlw	-193
  1953  1655  1283               	bcf	3,5	;RP0=0, select bank0
  1954  1656  1303               	bcf	3,6	;RP1=0, select bank0
  1955  1657  059F               	andwf	31,f	;volatile
  1956                           
  1957                           ;adc.c: 18:             break;
  1958  1658  2E95               	goto	l2614
  1959  1659                     l2600:
  1960                           
  1961                           ;adc.c: 20:             ADCON0bits.ADCS = 0b01;
  1962  1659  1283               	bcf	3,5	;RP0=0, select bank0
  1963  165A  1303               	bcf	3,6	;RP1=0, select bank0
  1964  165B  081F               	movf	31,w	;volatile
  1965  165C  393F               	andlw	-193
  1966  165D  3840               	iorlw	64
  1967  165E  009F               	movwf	31	;volatile
  1968                           
  1969                           ;adc.c: 21:             break;
  1970  165F  2E95               	goto	l2614
  1971  1660                     l2602:
  1972                           
  1973                           ;adc.c: 23:             ADCON0bits.ADCS = 0b10;
  1974  1660  1283               	bcf	3,5	;RP0=0, select bank0
  1975  1661  1303               	bcf	3,6	;RP1=0, select bank0
  1976  1662  081F               	movf	31,w	;volatile
  1977  1663  393F               	andlw	-193
  1978  1664  3880               	iorlw	128
  1979  1665  009F               	movwf	31	;volatile
  1980                           
  1981                           ;adc.c: 24:             break;
  1982  1666  2E95               	goto	l2614
  1983  1667                     l2604:
  1984                           
  1985                           ;adc.c: 26:             ADCON0bits.ADCS = 0b11;
  1986  1667  30C0               	movlw	192
  1987  1668  1283               	bcf	3,5	;RP0=0, select bank0
  1988  1669  1303               	bcf	3,6	;RP1=0, select bank0
  1989  166A  049F               	iorwf	31,f	;volatile
  1990                           
  1991                           ;adc.c: 27:             break;
  1992  166B  2E95               	goto	l2614
  1993  166C                     l2606:
  1994                           
  1995                           ;adc.c: 29:             ADCON0bits.ADCS = 0b01;
  1996  166C  1283               	bcf	3,5	;RP0=0, select bank0
  1997  166D  1303               	bcf	3,6	;RP1=0, select bank0
  1998  166E  081F               	movf	31,w	;volatile
  1999  166F  393F               	andlw	-193
  2000  1670  3840               	iorlw	64
  2001  1671  009F               	movwf	31	;volatile
  2002                           
  2003                           ;adc.c: 30:             break;
  2004  1672  2E95               	goto	l2614
  2005  1673                     l2610:
  2006  1673  0814               	movf	adc_init@adc_cs^(0+384),w
  2007  1674  0092               	movwf	??_adc_init^(0+384)
  2008  1675  0193               	clrf	(??_adc_init^(0+384)+1)
  2009                           
  2010                           ; Switch on 2 bytes has been partitioned into a top level switch of size 1, and 1 sub-sw
      +                          itches
  2011                           ; Switch size 1, requested type "simple"
  2012                           ; Number of cases is 1, Range of values is 0 to 0
  2013                           ; switch strategies available:
  2014                           ; Name         Instructions Cycles
  2015                           ; simple_byte            4     3 (average)
  2016                           ; direct_byte           11     8 (fixed)
  2017                           ; jumptable            260     6 (fixed)
  2018                           ;	Chosen strategy is simple_byte
  2019  1676  0813               	movf	(??_adc_init+1)^(0+384),w
  2020  1677  3A00               	xorlw	0	; case 0
  2021  1678  1903               	skipnz
  2022  1679  2E7B               	goto	l3366
  2023  167A  2E6C               	goto	l2606
  2024  167B                     l3366:
  2025                           
  2026                           ; Switch size 1, requested type "simple"
  2027                           ; Number of cases is 4, Range of values is 0 to 3
  2028                           ; switch strategies available:
  2029                           ; Name         Instructions Cycles
  2030                           ; simple_byte           13     7 (average)
  2031                           ; direct_byte           20     8 (fixed)
  2032                           ; jumptable            260     6 (fixed)
  2033                           ;	Chosen strategy is simple_byte
  2034  167B  0812               	movf	??_adc_init^(0+384),w
  2035  167C  3A00               	xorlw	0	; case 0
  2036  167D  1903               	skipnz
  2037  167E  2E54               	goto	l2598
  2038  167F  3A01               	xorlw	1	; case 1
  2039  1680  1903               	skipnz
  2040  1681  2E59               	goto	l2600
  2041  1682  3A03               	xorlw	3	; case 2
  2042  1683  1903               	skipnz
  2043  1684  2E60               	goto	l2602
  2044  1685  3A01               	xorlw	1	; case 3
  2045  1686  1903               	skipnz
  2046  1687  2E67               	goto	l2604
  2047  1688  2E6C               	goto	l2606
  2048  1689                     l174:	
  2049                           ;adc.c: 33:         case 0:
  2050                           
  2051                           
  2052                           ;adc.c: 34:             ADCON1bits.VCFG0 = 0;
  2053  1689  1683               	bsf	3,5	;RP0=1, select bank1
  2054  168A  1303               	bcf	3,6	;RP1=0, select bank1
  2055  168B  121F               	bcf	31,4	;volatile
  2056                           
  2057                           ;adc.c: 35:             break;
  2058  168C  2EB3               	goto	l2618
  2059  168D                     l176:	
  2060                           ;adc.c: 36:         case 1:
  2061                           
  2062                           
  2063                           ;adc.c: 37:             ADCON1bits.VCFG0 = 1;
  2064  168D  1683               	bsf	3,5	;RP0=1, select bank1
  2065  168E  1303               	bcf	3,6	;RP1=0, select bank1
  2066  168F  161F               	bsf	31,4	;volatile
  2067                           
  2068                           ;adc.c: 38:             break;
  2069  1690  2EB3               	goto	l2618
  2070  1691                     l177:	
  2071                           ;adc.c: 39:         default:
  2072                           
  2073                           
  2074                           ;adc.c: 40:             ADCON1bits.VCFG0 = 0;
  2075  1691  1683               	bsf	3,5	;RP0=1, select bank1
  2076  1692  1303               	bcf	3,6	;RP1=0, select bank1
  2077  1693  121F               	bcf	31,4	;volatile
  2078                           
  2079                           ;adc.c: 41:             break;
  2080  1694  2EB3               	goto	l2618
  2081  1695                     l2614:
  2082  1695  1683               	bsf	3,5	;RP0=1, select bank3
  2083  1696  1703               	bsf	3,6	;RP1=1, select bank3
  2084  1697  0810               	movf	adc_init@vref_plus^(0+384),w
  2085  1698  0092               	movwf	??_adc_init^(0+384)
  2086  1699  0193               	clrf	(??_adc_init^(0+384)+1)
  2087                           
  2088                           ; Switch on 2 bytes has been partitioned into a top level switch of size 1, and 1 sub-sw
      +                          itches
  2089                           ; Switch size 1, requested type "simple"
  2090                           ; Number of cases is 1, Range of values is 0 to 0
  2091                           ; switch strategies available:
  2092                           ; Name         Instructions Cycles
  2093                           ; simple_byte            4     3 (average)
  2094                           ; direct_byte           11     8 (fixed)
  2095                           ; jumptable            260     6 (fixed)
  2096                           ;	Chosen strategy is simple_byte
  2097  169A  0813               	movf	(??_adc_init+1)^(0+384),w
  2098  169B  3A00               	xorlw	0	; case 0
  2099  169C  1903               	skipnz
  2100  169D  2E9F               	goto	l3368
  2101  169E  2E91               	goto	l177
  2102  169F                     l3368:
  2103                           
  2104                           ; Switch size 1, requested type "simple"
  2105                           ; Number of cases is 2, Range of values is 0 to 1
  2106                           ; switch strategies available:
  2107                           ; Name         Instructions Cycles
  2108                           ; simple_byte            7     4 (average)
  2109                           ; direct_byte           14     8 (fixed)
  2110                           ; jumptable            260     6 (fixed)
  2111                           ;	Chosen strategy is simple_byte
  2112  169F  0812               	movf	??_adc_init^(0+384),w
  2113  16A0  3A00               	xorlw	0	; case 0
  2114  16A1  1903               	skipnz
  2115  16A2  2E89               	goto	l174
  2116  16A3  3A01               	xorlw	1	; case 1
  2117  16A4  1903               	skipnz
  2118  16A5  2E8D               	goto	l176
  2119  16A6  2E91               	goto	l177
  2120  16A7                     l179:	
  2121                           ;adc.c: 44:         case 0:
  2122                           
  2123                           
  2124                           ;adc.c: 45:             ADCON1bits.VCFG1 = 0;
  2125  16A7  1683               	bsf	3,5	;RP0=1, select bank1
  2126  16A8  1303               	bcf	3,6	;RP1=0, select bank1
  2127  16A9  129F               	bcf	31,5	;volatile
  2128                           
  2129                           ;adc.c: 46:             break;
  2130  16AA  2EC5               	goto	l180
  2131  16AB                     l181:	
  2132                           ;adc.c: 47:         case 1:
  2133                           
  2134                           
  2135                           ;adc.c: 48:             ADCON1bits.VCFG1 = 1;
  2136  16AB  1683               	bsf	3,5	;RP0=1, select bank1
  2137  16AC  1303               	bcf	3,6	;RP1=0, select bank1
  2138  16AD  169F               	bsf	31,5	;volatile
  2139                           
  2140                           ;adc.c: 49:             break;
  2141  16AE  2EC5               	goto	l180
  2142  16AF                     l182:	
  2143                           ;adc.c: 50:         default:
  2144                           
  2145                           
  2146                           ;adc.c: 51:             ADCON1bits.VCFG1 = 0;
  2147  16AF  1683               	bsf	3,5	;RP0=1, select bank1
  2148  16B0  1303               	bcf	3,6	;RP1=0, select bank1
  2149  16B1  129F               	bcf	31,5	;volatile
  2150                           
  2151                           ;adc.c: 52:             break;
  2152  16B2  2EC5               	goto	l180
  2153  16B3                     l2618:
  2154  16B3  1683               	bsf	3,5	;RP0=1, select bank3
  2155  16B4  1703               	bsf	3,6	;RP1=1, select bank3
  2156  16B5  0811               	movf	adc_init@vref_minus^(0+384),w
  2157  16B6  0092               	movwf	??_adc_init^(0+384)
  2158  16B7  0193               	clrf	(??_adc_init^(0+384)+1)
  2159                           
  2160                           ; Switch on 2 bytes has been partitioned into a top level switch of size 1, and 1 sub-sw
      +                          itches
  2161                           ; Switch size 1, requested type "simple"
  2162                           ; Number of cases is 1, Range of values is 0 to 0
  2163                           ; switch strategies available:
  2164                           ; Name         Instructions Cycles
  2165                           ; simple_byte            4     3 (average)
  2166                           ; direct_byte           11     8 (fixed)
  2167                           ; jumptable            260     6 (fixed)
  2168                           ;	Chosen strategy is simple_byte
  2169  16B8  0813               	movf	(??_adc_init+1)^(0+384),w
  2170  16B9  3A00               	xorlw	0	; case 0
  2171  16BA  1903               	skipnz
  2172  16BB  2EBD               	goto	l3370
  2173  16BC  2EAF               	goto	l182
  2174  16BD                     l3370:
  2175                           
  2176                           ; Switch size 1, requested type "simple"
  2177                           ; Number of cases is 2, Range of values is 0 to 1
  2178                           ; switch strategies available:
  2179                           ; Name         Instructions Cycles
  2180                           ; simple_byte            7     4 (average)
  2181                           ; direct_byte           14     8 (fixed)
  2182                           ; jumptable            260     6 (fixed)
  2183                           ;	Chosen strategy is simple_byte
  2184  16BD  0812               	movf	??_adc_init^(0+384),w
  2185  16BE  3A00               	xorlw	0	; case 0
  2186  16BF  1903               	skipnz
  2187  16C0  2EA7               	goto	l179
  2188  16C1  3A01               	xorlw	1	; case 1
  2189  16C2  1903               	skipnz
  2190  16C3  2EAB               	goto	l181
  2191  16C4  2EAF               	goto	l182
  2192  16C5                     l180:
  2193                           
  2194                           ;adc.c: 54:     ADCON1bits.ADFM = 1;
  2195  16C5  179F               	bsf	31,7	;volatile
  2196                           
  2197                           ;adc.c: 55:     ADCON0bits.ADON = 1;
  2198  16C6  1283               	bcf	3,5	;RP0=0, select bank0
  2199  16C7  1303               	bcf	3,6	;RP1=0, select bank0
  2200  16C8  141F               	bsf	31,0	;volatile
  2201                           
  2202                           ;adc.c: 56:     PIE1bits.ADIE = 1;
  2203  16C9  1683               	bsf	3,5	;RP0=1, select bank1
  2204  16CA  1303               	bcf	3,6	;RP1=0, select bank1
  2205  16CB  170C               	bsf	12,6	;volatile
  2206                           
  2207                           ;adc.c: 57:     PIR1bits.ADIF = 0;
  2208  16CC  1283               	bcf	3,5	;RP0=0, select bank0
  2209  16CD  1303               	bcf	3,6	;RP1=0, select bank0
  2210  16CE  130C               	bcf	12,6	;volatile
  2211  16CF                     l183:
  2212  16CF  0008               	return
  2213  16D0                     __end_of_adc_init:
  2214                           
  2215                           	psect	text5
  2216  1567                     __ptext5:	
  2217 ;; *************** function _USART_set *****************
  2218 ;; Defined at:
  2219 ;;		line 12 in file "USART.c"
  2220 ;; Parameters:    Size  Location     Type
  2221 ;;  baudrate        4   14[BANK3 ] const unsigned long 
  2222 ;; Auto vars:     Size  Location     Type
  2223 ;;		None
  2224 ;; Return value:  Size  Location     Type
  2225 ;;                  1    wreg      void 
  2226 ;; Registers used:
  2227 ;;		wreg, status,2, status,0, pclath, cstack
  2228 ;; Tracked objects:
  2229 ;;		On entry : 0/0
  2230 ;;		On exit  : 0/0
  2231 ;;		Unchanged: 0/0
  2232 ;; Data sizes:     COMMON   BANK0   BANK1   BANK3   BANK2
  2233 ;;      Params:         0       0       0       4       0
  2234 ;;      Locals:         0       0       0       0       0
  2235 ;;      Temps:          0       0       0      12       0
  2236 ;;      Totals:         0       0       0      16       0
  2237 ;;Total ram usage:       16 bytes
  2238 ;; Hardware stack levels used: 1
  2239 ;; Hardware stack levels required when called: 6
  2240 ;; This function calls:
  2241 ;;		___lldiv
  2242 ;; This function is called by:
  2243 ;;		_setup
  2244 ;; This function uses a non-reentrant model
  2245 ;;
  2246                           
  2247  1567                     _USART_set:	
  2248                           ;psect for function _USART_set
  2249                           
  2250  1567                     l2582:	
  2251                           ;incstack = 0
  2252                           ; Regs used in _USART_set: [wreg+status,2+status,0+pclath+cstack]
  2253                           
  2254                           
  2255                           ;USART.c: 12: void USART_set(const unsigned long int baudrate);USART.c: 13: {;USART.c: 1
      +                          4:     TXSTAbits.BRGH = 1;
  2256  1567  1683               	bsf	3,5	;RP0=1, select bank1
  2257  1568  1303               	bcf	3,6	;RP1=0, select bank1
  2258  1569  1518               	bsf	24,2	;volatile
  2259                           
  2260                           ;USART.c: 15:     BAUDCTLbits.BRG16 = 1;
  2261  156A  1683               	bsf	3,5	;RP0=1, select bank3
  2262  156B  1703               	bsf	3,6	;RP1=1, select bank3
  2263  156C  1587               	bsf	7,3	;volatile
  2264  156D                     l2584:
  2265                           
  2266                           ;USART.c: 16:     SPBRGH = 0;
  2267  156D  1683               	bsf	3,5	;RP0=1, select bank1
  2268  156E  1303               	bcf	3,6	;RP1=0, select bank1
  2269  156F  019A               	clrf	26	;volatile
  2270  1570                     l2586:
  2271                           
  2272                           ;USART.c: 17:     SPBRG = (1000000 - baudrate * 4) / (baudrate * 4);
  2273  1570  1683               	bsf	3,5	;RP0=1, select bank3
  2274  1571  1703               	bsf	3,6	;RP1=1, select bank3
  2275  1572  081E               	movf	USART_set@baudrate^(0+384),w
  2276  1573  00A2               	movwf	??_USART_set^(0+384)
  2277  1574  081F               	movf	(USART_set@baudrate+1)^(0+384),w
  2278  1575  00A3               	movwf	(??_USART_set^(0+384)+1)
  2279  1576  0820               	movf	(USART_set@baudrate+2)^(0+384),w
  2280  1577  00A4               	movwf	(??_USART_set^(0+384)+2)
  2281  1578  0821               	movf	(USART_set@baudrate+3)^(0+384),w
  2282  1579  00A5               	movwf	(??_USART_set^(0+384)+3)
  2283  157A  3002               	movlw	2
  2284  157B                     u3035:
  2285  157B  1003               	clrc
  2286  157C  0DA2               	rlf	??_USART_set^(0+384),f
  2287  157D  0DA3               	rlf	(??_USART_set^(0+384)+1),f
  2288  157E  0DA4               	rlf	(??_USART_set^(0+384)+2),f
  2289  157F  0DA5               	rlf	(??_USART_set^(0+384)+3),f
  2290  1580                     u3030:
  2291  1580  3EFF               	addlw	-1
  2292  1581  1D03               	skipz
  2293  1582  2D7B               	goto	u3035
  2294  1583  0825               	movf	(??_USART_set+3)^(0+384),w
  2295  1584  0093               	movwf	(___lldiv@divisor+3)^(0+384)
  2296  1585  0824               	movf	(??_USART_set+2)^(0+384),w
  2297  1586  0092               	movwf	(___lldiv@divisor+2)^(0+384)
  2298  1587  0823               	movf	(??_USART_set+1)^(0+384),w
  2299  1588  0091               	movwf	(___lldiv@divisor+1)^(0+384)
  2300  1589  0822               	movf	??_USART_set^(0+384),w
  2301  158A  0090               	movwf	___lldiv@divisor^(0+384)
  2302  158B  081E               	movf	USART_set@baudrate^(0+384),w
  2303  158C  00A6               	movwf	(??_USART_set+4)^(0+384)
  2304  158D  081F               	movf	(USART_set@baudrate+1)^(0+384),w
  2305  158E  00A7               	movwf	((??_USART_set+4)^(0+384)+1)
  2306  158F  0820               	movf	(USART_set@baudrate+2)^(0+384),w
  2307  1590  00A8               	movwf	((??_USART_set+4)^(0+384)+2)
  2308  1591  0821               	movf	(USART_set@baudrate+3)^(0+384),w
  2309  1592  00A9               	movwf	((??_USART_set+4)^(0+384)+3)
  2310  1593  3002               	movlw	2
  2311  1594                     u3045:
  2312  1594  1003               	clrc
  2313  1595  0DA6               	rlf	(??_USART_set+4)^(0+384),f
  2314  1596  0DA7               	rlf	((??_USART_set+4)^(0+384)+1),f
  2315  1597  0DA8               	rlf	((??_USART_set+4)^(0+384)+2),f
  2316  1598  0DA9               	rlf	((??_USART_set+4)^(0+384)+3),f
  2317  1599                     u3040:
  2318  1599  3EFF               	addlw	-1
  2319  159A  1D03               	skipz
  2320  159B  2D94               	goto	u3045
  2321  159C  3040               	movlw	64
  2322  159D  00AA               	movwf	(??_USART_set+8)^(0+384)
  2323  159E  3042               	movlw	66
  2324  159F  00AB               	movwf	((??_USART_set+8)^(0+384)+1)
  2325  15A0  300F               	movlw	15
  2326  15A1  00AC               	movwf	((??_USART_set+8)^(0+384)+2)
  2327  15A2  3000               	movlw	0
  2328  15A3  00AD               	movwf	((??_USART_set+8)^(0+384)+3)
  2329  15A4  0826               	movf	(??_USART_set+4)^(0+384),w
  2330  15A5  02AA               	subwf	(??_USART_set+8)^(0+384),f
  2331  15A6  0827               	movf	(??_USART_set+5)^(0+384),w
  2332  15A7  1C03               	skipc
  2333  15A8  0F27               	incfsz	(??_USART_set+5)^(0+384),w
  2334  15A9  2DAB               	goto	u3051
  2335  15AA  2DAC               	goto	u3052
  2336  15AB                     u3051:
  2337  15AB  02AB               	subwf	((??_USART_set+8)^(0+384)+1),f
  2338  15AC                     u3052:
  2339  15AC  0828               	movf	(??_USART_set+6)^(0+384),w
  2340  15AD  1C03               	skipc
  2341  15AE  0F28               	incfsz	(??_USART_set+6)^(0+384),w
  2342  15AF  2DB1               	goto	u3053
  2343  15B0  2DB2               	goto	u3054
  2344  15B1                     u3053:
  2345  15B1  02AC               	subwf	((??_USART_set+8)^(0+384)+2),f
  2346  15B2                     u3054:
  2347  15B2  0829               	movf	(??_USART_set+7)^(0+384),w
  2348  15B3  1C03               	skipc
  2349  15B4  0F29               	incfsz	(??_USART_set+7)^(0+384),w
  2350  15B5  2DB7               	goto	u3055
  2351  15B6  2DB8               	goto	u3056
  2352  15B7                     u3055:
  2353  15B7  02AD               	subwf	((??_USART_set+8)^(0+384)+3),f
  2354  15B8                     u3056:
  2355  15B8  082D               	movf	(??_USART_set+11)^(0+384),w
  2356  15B9  0097               	movwf	(___lldiv@dividend+3)^(0+384)
  2357  15BA  082C               	movf	(??_USART_set+10)^(0+384),w
  2358  15BB  0096               	movwf	(___lldiv@dividend+2)^(0+384)
  2359  15BC  082B               	movf	(??_USART_set+9)^(0+384),w
  2360  15BD  0095               	movwf	(___lldiv@dividend+1)^(0+384)
  2361  15BE  082A               	movf	(??_USART_set+8)^(0+384),w
  2362  15BF  0094               	movwf	___lldiv@dividend^(0+384)
  2363  15C0  160A  118A  24FF  160A  118A  	fcall	___lldiv
  2364  15C5  1683               	bsf	3,5	;RP0=1, select bank3
  2365  15C6  1703               	bsf	3,6	;RP1=1, select bank3
  2366  15C7  0810               	movf	?___lldiv^(0+384),w
  2367  15C8  1683               	bsf	3,5	;RP0=1, select bank1
  2368  15C9  1303               	bcf	3,6	;RP1=0, select bank1
  2369  15CA  0099               	movwf	25	;volatile
  2370  15CB                     l2588:
  2371                           
  2372                           ;USART.c: 18:     TXSTAbits.SYNC = 0;
  2373  15CB  1218               	bcf	24,4	;volatile
  2374  15CC                     l2590:
  2375                           
  2376                           ;USART.c: 19:     RCSTAbits.SPEN = 1;
  2377  15CC  1283               	bcf	3,5	;RP0=0, select bank0
  2378  15CD  1303               	bcf	3,6	;RP1=0, select bank0
  2379  15CE  1798               	bsf	24,7	;volatile
  2380  15CF                     l2592:
  2381                           
  2382                           ;USART.c: 22:     TXSTAbits.TX9 = 0;
  2383  15CF  1683               	bsf	3,5	;RP0=1, select bank1
  2384  15D0  1303               	bcf	3,6	;RP1=0, select bank1
  2385  15D1  1318               	bcf	24,6	;volatile
  2386  15D2                     l2594:
  2387                           
  2388                           ;USART.c: 24:     TXSTAbits.TXEN = 1;
  2389  15D2  1698               	bsf	24,5	;volatile
  2390  15D3                     l137:
  2391  15D3  0008               	return
  2392  15D4                     __end_of_USART_set:
  2393                           
  2394                           	psect	text6
  2395  14FF                     __ptext6:	
  2396 ;; *************** function ___lldiv *****************
  2397 ;; Defined at:
  2398 ;;		line 5 in file "C:\Program Files\Microchip\xc8\v2.35\pic\sources\c90\common\__lldiv.c"
  2399 ;; Parameters:    Size  Location     Type
  2400 ;;  divisor         4    0[BANK3 ] unsigned long 
  2401 ;;  dividend        4    4[BANK3 ] unsigned long 
  2402 ;; Auto vars:     Size  Location     Type
  2403 ;;  quotient        4    9[BANK3 ] unsigned long 
  2404 ;;  counter         1   13[BANK3 ] unsigned char 
  2405 ;; Return value:  Size  Location     Type
  2406 ;;                  4    0[BANK3 ] unsigned long 
  2407 ;; Registers used:
  2408 ;;		wreg, status,2, status,0
  2409 ;; Tracked objects:
  2410 ;;		On entry : 0/0
  2411 ;;		On exit  : 0/0
  2412 ;;		Unchanged: 0/0
  2413 ;; Data sizes:     COMMON   BANK0   BANK1   BANK3   BANK2
  2414 ;;      Params:         0       0       0       8       0
  2415 ;;      Locals:         0       0       0       5       0
  2416 ;;      Temps:          0       0       0       1       0
  2417 ;;      Totals:         0       0       0      14       0
  2418 ;;Total ram usage:       14 bytes
  2419 ;; Hardware stack levels used: 1
  2420 ;; Hardware stack levels required when called: 5
  2421 ;; This function calls:
  2422 ;;		Nothing
  2423 ;; This function is called by:
  2424 ;;		_USART_set
  2425 ;; This function uses a non-reentrant model
  2426 ;;
  2427                           
  2428  14FF                     ___lldiv:	
  2429                           ;psect for function ___lldiv
  2430                           
  2431  14FF                     l2154:	
  2432                           ;incstack = 0
  2433                           ; Regs used in ___lldiv: [wreg+status,2+status,0]
  2434                           
  2435  14FF  3000               	movlw	0
  2436  1500  1683               	bsf	3,5	;RP0=1, select bank3
  2437  1501  1703               	bsf	3,6	;RP1=1, select bank3
  2438  1502  009C               	movwf	(___lldiv@quotient+3)^(0+384)
  2439  1503  3000               	movlw	0
  2440  1504  009B               	movwf	(___lldiv@quotient+2)^(0+384)
  2441  1505  3000               	movlw	0
  2442  1506  009A               	movwf	(___lldiv@quotient+1)^(0+384)
  2443  1507  3000               	movlw	0
  2444  1508  0099               	movwf	___lldiv@quotient^(0+384)
  2445  1509  0813               	movf	(___lldiv@divisor+3)^(0+384),w
  2446  150A  0412               	iorwf	(___lldiv@divisor+2)^(0+384),w
  2447  150B  0411               	iorwf	(___lldiv@divisor+1)^(0+384),w
  2448  150C  0410               	iorwf	___lldiv@divisor^(0+384),w
  2449  150D  1903               	skipnz
  2450  150E  2D10               	goto	u2081
  2451  150F  2D11               	goto	u2080
  2452  1510                     u2081:
  2453  1510  2D5E               	goto	l2174
  2454  1511                     u2080:
  2455  1511                     l2156:
  2456  1511  019D               	clrf	___lldiv@counter^(0+384)
  2457  1512  0A9D               	incf	___lldiv@counter^(0+384),f
  2458  1513  2D21               	goto	l2160
  2459  1514                     l2158:
  2460  1514  3001               	movlw	1
  2461  1515  0098               	movwf	??___lldiv^(0+384)
  2462  1516                     u2095:
  2463  1516  1003               	clrc
  2464  1517  0D90               	rlf	___lldiv@divisor^(0+384),f
  2465  1518  0D91               	rlf	(___lldiv@divisor+1)^(0+384),f
  2466  1519  0D92               	rlf	(___lldiv@divisor+2)^(0+384),f
  2467  151A  0D93               	rlf	(___lldiv@divisor+3)^(0+384),f
  2468  151B  0B98               	decfsz	??___lldiv^(0+384),f
  2469  151C  2D16               	goto	u2095
  2470  151D  3001               	movlw	1
  2471  151E  0098               	movwf	??___lldiv^(0+384)
  2472  151F  0818               	movf	??___lldiv^(0+384),w
  2473  1520  079D               	addwf	___lldiv@counter^(0+384),f
  2474  1521                     l2160:
  2475  1521  1F93               	btfss	(___lldiv@divisor+3)^(0+384),7
  2476  1522  2D24               	goto	u2101
  2477  1523  2D25               	goto	u2100
  2478  1524                     u2101:
  2479  1524  2D14               	goto	l2158
  2480  1525                     u2100:
  2481  1525                     l2162:
  2482  1525  3001               	movlw	1
  2483  1526  0098               	movwf	??___lldiv^(0+384)
  2484  1527                     u2115:
  2485  1527  1003               	clrc
  2486  1528  0D99               	rlf	___lldiv@quotient^(0+384),f
  2487  1529  0D9A               	rlf	(___lldiv@quotient+1)^(0+384),f
  2488  152A  0D9B               	rlf	(___lldiv@quotient+2)^(0+384),f
  2489  152B  0D9C               	rlf	(___lldiv@quotient+3)^(0+384),f
  2490  152C  0B98               	decfsz	??___lldiv^(0+384),f
  2491  152D  2D27               	goto	u2115
  2492  152E                     l2164:
  2493  152E  0813               	movf	(___lldiv@divisor+3)^(0+384),w
  2494  152F  0217               	subwf	(___lldiv@dividend+3)^(0+384),w
  2495  1530  1D03               	skipz
  2496  1531  2D3C               	goto	u2125
  2497  1532  0812               	movf	(___lldiv@divisor+2)^(0+384),w
  2498  1533  0216               	subwf	(___lldiv@dividend+2)^(0+384),w
  2499  1534  1D03               	skipz
  2500  1535  2D3C               	goto	u2125
  2501  1536  0811               	movf	(___lldiv@divisor+1)^(0+384),w
  2502  1537  0215               	subwf	(___lldiv@dividend+1)^(0+384),w
  2503  1538  1D03               	skipz
  2504  1539  2D3C               	goto	u2125
  2505  153A  0810               	movf	___lldiv@divisor^(0+384),w
  2506  153B  0214               	subwf	___lldiv@dividend^(0+384),w
  2507  153C                     u2125:
  2508  153C  1C03               	skipc
  2509  153D  2D3F               	goto	u2121
  2510  153E  2D40               	goto	u2120
  2511  153F                     u2121:
  2512  153F  2D4F               	goto	l2170
  2513  1540                     u2120:
  2514  1540                     l2166:
  2515  1540  0810               	movf	___lldiv@divisor^(0+384),w
  2516  1541  0294               	subwf	___lldiv@dividend^(0+384),f
  2517  1542  0811               	movf	(___lldiv@divisor+1)^(0+384),w
  2518  1543  1C03               	skipc
  2519  1544  0F11               	incfsz	(___lldiv@divisor+1)^(0+384),w
  2520  1545  0295               	subwf	(___lldiv@dividend+1)^(0+384),f
  2521  1546  0812               	movf	(___lldiv@divisor+2)^(0+384),w
  2522  1547  1C03               	skipc
  2523  1548  0F12               	incfsz	(___lldiv@divisor+2)^(0+384),w
  2524  1549  0296               	subwf	(___lldiv@dividend+2)^(0+384),f
  2525  154A  0813               	movf	(___lldiv@divisor+3)^(0+384),w
  2526  154B  1C03               	skipc
  2527  154C  0F13               	incfsz	(___lldiv@divisor+3)^(0+384),w
  2528  154D  0297               	subwf	(___lldiv@dividend+3)^(0+384),f
  2529  154E                     l2168:
  2530  154E  1419               	bsf	___lldiv@quotient^(0+384),0
  2531  154F                     l2170:
  2532  154F  3001               	movlw	1
  2533  1550                     u2135:
  2534  1550  1003               	clrc
  2535  1551  0C93               	rrf	(___lldiv@divisor+3)^(0+384),f
  2536  1552  0C92               	rrf	(___lldiv@divisor+2)^(0+384),f
  2537  1553  0C91               	rrf	(___lldiv@divisor+1)^(0+384),f
  2538  1554  0C90               	rrf	___lldiv@divisor^(0+384),f
  2539  1555  3EFF               	addlw	-1
  2540  1556  1D03               	skipz
  2541  1557  2D50               	goto	u2135
  2542  1558                     l2172:
  2543  1558  3001               	movlw	1
  2544  1559  029D               	subwf	___lldiv@counter^(0+384),f
  2545  155A  1D03               	btfss	3,2
  2546  155B  2D5D               	goto	u2141
  2547  155C  2D5E               	goto	u2140
  2548  155D                     u2141:
  2549  155D  2D25               	goto	l2162
  2550  155E                     u2140:
  2551  155E                     l2174:
  2552  155E  081C               	movf	(___lldiv@quotient+3)^(0+384),w
  2553  155F  0093               	movwf	(?___lldiv+3)^(0+384)
  2554  1560  081B               	movf	(___lldiv@quotient+2)^(0+384),w
  2555  1561  0092               	movwf	(?___lldiv+2)^(0+384)
  2556  1562  081A               	movf	(___lldiv@quotient+1)^(0+384),w
  2557  1563  0091               	movwf	(?___lldiv+1)^(0+384)
  2558  1564  0819               	movf	___lldiv@quotient^(0+384),w
  2559  1565  0090               	movwf	?___lldiv^(0+384)
  2560  1566                     l364:
  2561  1566  0008               	return
  2562  1567                     __end_of___lldiv:
  2563                           
  2564                           	psect	text7
  2565  12CD                     __ptext7:	
  2566 ;; *************** function _servo *****************
  2567 ;; Defined at:
  2568 ;;		line 133 in file "main_slave_p1.c"
  2569 ;; Parameters:    Size  Location     Type
  2570 ;;  mov             2    4[BANK3 ] unsigned short 
  2571 ;; Auto vars:     Size  Location     Type
  2572 ;;		None
  2573 ;; Return value:  Size  Location     Type
  2574 ;;                  1    wreg      void 
  2575 ;; Registers used:
  2576 ;;		wreg, status,2, status,0, pclath, cstack
  2577 ;; Tracked objects:
  2578 ;;		On entry : 0/0
  2579 ;;		On exit  : 0/0
  2580 ;;		Unchanged: 0/0
  2581 ;; Data sizes:     COMMON   BANK0   BANK1   BANK3   BANK2
  2582 ;;      Params:         0       0       0       2       0
  2583 ;;      Locals:         0       0       0       0       0
  2584 ;;      Temps:          0       0       0       0       0
  2585 ;;      Totals:         0       0       0       2       0
  2586 ;;Total ram usage:        2 bytes
  2587 ;; Hardware stack levels used: 1
  2588 ;; Hardware stack levels required when called: 6
  2589 ;; This function calls:
  2590 ;;		_USART_send
  2591 ;;		_pwm_duty_cycle
  2592 ;; This function is called by:
  2593 ;;		_main
  2594 ;; This function uses a non-reentrant model
  2595 ;;
  2596                           
  2597  12CD                     _servo:	
  2598                           ;psect for function _servo
  2599                           
  2600  12CD                     l3052:	
  2601                           ;incstack = 0
  2602                           ; Regs used in _servo: [wreg+status,2+status,0+pclath+cstack]
  2603                           
  2604                           
  2605                           ;main_slave_p1.c: 134:     if (mov == 1){
  2606  12CD  1683               	bsf	3,5	;RP0=1, select bank3
  2607  12CE  1703               	bsf	3,6	;RP1=1, select bank3
  2608  12CF  0314               	decf	servo@mov^(0+384),w
  2609  12D0  0415               	iorwf	(servo@mov+1)^(0+384),w
  2610  12D1  1D03               	btfss	3,2
  2611  12D2  2AD4               	goto	u3831
  2612  12D3  2AD5               	goto	u3830
  2613  12D4                     u3831:
  2614  12D4  2ADF               	goto	l3056
  2615  12D5                     u3830:
  2616  12D5                     l3054:
  2617                           
  2618                           ;main_slave_p1.c: 135:         pwm_duty_cycle(94);
  2619  12D5  305E               	movlw	94
  2620  12D6  0090               	movwf	pwm_duty_cycle@duty_cycle^(0+384)
  2621  12D7  3000               	movlw	0
  2622  12D8  0091               	movwf	(pwm_duty_cycle@duty_cycle^(0+384)+1)
  2623  12D9  160A  118A  2260  160A  118A  	fcall	_pwm_duty_cycle
  2624                           
  2625                           ;main_slave_p1.c: 136:     }
  2626  12DE  2AE8               	goto	l3058
  2627  12DF                     l3056:
  2628                           
  2629                           ;main_slave_p1.c: 138:         pwm_duty_cycle(31);
  2630  12DF  301F               	movlw	31
  2631  12E0  0090               	movwf	pwm_duty_cycle@duty_cycle^(0+384)
  2632  12E1  3000               	movlw	0
  2633  12E2  0091               	movwf	(pwm_duty_cycle@duty_cycle^(0+384)+1)
  2634  12E3  160A  118A  2260  160A  118A  	fcall	_pwm_duty_cycle
  2635  12E8                     l3058:
  2636                           
  2637                           ;main_slave_p1.c: 141:     if (mov != last_mov){
  2638  12E8  1683               	bsf	3,5	;RP0=1, select bank3
  2639  12E9  1703               	bsf	3,6	;RP1=1, select bank3
  2640  12EA  0835               	movf	(_last_mov+1)^(0+384),w
  2641  12EB  0615               	xorwf	(servo@mov+1)^(0+384),w
  2642  12EC  1D03               	skipz
  2643  12ED  2AF0               	goto	u3845
  2644  12EE  0834               	movf	_last_mov^(0+384),w
  2645  12EF  0614               	xorwf	servo@mov^(0+384),w
  2646  12F0                     u3845:
  2647  12F0  1903               	skipnz
  2648  12F1  2AF3               	goto	u3841
  2649  12F2  2AF4               	goto	u3840
  2650  12F3                     u3841:
  2651  12F3  2B06               	goto	l107
  2652  12F4                     u3840:
  2653  12F4                     l3060:
  2654                           
  2655                           ;main_slave_p1.c: 142:         last_mov = mov;
  2656  12F4  0815               	movf	(servo@mov+1)^(0+384),w
  2657  12F5  00B5               	movwf	(_last_mov+1)^(0+384)
  2658  12F6  0814               	movf	servo@mov^(0+384),w
  2659  12F7  00B4               	movwf	_last_mov^(0+384)
  2660  12F8                     l3062:
  2661                           
  2662                           ;main_slave_p1.c: 143:         USART_send((('M')<<1) + !mov);
  2663  12F8  0814               	movf	servo@mov^(0+384),w
  2664  12F9  0415               	iorwf	(servo@mov+1)^(0+384),w
  2665  12FA  1903               	btfsc	3,2
  2666  12FB  2AFD               	goto	u3851
  2667  12FC  2AFF               	goto	u3850
  2668  12FD                     u3851:
  2669  12FD  3001               	movlw	1
  2670  12FE  2B00               	goto	u3860
  2671  12FF                     u3850:
  2672  12FF  3000               	movlw	0
  2673  1300                     u3860:
  2674  1300  3E9A               	addlw	154
  2675  1301  160A  118A  223E  160A  118A  	fcall	_USART_send
  2676  1306                     l107:
  2677  1306  0008               	return
  2678  1307                     __end_of_servo:
  2679                           
  2680                           	psect	text8
  2681  1260                     __ptext8:	
  2682 ;; *************** function _pwm_duty_cycle *****************
  2683 ;; Defined at:
  2684 ;;		line 40 in file "pwm.c"
  2685 ;; Parameters:    Size  Location     Type
  2686 ;;  duty_cycle      2    0[BANK3 ] unsigned int 
  2687 ;; Auto vars:     Size  Location     Type
  2688 ;;		None
  2689 ;; Return value:  Size  Location     Type
  2690 ;;                  1    wreg      void 
  2691 ;; Registers used:
  2692 ;;		wreg, status,2, status,0
  2693 ;; Tracked objects:
  2694 ;;		On entry : 0/0
  2695 ;;		On exit  : 0/0
  2696 ;;		Unchanged: 0/0
  2697 ;; Data sizes:     COMMON   BANK0   BANK1   BANK3   BANK2
  2698 ;;      Params:         0       0       0       2       0
  2699 ;;      Locals:         0       0       0       0       0
  2700 ;;      Temps:          0       0       0       2       0
  2701 ;;      Totals:         0       0       0       4       0
  2702 ;;Total ram usage:        4 bytes
  2703 ;; Hardware stack levels used: 1
  2704 ;; Hardware stack levels required when called: 5
  2705 ;; This function calls:
  2706 ;;		Nothing
  2707 ;; This function is called by:
  2708 ;;		_servo
  2709 ;; This function uses a non-reentrant model
  2710 ;;
  2711                           
  2712  1260                     _pwm_duty_cycle:	
  2713                           ;psect for function _pwm_duty_cycle
  2714                           
  2715  1260                     l2528:	
  2716                           ;incstack = 0
  2717                           ; Regs used in _pwm_duty_cycle: [wreg+status,2+status,0]
  2718                           
  2719                           
  2720                           ;pwm.c: 41:     CCPR1L = (uint8_t)(duty_cycle>>2);
  2721  1260  1683               	bsf	3,5	;RP0=1, select bank3
  2722  1261  1703               	bsf	3,6	;RP1=1, select bank3
  2723  1262  0811               	movf	(pwm_duty_cycle@duty_cycle+1)^(0+384),w
  2724  1263  0093               	movwf	(??_pwm_duty_cycle^(0+384)+1)
  2725  1264  0810               	movf	pwm_duty_cycle@duty_cycle^(0+384),w
  2726  1265  0092               	movwf	??_pwm_duty_cycle^(0+384)
  2727  1266  1003               	clrc
  2728  1267  0C93               	rrf	(??_pwm_duty_cycle^(0+384)+1),f
  2729  1268  0C92               	rrf	??_pwm_duty_cycle^(0+384),f
  2730  1269  1003               	clrc
  2731  126A  0C93               	rrf	(??_pwm_duty_cycle^(0+384)+1),f
  2732  126B  0C92               	rrf	??_pwm_duty_cycle^(0+384),f
  2733  126C  0812               	movf	??_pwm_duty_cycle^(0+384),w
  2734  126D  1283               	bcf	3,5	;RP0=0, select bank0
  2735  126E  1303               	bcf	3,6	;RP1=0, select bank0
  2736  126F  0095               	movwf	21	;volatile
  2737                           
  2738                           ;pwm.c: 42:     CCP1CONbits.DC1B = duty_cycle & 0b11;
  2739  1270  1683               	bsf	3,5	;RP0=1, select bank3
  2740  1271  1703               	bsf	3,6	;RP1=1, select bank3
  2741  1272  0810               	movf	pwm_duty_cycle@duty_cycle^(0+384),w
  2742  1273  3903               	andlw	3
  2743  1274  0092               	movwf	??_pwm_duty_cycle^(0+384)
  2744  1275  0E92               	swapf	??_pwm_duty_cycle^(0+384),f
  2745  1276  1283               	bcf	3,5	;RP0=0, select bank0
  2746  1277  1303               	bcf	3,6	;RP1=0, select bank0
  2747  1278  0817               	movf	23,w	;volatile
  2748  1279  1683               	bsf	3,5	;RP0=1, select bank3
  2749  127A  1703               	bsf	3,6	;RP1=1, select bank3
  2750  127B  0612               	xorwf	??_pwm_duty_cycle^(0+384),w
  2751  127C  39CF               	andlw	-49
  2752  127D  0612               	xorwf	??_pwm_duty_cycle^(0+384),w
  2753  127E  1283               	bcf	3,5	;RP0=0, select bank0
  2754  127F  1303               	bcf	3,6	;RP1=0, select bank0
  2755  1280  0097               	movwf	23	;volatile
  2756  1281                     l242:
  2757  1281  0008               	return
  2758  1282                     __end_of_pwm_duty_cycle:
  2759                           
  2760                           	psect	text9
  2761  07C8                     __ptext9:	
  2762 ;; *************** function _motor_dc *****************
  2763 ;; Defined at:
  2764 ;;		line 119 in file "main_slave_p1.c"
  2765 ;; Parameters:    Size  Location     Type
  2766 ;;  temp            2   11[BANK3 ] int 
  2767 ;; Auto vars:     Size  Location     Type
  2768 ;;		None
  2769 ;; Return value:  Size  Location     Type
  2770 ;;                  1    wreg      void 
  2771 ;; Registers used:
  2772 ;;		wreg, status,2, status,0, btemp+1, pclath, cstack
  2773 ;; Tracked objects:
  2774 ;;		On entry : 0/0
  2775 ;;		On exit  : 0/0
  2776 ;;		Unchanged: 0/0
  2777 ;; Data sizes:     COMMON   BANK0   BANK1   BANK3   BANK2
  2778 ;;      Params:         0       0       0       2       0
  2779 ;;      Locals:         0       0       0       0       0
  2780 ;;      Temps:          0       0       0       0       0
  2781 ;;      Totals:         0       0       0       2       0
  2782 ;;Total ram usage:        2 bytes
  2783 ;; Hardware stack levels used: 1
  2784 ;; Hardware stack levels required when called: 6
  2785 ;; This function calls:
  2786 ;;		_USART_send
  2787 ;; This function is called by:
  2788 ;;		_main
  2789 ;; This function uses a non-reentrant model
  2790 ;;
  2791                           
  2792  07C8                     _motor_dc:	
  2793                           ;psect for function _motor_dc
  2794                           
  2795  07C8                     l3040:	
  2796                           ;incstack = 0
  2797                           ; Regs used in _motor_dc: [wreg+status,2+status,0+btemp+1+pclath+cstack]
  2798                           
  2799                           
  2800                           ;main_slave_p1.c: 120:     if(temp >= 22){
  2801  07C8  1683               	bsf	3,5	;RP0=1, select bank3
  2802  07C9  1703               	bsf	3,6	;RP1=1, select bank3
  2803  07CA  081C               	movf	(motor_dc@temp+1)^(0+384),w
  2804  07CB  3A80               	xorlw	128
  2805  07CC  00FF               	movwf	btemp+1
  2806  07CD  3080               	movlw	128
  2807  07CE  027F               	subwf	btemp+1,w
  2808  07CF  1D03               	skipz
  2809  07D0  2FD3               	goto	u3815
  2810  07D1  3016               	movlw	22
  2811  07D2  021B               	subwf	motor_dc@temp^(0+384),w
  2812  07D3                     u3815:
  2813  07D3  1C03               	skipc
  2814  07D4  2FD6               	goto	u3811
  2815  07D5  2FD7               	goto	u3810
  2816  07D6                     u3811:
  2817  07D6  2FDB               	goto	l98
  2818  07D7                     u3810:
  2819  07D7                     l3042:
  2820                           
  2821                           ;main_slave_p1.c: 121:         PORTBbits.RB0 = 1;
  2822  07D7  1283               	bcf	3,5	;RP0=0, select bank0
  2823  07D8  1303               	bcf	3,6	;RP1=0, select bank0
  2824  07D9  1406               	bsf	6,0	;volatile
  2825                           
  2826                           ;main_slave_p1.c: 122:     }
  2827  07DA  2FDE               	goto	l3044
  2828  07DB                     l98:	
  2829                           ;main_slave_p1.c: 123:     else{
  2830                           
  2831                           
  2832                           ;main_slave_p1.c: 124:         PORTBbits.RB0 = 0;
  2833  07DB  1283               	bcf	3,5	;RP0=0, select bank0
  2834  07DC  1303               	bcf	3,6	;RP1=0, select bank0
  2835  07DD  1006               	bcf	6,0	;volatile
  2836  07DE                     l3044:
  2837                           
  2838                           ;main_slave_p1.c: 127:     if (temp != OLD_TEMP){
  2839  07DE  1683               	bsf	3,5	;RP0=1, select bank3
  2840  07DF  1703               	bsf	3,6	;RP1=1, select bank3
  2841  07E0  0833               	movf	(_OLD_TEMP+1)^(0+384),w
  2842  07E1  061C               	xorwf	(motor_dc@temp+1)^(0+384),w
  2843  07E2  1D03               	skipz
  2844  07E3  2FE6               	goto	u3825
  2845  07E4  0832               	movf	_OLD_TEMP^(0+384),w
  2846  07E5  061B               	xorwf	motor_dc@temp^(0+384),w
  2847  07E6                     u3825:
  2848  07E6  1903               	skipnz
  2849  07E7  2FE9               	goto	u3821
  2850  07E8  2FEA               	goto	u3820
  2851  07E9                     u3821:
  2852  07E9  2FF4               	goto	l101
  2853  07EA                     u3820:
  2854  07EA                     l3046:
  2855                           
  2856                           ;main_slave_p1.c: 128:         OLD_TEMP = temp;
  2857  07EA  081C               	movf	(motor_dc@temp+1)^(0+384),w
  2858  07EB  00B3               	movwf	(_OLD_TEMP+1)^(0+384)
  2859  07EC  081B               	movf	motor_dc@temp^(0+384),w
  2860  07ED  00B2               	movwf	_OLD_TEMP^(0+384)
  2861  07EE                     l3048:
  2862                           
  2863                           ;main_slave_p1.c: 129:         USART_send(temp);
  2864  07EE  081B               	movf	motor_dc@temp^(0+384),w
  2865  07EF  160A  118A  223E  120A  118A  	fcall	_USART_send
  2866  07F4                     l101:
  2867  07F4  0008               	return
  2868  07F5                     __end_of_motor_dc:
  2869                           
  2870                           	psect	text10
  2871  123E                     __ptext10:	
  2872 ;; *************** function _USART_send *****************
  2873 ;; Defined at:
  2874 ;;		line 27 in file "USART.c"
  2875 ;; Parameters:    Size  Location     Type
  2876 ;;  data            1    wreg     const unsigned char 
  2877 ;; Auto vars:     Size  Location     Type
  2878 ;;  data            1    0[BANK3 ] const unsigned char 
  2879 ;; Return value:  Size  Location     Type
  2880 ;;                  1    wreg      void 
  2881 ;; Registers used:
  2882 ;;		wreg
  2883 ;; Tracked objects:
  2884 ;;		On entry : 0/0
  2885 ;;		On exit  : 0/0
  2886 ;;		Unchanged: 0/0
  2887 ;; Data sizes:     COMMON   BANK0   BANK1   BANK3   BANK2
  2888 ;;      Params:         0       0       0       0       0
  2889 ;;      Locals:         0       0       0       1       0
  2890 ;;      Temps:          0       0       0       0       0
  2891 ;;      Totals:         0       0       0       1       0
  2892 ;;Total ram usage:        1 bytes
  2893 ;; Hardware stack levels used: 1
  2894 ;; Hardware stack levels required when called: 5
  2895 ;; This function calls:
  2896 ;;		Nothing
  2897 ;; This function is called by:
  2898 ;;		_motor_dc
  2899 ;;		_servo
  2900 ;;		_USART_print
  2901 ;; This function uses a non-reentrant model
  2902 ;;
  2903                           
  2904  123E                     _USART_send:	
  2905                           ;psect for function _USART_send
  2906                           
  2907                           
  2908                           ;incstack = 0
  2909                           ; Regs used in _USART_send: [wreg]
  2910                           ;USART_send@data stored from wreg
  2911  123E  1683               	bsf	3,5	;RP0=1, select bank3
  2912  123F  1703               	bsf	3,6	;RP1=1, select bank3
  2913  1240  0090               	movwf	USART_send@data^(0+384)
  2914  1241                     l2524:
  2915  1241                     l140:	
  2916                           ;USART.c: 27: void USART_send(const char data);USART.c: 28: {;USART.c: 29:     while(!TX
      +                          STAbits.TRMT);
  2917                           
  2918  1241  1303               	bcf	3,6	;RP1=0, select bank1
  2919  1242  1C98               	btfss	24,1	;volatile
  2920  1243  2A45               	goto	u3011
  2921  1244  2A46               	goto	u3010
  2922  1245                     u3011:
  2923  1245  2A41               	goto	l140
  2924  1246                     u3010:
  2925  1246                     l2526:
  2926                           
  2927                           ;USART.c: 30:     TXREG = data;
  2928  1246  1683               	bsf	3,5	;RP0=1, select bank3
  2929  1247  1703               	bsf	3,6	;RP1=1, select bank3
  2930  1248  0810               	movf	USART_send@data^(0+384),w
  2931  1249  1283               	bcf	3,5	;RP0=0, select bank0
  2932  124A  1303               	bcf	3,6	;RP1=0, select bank0
  2933  124B  0099               	movwf	25	;volatile
  2934  124C                     l143:
  2935  124C  0008               	return
  2936  124D                     __end_of_USART_send:
  2937                           
  2938                           	psect	text11
  2939  08AC                     __ptext11:	
  2940 ;; *************** function _adc_ch_switch *****************
  2941 ;; Defined at:
  2942 ;;		line 71 in file "adc.c"
  2943 ;; Parameters:    Size  Location     Type
  2944 ;;  channels        1    wreg     unsigned char 
  2945 ;; Auto vars:     Size  Location     Type
  2946 ;;  channels        1    2[BANK3 ] unsigned char 
  2947 ;; Return value:  Size  Location     Type
  2948 ;;                  1    wreg      void 
  2949 ;; Registers used:
  2950 ;;		wreg, fsr0l, fsr0h, status,2, status,0
  2951 ;; Tracked objects:
  2952 ;;		On entry : 0/0
  2953 ;;		On exit  : 0/0
  2954 ;;		Unchanged: 0/0
  2955 ;; Data sizes:     COMMON   BANK0   BANK1   BANK3   BANK2
  2956 ;;      Params:         0       0       0       0       0
  2957 ;;      Locals:         0       0       0       1       0
  2958 ;;      Temps:          0       0       0       2       0
  2959 ;;      Totals:         0       0       0       3       0
  2960 ;;Total ram usage:        3 bytes
  2961 ;; Hardware stack levels used: 1
  2962 ;; Hardware stack levels required when called: 5
  2963 ;; This function calls:
  2964 ;;		Nothing
  2965 ;; This function is called by:
  2966 ;;		_main
  2967 ;; This function uses a non-reentrant model
  2968 ;;
  2969                           
  2970  08AC                     _adc_ch_switch:	
  2971                           ;psect for function _adc_ch_switch
  2972                           
  2973                           
  2974                           ;incstack = 0
  2975                           ; Regs used in _adc_ch_switch: [wreg-fsr0h+status,2+status,0]
  2976                           ;adc_ch_switch@channels stored from wreg
  2977  08AC  1683               	bsf	3,5	;RP0=1, select bank3
  2978  08AD  1703               	bsf	3,6	;RP1=1, select bank3
  2979  08AE  0092               	movwf	adc_ch_switch@channels^(0+384)
  2980  08AF                     l2984:
  2981                           
  2982                           ;adc.c: 72:     switch(channels){
  2983  08AF  294F               	goto	l3032
  2984  08B0                     l194:	
  2985                           ;adc.c: 73:         case 1:
  2986                           
  2987                           
  2988                           ;adc.c: 74:             if (ADCON0bits.GO == 0){
  2989  08B0  1283               	bcf	3,5	;RP0=0, select bank0
  2990  08B1  1303               	bcf	3,6	;RP1=0, select bank0
  2991  08B2  189F               	btfsc	31,1	;volatile
  2992  08B3  28B5               	goto	u3731
  2993  08B4  28B6               	goto	u3730
  2994  08B5                     u3731:
  2995  08B5  2962               	goto	l210
  2996  08B6                     u3730:
  2997  08B6                     l2986:
  2998                           
  2999                           ;adc.c: 75:                 ADCON0bits.CHS = 0;
  3000  08B6  30C3               	movlw	-61
  3001  08B7  059F               	andwf	31,f	;volatile
  3002  08B8                     l2988:
  3003                           
  3004                           ;adc.c: 76:                 _delay((unsigned long)((40)*(1000000/4000000.0)));
  3005  08B8  3002               	movlw	2
  3006  08B9  1683               	bsf	3,5	;RP0=1, select bank3
  3007  08BA  1703               	bsf	3,6	;RP1=1, select bank3
  3008  08BB  0090               	movwf	??_adc_ch_switch^(0+384)
  3009  08BC                     u4097:
  3010  08BC  0B90               	decfsz	??_adc_ch_switch^(0+384),f
  3011  08BD  28BC               	goto	u4097
  3012  08BE  0000               	nop
  3013  08BF                     l2990:
  3014                           
  3015                           ;adc.c: 77:                 ADCON0bits.GO = 1;
  3016  08BF  1283               	bcf	3,5	;RP0=0, select bank0
  3017  08C0  1303               	bcf	3,6	;RP1=0, select bank0
  3018  08C1  149F               	bsf	31,1	;volatile
  3019  08C2  2962               	goto	l210
  3020  08C3                     l197:	
  3021                           ;adc.c: 80:         case 2:
  3022                           
  3023                           
  3024                           ;adc.c: 81:             if (ADCON0bits.GO == 0){
  3025  08C3  1283               	bcf	3,5	;RP0=0, select bank0
  3026  08C4  1303               	bcf	3,6	;RP1=0, select bank0
  3027  08C5  189F               	btfsc	31,1	;volatile
  3028  08C6  28C8               	goto	u3741
  3029  08C7  28C9               	goto	u3740
  3030  08C8                     u3741:
  3031  08C8  2962               	goto	l210
  3032  08C9                     u3740:
  3033  08C9                     l2992:
  3034                           
  3035                           ;adc.c: 82:                 if (ADCON0bits.CHS == 0){
  3036  08C9  0C1F               	rrf	31,w	;volatile
  3037  08CA  1683               	bsf	3,5	;RP0=1, select bank3
  3038  08CB  1703               	bsf	3,6	;RP1=1, select bank3
  3039  08CC  0090               	movwf	??_adc_ch_switch^(0+384)
  3040  08CD  0C10               	rrf	??_adc_ch_switch^(0+384),w
  3041  08CE  390F               	andlw	15
  3042  08CF  3A00               	xorlw	0
  3043  08D0  1D03               	skipz
  3044  08D1  28D3               	goto	u3751
  3045  08D2  28D4               	goto	u3750
  3046  08D3                     u3751:
  3047  08D3  28E2               	goto	l2998
  3048  08D4                     u3750:
  3049  08D4                     l2994:
  3050                           
  3051                           ;adc.c: 83:                     ADCON0bits.CHS = 1;
  3052  08D4  1283               	bcf	3,5	;RP0=0, select bank0
  3053  08D5  1303               	bcf	3,6	;RP1=0, select bank0
  3054  08D6  081F               	movf	31,w	;volatile
  3055  08D7  39C3               	andlw	-61
  3056  08D8  3804               	iorlw	4
  3057  08D9  009F               	movwf	31	;volatile
  3058  08DA                     l2996:
  3059                           
  3060                           ;adc.c: 84:                     _delay((unsigned long)((40)*(1000000/4000000.0)));
  3061  08DA  3002               	movlw	2
  3062  08DB  1683               	bsf	3,5	;RP0=1, select bank3
  3063  08DC  1703               	bsf	3,6	;RP1=1, select bank3
  3064  08DD  0090               	movwf	??_adc_ch_switch^(0+384)
  3065  08DE                     u4107:
  3066  08DE  0B90               	decfsz	??_adc_ch_switch^(0+384),f
  3067  08DF  28DE               	goto	u4107
  3068  08E0  0000               	nop
  3069                           
  3070                           ;adc.c: 85:                 }
  3071  08E1  28F4               	goto	l3004
  3072  08E2                     l2998:
  3073  08E2  1283               	bcf	3,5	;RP0=0, select bank0
  3074  08E3  1303               	bcf	3,6	;RP1=0, select bank0
  3075  08E4  0C1F               	rrf	31,w	;volatile
  3076  08E5  1683               	bsf	3,5	;RP0=1, select bank3
  3077  08E6  1703               	bsf	3,6	;RP1=1, select bank3
  3078  08E7  0090               	movwf	??_adc_ch_switch^(0+384)
  3079  08E8  0C10               	rrf	??_adc_ch_switch^(0+384),w
  3080  08E9  390F               	andlw	15
  3081  08EA  3A01               	xorlw	1
  3082  08EB  1D03               	skipz
  3083  08EC  28EE               	goto	u3761
  3084  08ED  28EF               	goto	u3760
  3085  08EE                     u3761:
  3086  08EE  28F4               	goto	l3004
  3087  08EF                     u3760:
  3088  08EF                     l3000:
  3089                           
  3090                           ;adc.c: 87:                     ADCON0bits.CHS = 0;
  3091  08EF  30C3               	movlw	-61
  3092  08F0  1283               	bcf	3,5	;RP0=0, select bank0
  3093  08F1  1303               	bcf	3,6	;RP1=0, select bank0
  3094  08F2  059F               	andwf	31,f	;volatile
  3095  08F3  28DA               	goto	l2996
  3096  08F4                     l3004:
  3097                           
  3098                           ;adc.c: 90:                 _delay((unsigned long)((40)*(1000000/4000000.0)));
  3099  08F4  3002               	movlw	2
  3100  08F5  1683               	bsf	3,5	;RP0=1, select bank3
  3101  08F6  1703               	bsf	3,6	;RP1=1, select bank3
  3102  08F7  0090               	movwf	??_adc_ch_switch^(0+384)
  3103  08F8                     u4117:
  3104  08F8  0B90               	decfsz	??_adc_ch_switch^(0+384),f
  3105  08F9  28F8               	goto	u4117
  3106  08FA  0000               	nop
  3107  08FB                     l3006:
  3108                           
  3109                           ;adc.c: 91:                 ADCON0bits.GO = 1;
  3110  08FB  1283               	bcf	3,5	;RP0=0, select bank0
  3111  08FC  1303               	bcf	3,6	;RP1=0, select bank0
  3112  08FD  149F               	bsf	31,1	;volatile
  3113  08FE  2962               	goto	l210
  3114  08FF                     l202:	
  3115                           ;adc.c: 94:         case 3:
  3116                           
  3117                           
  3118                           ;adc.c: 95:             if (ADCON0bits.GO == 0){
  3119  08FF  1283               	bcf	3,5	;RP0=0, select bank0
  3120  0900  1303               	bcf	3,6	;RP1=0, select bank0
  3121  0901  189F               	btfsc	31,1	;volatile
  3122  0902  2904               	goto	u3771
  3123  0903  2905               	goto	u3770
  3124  0904                     u3771:
  3125  0904  2962               	goto	l210
  3126  0905                     u3770:
  3127  0905                     l3008:
  3128                           
  3129                           ;adc.c: 96:                 if (ADCON0bits.CHS == 0){
  3130  0905  0C1F               	rrf	31,w	;volatile
  3131  0906  1683               	bsf	3,5	;RP0=1, select bank3
  3132  0907  1703               	bsf	3,6	;RP1=1, select bank3
  3133  0908  0090               	movwf	??_adc_ch_switch^(0+384)
  3134  0909  0C10               	rrf	??_adc_ch_switch^(0+384),w
  3135  090A  390F               	andlw	15
  3136  090B  3A00               	xorlw	0
  3137  090C  1D03               	skipz
  3138  090D  290F               	goto	u3781
  3139  090E  2910               	goto	u3780
  3140  090F                     u3781:
  3141  090F  291E               	goto	l3014
  3142  0910                     u3780:
  3143  0910                     l3010:
  3144                           
  3145                           ;adc.c: 97:                     ADCON0bits.CHS = 1;
  3146  0910  1283               	bcf	3,5	;RP0=0, select bank0
  3147  0911  1303               	bcf	3,6	;RP1=0, select bank0
  3148  0912  081F               	movf	31,w	;volatile
  3149  0913  39C3               	andlw	-61
  3150  0914  3804               	iorlw	4
  3151  0915  009F               	movwf	31	;volatile
  3152  0916                     l3012:
  3153                           
  3154                           ;adc.c: 98:                     _delay((unsigned long)((40)*(1000000/4000000.0)));
  3155  0916  3002               	movlw	2
  3156  0917  1683               	bsf	3,5	;RP0=1, select bank3
  3157  0918  1703               	bsf	3,6	;RP1=1, select bank3
  3158  0919  0090               	movwf	??_adc_ch_switch^(0+384)
  3159  091A                     u4127:
  3160  091A  0B90               	decfsz	??_adc_ch_switch^(0+384),f
  3161  091B  291A               	goto	u4127
  3162  091C  0000               	nop
  3163                           
  3164                           ;adc.c: 99:                 }
  3165  091D  2944               	goto	l3026
  3166  091E                     l3014:
  3167  091E  1283               	bcf	3,5	;RP0=0, select bank0
  3168  091F  1303               	bcf	3,6	;RP1=0, select bank0
  3169  0920  0C1F               	rrf	31,w	;volatile
  3170  0921  1683               	bsf	3,5	;RP0=1, select bank3
  3171  0922  1703               	bsf	3,6	;RP1=1, select bank3
  3172  0923  0090               	movwf	??_adc_ch_switch^(0+384)
  3173  0924  0C10               	rrf	??_adc_ch_switch^(0+384),w
  3174  0925  390F               	andlw	15
  3175  0926  3A01               	xorlw	1
  3176  0927  1D03               	skipz
  3177  0928  292A               	goto	u3791
  3178  0929  292B               	goto	u3790
  3179  092A                     u3791:
  3180  092A  2932               	goto	l3020
  3181  092B                     u3790:
  3182  092B                     l3016:
  3183                           
  3184                           ;adc.c: 101:                     ADCON0bits.CHS = 2;
  3185  092B  1283               	bcf	3,5	;RP0=0, select bank0
  3186  092C  1303               	bcf	3,6	;RP1=0, select bank0
  3187  092D  081F               	movf	31,w	;volatile
  3188  092E  39C3               	andlw	-61
  3189  092F  3808               	iorlw	8
  3190  0930  009F               	movwf	31	;volatile
  3191  0931  2916               	goto	l3012
  3192  0932                     l3020:
  3193  0932  1283               	bcf	3,5	;RP0=0, select bank0
  3194  0933  1303               	bcf	3,6	;RP1=0, select bank0
  3195  0934  0C1F               	rrf	31,w	;volatile
  3196  0935  1683               	bsf	3,5	;RP0=1, select bank3
  3197  0936  1703               	bsf	3,6	;RP1=1, select bank3
  3198  0937  0090               	movwf	??_adc_ch_switch^(0+384)
  3199  0938  0C10               	rrf	??_adc_ch_switch^(0+384),w
  3200  0939  390F               	andlw	15
  3201  093A  3A02               	xorlw	2
  3202  093B  1D03               	skipz
  3203  093C  293E               	goto	u3801
  3204  093D  293F               	goto	u3800
  3205  093E                     u3801:
  3206  093E  2944               	goto	l3026
  3207  093F                     u3800:
  3208  093F                     l3022:
  3209                           
  3210                           ;adc.c: 105:                     ADCON0bits.CHS = 0;
  3211  093F  30C3               	movlw	-61
  3212  0940  1283               	bcf	3,5	;RP0=0, select bank0
  3213  0941  1303               	bcf	3,6	;RP1=0, select bank0
  3214  0942  059F               	andwf	31,f	;volatile
  3215  0943  2916               	goto	l3012
  3216  0944                     l3026:
  3217                           
  3218                           ;adc.c: 108:                 _delay((unsigned long)((40)*(1000000/4000000.0)));
  3219  0944  3002               	movlw	2
  3220  0945  1683               	bsf	3,5	;RP0=1, select bank3
  3221  0946  1703               	bsf	3,6	;RP1=1, select bank3
  3222  0947  0090               	movwf	??_adc_ch_switch^(0+384)
  3223  0948                     u4137:
  3224  0948  0B90               	decfsz	??_adc_ch_switch^(0+384),f
  3225  0949  2948               	goto	u4137
  3226  094A  0000               	nop
  3227  094B                     l3028:
  3228                           
  3229                           ;adc.c: 109:                 ADCON0bits.GO = 1;
  3230  094B  1283               	bcf	3,5	;RP0=0, select bank0
  3231  094C  1303               	bcf	3,6	;RP1=0, select bank0
  3232  094D  149F               	bsf	31,1	;volatile
  3233  094E  2962               	goto	l210
  3234  094F                     l3032:
  3235  094F  0812               	movf	adc_ch_switch@channels^(0+384),w
  3236  0950  0090               	movwf	??_adc_ch_switch^(0+384)
  3237  0951  0191               	clrf	(??_adc_ch_switch^(0+384)+1)
  3238                           
  3239                           ; Switch on 2 bytes has been partitioned into a top level switch of size 1, and 1 sub-sw
      +                          itches
  3240                           ; Switch size 1, requested type "simple"
  3241                           ; Number of cases is 1, Range of values is 0 to 0
  3242                           ; switch strategies available:
  3243                           ; Name         Instructions Cycles
  3244                           ; simple_byte            4     3 (average)
  3245                           ; direct_byte           11     8 (fixed)
  3246                           ; jumptable            260     6 (fixed)
  3247                           ;	Chosen strategy is simple_byte
  3248  0952  0811               	movf	(??_adc_ch_switch+1)^(0+384),w
  3249  0953  3A00               	xorlw	0	; case 0
  3250  0954  1903               	skipnz
  3251  0955  2957               	goto	l3372
  3252  0956  2962               	goto	l210
  3253  0957                     l3372:
  3254                           
  3255                           ; Switch size 1, requested type "simple"
  3256                           ; Number of cases is 3, Range of values is 1 to 3
  3257                           ; switch strategies available:
  3258                           ; Name         Instructions Cycles
  3259                           ; simple_byte           10     6 (average)
  3260                           ; direct_byte           20    11 (fixed)
  3261                           ; jumptable            263     9 (fixed)
  3262                           ;	Chosen strategy is simple_byte
  3263  0957  0810               	movf	??_adc_ch_switch^(0+384),w
  3264  0958  3A01               	xorlw	1	; case 1
  3265  0959  1903               	skipnz
  3266  095A  28B0               	goto	l194
  3267  095B  3A03               	xorlw	3	; case 2
  3268  095C  1903               	skipnz
  3269  095D  28C3               	goto	l197
  3270  095E  3A01               	xorlw	1	; case 3
  3271  095F  1903               	skipnz
  3272  0960  28FF               	goto	l202
  3273  0961  2962               	goto	l210
  3274  0962                     l210:
  3275  0962  0008               	return
  3276  0963                     __end_of_adc_ch_switch:
  3277                           
  3278                           	psect	text12
  3279  15D4                     __ptext12:	
  3280 ;; *************** function ___fltol *****************
  3281 ;; Defined at:
  3282 ;;		line 43 in file "C:\Program Files\Microchip\xc8\v2.35\pic\sources\c90\common\fltol.c"
  3283 ;; Parameters:    Size  Location     Type
  3284 ;;  f1              4    0[BANK3 ] void 
  3285 ;; Auto vars:     Size  Location     Type
  3286 ;;  exp1            1   10[BANK3 ] unsigned char 
  3287 ;;  sign1           1    9[BANK3 ] unsigned char 
  3288 ;; Return value:  Size  Location     Type
  3289 ;;                  4    0[BANK3 ] long 
  3290 ;; Registers used:
  3291 ;;		wreg, status,2, status,0
  3292 ;; Tracked objects:
  3293 ;;		On entry : 0/0
  3294 ;;		On exit  : 0/0
  3295 ;;		Unchanged: 0/0
  3296 ;; Data sizes:     COMMON   BANK0   BANK1   BANK3   BANK2
  3297 ;;      Params:         0       0       0       4       0
  3298 ;;      Locals:         0       0       0       2       0
  3299 ;;      Temps:          0       0       0       5       0
  3300 ;;      Totals:         0       0       0      11       0
  3301 ;;Total ram usage:       11 bytes
  3302 ;; Hardware stack levels used: 1
  3303 ;; Hardware stack levels required when called: 5
  3304 ;; This function calls:
  3305 ;;		Nothing
  3306 ;; This function is called by:
  3307 ;;		_main
  3308 ;; This function uses a non-reentrant model
  3309 ;;
  3310                           
  3311  15D4                     ___fltol:	
  3312                           ;psect for function ___fltol
  3313                           
  3314  15D4                     l3066:	
  3315                           ;incstack = 0
  3316                           ; Regs used in ___fltol: [wreg+status,2+status,0]
  3317                           
  3318  15D4  1003               	clrc
  3319  15D5  1683               	bsf	3,5	;RP0=1, select bank3
  3320  15D6  1703               	bsf	3,6	;RP1=1, select bank3
  3321  15D7  0D12               	rlf	(___fltol@f1+2)^(0+384),w
  3322  15D8  0D13               	rlf	(___fltol@f1+3)^(0+384),w
  3323  15D9  0094               	movwf	??___fltol^(0+384)
  3324  15DA  0814               	movf	??___fltol^(0+384),w
  3325  15DB  009A               	movwf	___fltol@exp1^(0+384)
  3326  15DC  081A               	movf	___fltol@exp1^(0+384),w
  3327  15DD  1D03               	btfss	3,2
  3328  15DE  2DE0               	goto	u3871
  3329  15DF  2DE1               	goto	u3870
  3330  15E0                     u3871:
  3331  15E0  2DEA               	goto	l3072
  3332  15E1                     u3870:
  3333  15E1                     l3068:
  3334  15E1  3000               	movlw	0
  3335  15E2  0093               	movwf	(?___fltol+3)^(0+384)
  3336  15E3  3000               	movlw	0
  3337  15E4  0092               	movwf	(?___fltol+2)^(0+384)
  3338  15E5  3000               	movlw	0
  3339  15E6  0091               	movwf	(?___fltol+1)^(0+384)
  3340  15E7  3000               	movlw	0
  3341  15E8  0090               	movwf	?___fltol^(0+384)
  3342  15E9  2E4F               	goto	l514
  3343  15EA                     l3072:
  3344  15EA  0810               	movf	___fltol@f1^(0+384),w
  3345  15EB  0094               	movwf	??___fltol^(0+384)
  3346  15EC  0811               	movf	(___fltol@f1+1)^(0+384),w
  3347  15ED  0095               	movwf	(??___fltol^(0+384)+1)
  3348  15EE  0812               	movf	(___fltol@f1+2)^(0+384),w
  3349  15EF  0096               	movwf	(??___fltol^(0+384)+2)
  3350  15F0  0813               	movf	(___fltol@f1+3)^(0+384),w
  3351  15F1  0097               	movwf	(??___fltol^(0+384)+3)
  3352  15F2  301F               	movlw	31
  3353  15F3                     u3885:
  3354  15F3  1003               	clrc
  3355  15F4  0C97               	rrf	(??___fltol^(0+384)+3),f
  3356  15F5  0C96               	rrf	(??___fltol^(0+384)+2),f
  3357  15F6  0C95               	rrf	(??___fltol^(0+384)+1),f
  3358  15F7  0C94               	rrf	??___fltol^(0+384),f
  3359  15F8                     u3880:
  3360  15F8  3EFF               	addlw	-1
  3361  15F9  1D03               	skipz
  3362  15FA  2DF3               	goto	u3885
  3363  15FB  0814               	movf	??___fltol^(0+384),w
  3364  15FC  0098               	movwf	(??___fltol+4)^(0+384)
  3365  15FD  0818               	movf	(??___fltol+4)^(0+384),w
  3366  15FE  0099               	movwf	___fltol@sign1^(0+384)
  3367  15FF                     l3074:
  3368  15FF  1792               	bsf	(___fltol@f1^(0+384)+2),7
  3369  1600                     l3076:
  3370  1600  30FF               	movlw	255
  3371  1601  0590               	andwf	___fltol@f1^(0+384),f
  3372  1602  30FF               	movlw	255
  3373  1603  0591               	andwf	(___fltol@f1+1)^(0+384),f
  3374  1604  30FF               	movlw	255
  3375  1605  0592               	andwf	(___fltol@f1+2)^(0+384),f
  3376  1606  3000               	movlw	0
  3377  1607  0593               	andwf	(___fltol@f1+3)^(0+384),f
  3378  1608                     l3078:
  3379  1608  3096               	movlw	150
  3380  1609  029A               	subwf	___fltol@exp1^(0+384),f
  3381  160A                     l3080:
  3382  160A  1F9A               	btfss	___fltol@exp1^(0+384),7
  3383  160B  2E0D               	goto	u3891
  3384  160C  2E0E               	goto	u3890
  3385  160D                     u3891:
  3386  160D  2E28               	goto	l3090
  3387  160E                     u3890:
  3388  160E                     l3082:
  3389  160E  081A               	movf	___fltol@exp1^(0+384),w
  3390  160F  3A80               	xorlw	128
  3391  1610  3E97               	addlw	151
  3392  1611  1803               	skipnc
  3393  1612  2E14               	goto	u3901
  3394  1613  2E15               	goto	u3900
  3395  1614                     u3901:
  3396  1614  2E16               	goto	l3088
  3397  1615                     u3900:
  3398  1615  2DE1               	goto	l3068
  3399  1616                     l3088:
  3400  1616  3001               	movlw	1
  3401  1617                     u3915:
  3402  1617  1003               	clrc
  3403  1618  0C93               	rrf	(___fltol@f1+3)^(0+384),f
  3404  1619  0C92               	rrf	(___fltol@f1+2)^(0+384),f
  3405  161A  0C91               	rrf	(___fltol@f1+1)^(0+384),f
  3406  161B  0C90               	rrf	___fltol@f1^(0+384),f
  3407  161C  3EFF               	addlw	-1
  3408  161D  1D03               	skipz
  3409  161E  2E17               	goto	u3915
  3410  161F  3001               	movlw	1
  3411  1620  0094               	movwf	??___fltol^(0+384)
  3412  1621  0814               	movf	??___fltol^(0+384),w
  3413  1622  079A               	addwf	___fltol@exp1^(0+384),f
  3414  1623  1D03               	btfss	3,2
  3415  1624  2E26               	goto	u3921
  3416  1625  2E27               	goto	u3920
  3417  1626                     u3921:
  3418  1626  2E16               	goto	l3088
  3419  1627                     u3920:
  3420  1627  2E3F               	goto	l3098
  3421  1628                     l3090:
  3422  1628  3020               	movlw	32
  3423  1629  021A               	subwf	___fltol@exp1^(0+384),w
  3424  162A  1C03               	skipc
  3425  162B  2E2D               	goto	u3931
  3426  162C  2E2E               	goto	u3930
  3427  162D                     u3931:
  3428  162D  2E3A               	goto	l521
  3429  162E                     u3930:
  3430  162E  2DE1               	goto	l3068
  3431  162F                     l3096:
  3432  162F  3001               	movlw	1
  3433  1630  0094               	movwf	??___fltol^(0+384)
  3434  1631                     u3945:
  3435  1631  1003               	clrc
  3436  1632  0D90               	rlf	___fltol@f1^(0+384),f
  3437  1633  0D91               	rlf	(___fltol@f1+1)^(0+384),f
  3438  1634  0D92               	rlf	(___fltol@f1+2)^(0+384),f
  3439  1635  0D93               	rlf	(___fltol@f1+3)^(0+384),f
  3440  1636  0B94               	decfsz	??___fltol^(0+384),f
  3441  1637  2E31               	goto	u3945
  3442  1638  3001               	movlw	1
  3443  1639  029A               	subwf	___fltol@exp1^(0+384),f
  3444  163A                     l521:
  3445  163A  081A               	movf	___fltol@exp1^(0+384),w
  3446  163B  1D03               	btfss	3,2
  3447  163C  2E3E               	goto	u3951
  3448  163D  2E3F               	goto	u3950
  3449  163E                     u3951:
  3450  163E  2E2F               	goto	l3096
  3451  163F                     u3950:
  3452  163F                     l3098:
  3453  163F  0819               	movf	___fltol@sign1^(0+384),w
  3454  1640  1903               	btfsc	3,2
  3455  1641  2E43               	goto	u3961
  3456  1642  2E44               	goto	u3960
  3457  1643                     u3961:
  3458  1643  2E4F               	goto	l524
  3459  1644                     u3960:
  3460  1644                     l3100:
  3461  1644  0990               	comf	___fltol@f1^(0+384),f
  3462  1645  0991               	comf	(___fltol@f1+1)^(0+384),f
  3463  1646  0992               	comf	(___fltol@f1+2)^(0+384),f
  3464  1647  0993               	comf	(___fltol@f1+3)^(0+384),f
  3465  1648  0A90               	incf	___fltol@f1^(0+384),f
  3466  1649  1903               	skipnz
  3467  164A  0A91               	incf	(___fltol@f1+1)^(0+384),f
  3468  164B  1903               	skipnz
  3469  164C  0A92               	incf	(___fltol@f1+2)^(0+384),f
  3470  164D  1903               	skipnz
  3471  164E  0A93               	incf	(___fltol@f1+3)^(0+384),f
  3472  164F                     l524:
  3473  164F                     l514:
  3474  164F  0008               	return
  3475  1650                     __end_of___fltol:
  3476                           
  3477                           	psect	text13
  3478  03A2                     __ptext13:	
  3479 ;; *************** function _slave *****************
  3480 ;; Defined at:
  3481 ;;		line 73 in file "main_slave_p1.c"
  3482 ;; Parameters:    Size  Location     Type
  3483 ;;		None
  3484 ;; Auto vars:     Size  Location     Type
  3485 ;;		None
  3486 ;; Return value:  Size  Location     Type
  3487 ;;                  1    wreg      void 
  3488 ;; Registers used:
  3489 ;;		wreg, fsr0l, fsr0h, status,2, status,0, btemp+1, pclath, cstack
  3490 ;; Tracked objects:
  3491 ;;		On entry : 0/0
  3492 ;;		On exit  : 0/0
  3493 ;;		Unchanged: 0/0
  3494 ;; Data sizes:     COMMON   BANK0   BANK1   BANK3   BANK2
  3495 ;;      Params:         0       0       0       0       0
  3496 ;;      Locals:         0       0      16       0       0
  3497 ;;      Temps:          0       0       8       0       0
  3498 ;;      Totals:         0       0      24       0       0
  3499 ;;Total ram usage:       24 bytes
  3500 ;; Hardware stack levels used: 1
  3501 ;; Hardware stack levels required when called: 4
  3502 ;; This function calls:
  3503 ;;		___fladd
  3504 ;;		___fldiv
  3505 ;;		___flmul
  3506 ;;		___flsub
  3507 ;;		___lwdiv
  3508 ;;		___xxtofl
  3509 ;;		_adc_read
  3510 ;;		_log
  3511 ;;		_map
  3512 ;;		i1___fltol
  3513 ;; This function is called by:
  3514 ;;		Interrupt level 1
  3515 ;; This function uses a non-reentrant model
  3516 ;;
  3517                           
  3518  03A2                     _slave:	
  3519                           ;psect for function _slave
  3520                           
  3521  03A2                     i1l3134:
  3522                           
  3523                           ;main_slave_p1.c: 74:     if(INTCONbits.RBIF){
  3524  03A2  1C0B               	btfss	11,0	;volatile
  3525  03A3  2BA5               	goto	u404_21
  3526  03A4  2BA6               	goto	u404_20
  3527  03A5                     u404_21:
  3528  03A5  2BB8               	goto	i1l3144
  3529  03A6                     u404_20:
  3530  03A6                     i1l3136:
  3531                           
  3532                           ;main_slave_p1.c: 75:         if(!PORTBbits.RB1){
  3533  03A6  1283               	bcf	3,5	;RP0=0, select bank0
  3534  03A7  1303               	bcf	3,6	;RP1=0, select bank0
  3535  03A8  1886               	btfsc	6,1	;volatile
  3536  03A9  2BAB               	goto	u405_21
  3537  03AA  2BAC               	goto	u405_20
  3538  03AB                     u405_21:
  3539  03AB  2BB3               	goto	i1l3140
  3540  03AC                     u405_20:
  3541  03AC                     i1l3138:
  3542                           
  3543                           ;main_slave_p1.c: 76:             switch_servo = 1;
  3544  03AC  3001               	movlw	1
  3545  03AD  1683               	bsf	3,5	;RP0=1, select bank3
  3546  03AE  1703               	bsf	3,6	;RP1=1, select bank3
  3547  03AF  00BA               	movwf	_switch_servo^(0+384)
  3548  03B0  3000               	movlw	0
  3549  03B1  00BB               	movwf	(_switch_servo^(0+384)+1)
  3550                           
  3551                           ;main_slave_p1.c: 77:         }
  3552  03B2  2BB7               	goto	i1l3142
  3553  03B3                     i1l3140:
  3554                           
  3555                           ;main_slave_p1.c: 79:             switch_servo = 0;
  3556  03B3  1683               	bsf	3,5	;RP0=1, select bank3
  3557  03B4  1703               	bsf	3,6	;RP1=1, select bank3
  3558  03B5  01BA               	clrf	_switch_servo^(0+384)
  3559  03B6  01BB               	clrf	(_switch_servo+1)^(0+384)
  3560  03B7                     i1l3142:
  3561                           
  3562                           ;main_slave_p1.c: 81:         INTCONbits.RBIF = 0;
  3563  03B7  100B               	bcf	11,0	;volatile
  3564  03B8                     i1l3144:
  3565                           
  3566                           ;main_slave_p1.c: 83:     if(PIR1bits.ADIF){
  3567  03B8  1283               	bcf	3,5	;RP0=0, select bank0
  3568  03B9  1303               	bcf	3,6	;RP1=0, select bank0
  3569  03BA  1F0C               	btfss	12,6	;volatile
  3570  03BB  2BBD               	goto	u406_21
  3571  03BC  2BBE               	goto	u406_20
  3572  03BD                     u406_21:
  3573  03BD  2EAB               	goto	i1l84
  3574  03BE                     u406_20:
  3575  03BE                     i1l3146:
  3576                           
  3577                           ;main_slave_p1.c: 84:         if(ADCON0bits.CHS == 0){
  3578  03BE  0C1F               	rrf	31,w	;volatile
  3579  03BF  1683               	bsf	3,5	;RP0=1, select bank1
  3580  03C0  1303               	bcf	3,6	;RP1=0, select bank1
  3581  03C1  00C0               	movwf	??_slave^(0+128)
  3582  03C2  0C40               	rrf	??_slave^(0+128),w
  3583  03C3  390F               	andlw	15
  3584  03C4  3A00               	xorlw	0
  3585  03C5  1D03               	skipz
  3586  03C6  2BC8               	goto	u407_21
  3587  03C7  2BC9               	goto	u407_20
  3588  03C8                     u407_21:
  3589  03C8  2EA9               	goto	i1l3164
  3590  03C9                     u407_20:
  3591  03C9                     i1l3148:
  3592                           
  3593                           ;main_slave_p1.c: 85:             TEMP_POT = map(adc_read(), 0, 650, -55, 125);
  3594  03C9  120A  118A  27F5  120A  118A  	fcall	_adc_read
  3595  03CE  0871               	movf	?_adc_read+1,w
  3596  03CF  1683               	bsf	3,5	;RP0=1, select bank1
  3597  03D0  1303               	bcf	3,6	;RP1=0, select bank1
  3598  03D1  00B7               	movwf	(map@x+1)^(0+128)
  3599  03D2  0870               	movf	?_adc_read,w
  3600  03D3  00B6               	movwf	map@x^(0+128)
  3601  03D4  3000               	movlw	0
  3602  03D5  00B8               	movwf	map@x0^(0+128)
  3603  03D6  00B9               	movwf	(map@x0+1)^(0+128)
  3604  03D7  308A               	movlw	138
  3605  03D8  00BA               	movwf	map@x1^(0+128)
  3606  03D9  3002               	movlw	2
  3607  03DA  00BB               	movwf	(map@x1^(0+128)+1)
  3608  03DB  30C9               	movlw	201
  3609  03DC  00BC               	movwf	map@y0^(0+128)
  3610  03DD  30FF               	movlw	255
  3611  03DE  00BD               	movwf	(map@y0^(0+128)+1)
  3612  03DF  307D               	movlw	125
  3613  03E0  00BE               	movwf	map@y1^(0+128)
  3614  03E1  3000               	movlw	0
  3615  03E2  00BF               	movwf	(map@y1^(0+128)+1)
  3616  03E3  120A  158A  2163  120A  118A  	fcall	_map
  3617  03E8  1683               	bsf	3,5	;RP0=1, select bank1
  3618  03E9  1303               	bcf	3,6	;RP1=0, select bank1
  3619  03EA  0837               	movf	(?_map+1)^(0+128),w
  3620  03EB  00E7               	movwf	(_TEMP_POT+1)^(0+128)
  3621  03EC  0836               	movf	?_map^(0+128),w
  3622  03ED  00E6               	movwf	_TEMP_POT^(0+128)
  3623                           
  3624                           ;main_slave_p1.c: 87:             R2 = R1 * ((float)(1023/TEMP_POT)-1);
  3625  03EE  086F               	movf	(_R1+3)^(0+128),w
  3626  03EF  1283               	bcf	3,5	;RP0=0, select bank0
  3627  03F0  1303               	bcf	3,6	;RP1=0, select bank0
  3628  03F1  00C1               	movwf	___flmul@b+3
  3629  03F2  1683               	bsf	3,5	;RP0=1, select bank1
  3630  03F3  1303               	bcf	3,6	;RP1=0, select bank1
  3631  03F4  086E               	movf	(_R1+2)^(0+128),w
  3632  03F5  1283               	bcf	3,5	;RP0=0, select bank0
  3633  03F6  1303               	bcf	3,6	;RP1=0, select bank0
  3634  03F7  00C0               	movwf	___flmul@b+2
  3635  03F8  1683               	bsf	3,5	;RP0=1, select bank1
  3636  03F9  1303               	bcf	3,6	;RP1=0, select bank1
  3637  03FA  086D               	movf	(_R1+1)^(0+128),w
  3638  03FB  1283               	bcf	3,5	;RP0=0, select bank0
  3639  03FC  1303               	bcf	3,6	;RP1=0, select bank0
  3640  03FD  00BF               	movwf	___flmul@b+1
  3641  03FE  1683               	bsf	3,5	;RP0=1, select bank1
  3642  03FF  1303               	bcf	3,6	;RP1=0, select bank1
  3643  0400  086C               	movf	_R1^(0+128),w
  3644  0401  1283               	bcf	3,5	;RP0=0, select bank0
  3645  0402  1303               	bcf	3,6	;RP1=0, select bank0
  3646  0403  00BE               	movwf	___flmul@b
  3647  0404  30BF               	movlw	191
  3648  0405  00AD               	movwf	___fladd@b+3
  3649  0406  3080               	movlw	128
  3650  0407  00AC               	movwf	___fladd@b+2
  3651  0408  3000               	movlw	0
  3652  0409  00AB               	movwf	___fladd@b+1
  3653  040A  3000               	movlw	0
  3654  040B  00AA               	movwf	___fladd@b
  3655  040C  30FF               	movlw	255
  3656  040D  00F2               	movwf	___lwdiv@dividend
  3657  040E  3003               	movlw	3
  3658  040F  00F3               	movwf	___lwdiv@dividend+1
  3659  0410  1683               	bsf	3,5	;RP0=1, select bank1
  3660  0411  1303               	bcf	3,6	;RP1=0, select bank1
  3661  0412  0867               	movf	(_TEMP_POT+1)^(0+128),w
  3662  0413  00F1               	movwf	___lwdiv@divisor+1
  3663  0414  0866               	movf	_TEMP_POT^(0+128),w
  3664  0415  00F0               	movwf	___lwdiv@divisor
  3665  0416  160A  118A  23C7  120A  118A  	fcall	___lwdiv
  3666  041B  0870               	movf	?___lwdiv,w
  3667  041C  1683               	bsf	3,5	;RP0=1, select bank1
  3668  041D  1303               	bcf	3,6	;RP1=0, select bank1
  3669  041E  00C0               	movwf	??_slave^(0+128)
  3670  041F  0871               	movf	?___lwdiv+1,w
  3671  0420  00C1               	movwf	(??_slave^(0+128)+1)
  3672  0421  01C2               	clrf	(??_slave^(0+128)+2)
  3673  0422  01C3               	clrf	(??_slave^(0+128)+3)
  3674  0423  0843               	movf	(??_slave+3)^(0+128),w
  3675  0424  00FC               	movwf	___xxtofl@val+3
  3676  0425  0842               	movf	(??_slave+2)^(0+128),w
  3677  0426  00FB               	movwf	___xxtofl@val+2
  3678  0427  0841               	movf	(??_slave+1)^(0+128),w
  3679  0428  00FA               	movwf	___xxtofl@val+1
  3680  0429  0840               	movf	??_slave^(0+128),w
  3681  042A  00F9               	movwf	___xxtofl@val
  3682  042B  3000               	movlw	0
  3683  042C  120A  158A  221C  120A  118A  	fcall	___xxtofl
  3684  0431  087C               	movf	?___xxtofl+3,w
  3685  0432  1283               	bcf	3,5	;RP0=0, select bank0
  3686  0433  1303               	bcf	3,6	;RP1=0, select bank0
  3687  0434  00B1               	movwf	___fladd@a+3
  3688  0435  087B               	movf	?___xxtofl+2,w
  3689  0436  00B0               	movwf	___fladd@a+2
  3690  0437  087A               	movf	?___xxtofl+1,w
  3691  0438  00AF               	movwf	___fladd@a+1
  3692  0439  0879               	movf	?___xxtofl,w
  3693  043A  00AE               	movwf	___fladd@a
  3694  043B  120A  158A  22D8  120A  118A  	fcall	___fladd
  3695  0440  1283               	bcf	3,5	;RP0=0, select bank0
  3696  0441  1303               	bcf	3,6	;RP1=0, select bank0
  3697  0442  082D               	movf	?___fladd+3,w
  3698  0443  00C5               	movwf	___flmul@a+3
  3699  0444  082C               	movf	?___fladd+2,w
  3700  0445  00C4               	movwf	___flmul@a+2
  3701  0446  082B               	movf	?___fladd+1,w
  3702  0447  00C3               	movwf	___flmul@a+1
  3703  0448  082A               	movf	?___fladd,w
  3704  0449  00C2               	movwf	___flmul@a
  3705  044A  120A  118A  2041  120A  118A  	fcall	___flmul
  3706  044F  1283               	bcf	3,5	;RP0=0, select bank0
  3707  0450  1303               	bcf	3,6	;RP1=0, select bank0
  3708  0451  0841               	movf	?___flmul+3,w
  3709  0452  1683               	bsf	3,5	;RP0=1, select bank1
  3710  0453  1303               	bcf	3,6	;RP1=0, select bank1
  3711  0454  00DF               	movwf	(_R2+3)^(0+128)
  3712  0455  1283               	bcf	3,5	;RP0=0, select bank0
  3713  0456  1303               	bcf	3,6	;RP1=0, select bank0
  3714  0457  0840               	movf	?___flmul+2,w
  3715  0458  1683               	bsf	3,5	;RP0=1, select bank1
  3716  0459  1303               	bcf	3,6	;RP1=0, select bank1
  3717  045A  00DE               	movwf	(_R2+2)^(0+128)
  3718  045B  1283               	bcf	3,5	;RP0=0, select bank0
  3719  045C  1303               	bcf	3,6	;RP1=0, select bank0
  3720  045D  083F               	movf	?___flmul+1,w
  3721  045E  1683               	bsf	3,5	;RP0=1, select bank1
  3722  045F  1303               	bcf	3,6	;RP1=0, select bank1
  3723  0460  00DD               	movwf	(_R2+1)^(0+128)
  3724  0461  1283               	bcf	3,5	;RP0=0, select bank0
  3725  0462  1303               	bcf	3,6	;RP1=0, select bank0
  3726  0463  083E               	movf	?___flmul,w
  3727  0464  1683               	bsf	3,5	;RP0=1, select bank1
  3728  0465  1303               	bcf	3,6	;RP1=0, select bank1
  3729  0466  00DC               	movwf	_R2^(0+128)
  3730  0467                     i1l3150:
  3731                           
  3732                           ;main_slave_p1.c: 88:             logR2 = log(R2);
  3733  0467  085F               	movf	(_R2+3)^(0+128),w
  3734  0468  1283               	bcf	3,5	;RP0=0, select bank0
  3735  0469  1303               	bcf	3,6	;RP1=0, select bank0
  3736  046A  00EB               	movwf	log@x+3
  3737  046B  1683               	bsf	3,5	;RP0=1, select bank1
  3738  046C  1303               	bcf	3,6	;RP1=0, select bank1
  3739  046D  085E               	movf	(_R2+2)^(0+128),w
  3740  046E  1283               	bcf	3,5	;RP0=0, select bank0
  3741  046F  1303               	bcf	3,6	;RP1=0, select bank0
  3742  0470  00EA               	movwf	log@x+2
  3743  0471  1683               	bsf	3,5	;RP0=1, select bank1
  3744  0472  1303               	bcf	3,6	;RP1=0, select bank1
  3745  0473  085D               	movf	(_R2+1)^(0+128),w
  3746  0474  1283               	bcf	3,5	;RP0=0, select bank0
  3747  0475  1303               	bcf	3,6	;RP1=0, select bank0
  3748  0476  00E9               	movwf	log@x+1
  3749  0477  1683               	bsf	3,5	;RP0=1, select bank1
  3750  0478  1303               	bcf	3,6	;RP1=0, select bank1
  3751  0479  085C               	movf	_R2^(0+128),w
  3752  047A  1283               	bcf	3,5	;RP0=0, select bank0
  3753  047B  1303               	bcf	3,6	;RP1=0, select bank0
  3754  047C  00E8               	movwf	log@x
  3755  047D  120A  118A  26B8  120A  118A  	fcall	_log
  3756  0482  1283               	bcf	3,5	;RP0=0, select bank0
  3757  0483  1303               	bcf	3,6	;RP1=0, select bank0
  3758  0484  086B               	movf	?_log+3,w
  3759  0485  1683               	bsf	3,5	;RP0=1, select bank1
  3760  0486  1303               	bcf	3,6	;RP1=0, select bank1
  3761  0487  00E3               	movwf	(_logR2+3)^(0+128)
  3762  0488  1283               	bcf	3,5	;RP0=0, select bank0
  3763  0489  1303               	bcf	3,6	;RP1=0, select bank0
  3764  048A  086A               	movf	?_log+2,w
  3765  048B  1683               	bsf	3,5	;RP0=1, select bank1
  3766  048C  1303               	bcf	3,6	;RP1=0, select bank1
  3767  048D  00E2               	movwf	(_logR2+2)^(0+128)
  3768  048E  1283               	bcf	3,5	;RP0=0, select bank0
  3769  048F  1303               	bcf	3,6	;RP1=0, select bank0
  3770  0490  0869               	movf	?_log+1,w
  3771  0491  1683               	bsf	3,5	;RP0=1, select bank1
  3772  0492  1303               	bcf	3,6	;RP1=0, select bank1
  3773  0493  00E1               	movwf	(_logR2+1)^(0+128)
  3774  0494  1283               	bcf	3,5	;RP0=0, select bank0
  3775  0495  1303               	bcf	3,6	;RP1=0, select bank0
  3776  0496  0868               	movf	?_log,w
  3777  0497  1683               	bsf	3,5	;RP0=1, select bank1
  3778  0498  1303               	bcf	3,6	;RP1=0, select bank1
  3779  0499  00E0               	movwf	_logR2^(0+128)
  3780  049A                     i1l3152:
  3781                           
  3782                           ;main_slave_p1.c: 89:             TC = (uint8_t)(273.15 - (1.0 / (A + B * logR2 + C * lo
      +                          gR2 * logR2 * logR2)));
  3783  049A  1683               	bsf	3,5	;RP0=1, select bank3
  3784  049B  1703               	bsf	3,6	;RP1=1, select bank3
  3785  049C  0831               	movf	(_C+3)^(0+384),w
  3786  049D  1283               	bcf	3,5	;RP0=0, select bank0
  3787  049E  1303               	bcf	3,6	;RP1=0, select bank0
  3788  049F  00C5               	movwf	___flmul@a+3
  3789  04A0  1683               	bsf	3,5	;RP0=1, select bank3
  3790  04A1  1703               	bsf	3,6	;RP1=1, select bank3
  3791  04A2  0830               	movf	(_C+2)^(0+384),w
  3792  04A3  1283               	bcf	3,5	;RP0=0, select bank0
  3793  04A4  1303               	bcf	3,6	;RP1=0, select bank0
  3794  04A5  00C4               	movwf	___flmul@a+2
  3795  04A6  1683               	bsf	3,5	;RP0=1, select bank3
  3796  04A7  1703               	bsf	3,6	;RP1=1, select bank3
  3797  04A8  082F               	movf	(_C+1)^(0+384),w
  3798  04A9  1283               	bcf	3,5	;RP0=0, select bank0
  3799  04AA  1303               	bcf	3,6	;RP1=0, select bank0
  3800  04AB  00C3               	movwf	___flmul@a+1
  3801  04AC  1683               	bsf	3,5	;RP0=1, select bank3
  3802  04AD  1703               	bsf	3,6	;RP1=1, select bank3
  3803  04AE  082E               	movf	_C^(0+384),w
  3804  04AF  1283               	bcf	3,5	;RP0=0, select bank0
  3805  04B0  1303               	bcf	3,6	;RP1=0, select bank0
  3806  04B1  00C2               	movwf	___flmul@a
  3807  04B2  1683               	bsf	3,5	;RP0=1, select bank1
  3808  04B3  1303               	bcf	3,6	;RP1=0, select bank1
  3809  04B4  0863               	movf	(_logR2+3)^(0+128),w
  3810  04B5  1283               	bcf	3,5	;RP0=0, select bank0
  3811  04B6  1303               	bcf	3,6	;RP1=0, select bank0
  3812  04B7  00C1               	movwf	___flmul@b+3
  3813  04B8  1683               	bsf	3,5	;RP0=1, select bank1
  3814  04B9  1303               	bcf	3,6	;RP1=0, select bank1
  3815  04BA  0862               	movf	(_logR2+2)^(0+128),w
  3816  04BB  1283               	bcf	3,5	;RP0=0, select bank0
  3817  04BC  1303               	bcf	3,6	;RP1=0, select bank0
  3818  04BD  00C0               	movwf	___flmul@b+2
  3819  04BE  1683               	bsf	3,5	;RP0=1, select bank1
  3820  04BF  1303               	bcf	3,6	;RP1=0, select bank1
  3821  04C0  0861               	movf	(_logR2+1)^(0+128),w
  3822  04C1  1283               	bcf	3,5	;RP0=0, select bank0
  3823  04C2  1303               	bcf	3,6	;RP1=0, select bank0
  3824  04C3  00BF               	movwf	___flmul@b+1
  3825  04C4  1683               	bsf	3,5	;RP0=1, select bank1
  3826  04C5  1303               	bcf	3,6	;RP1=0, select bank1
  3827  04C6  0860               	movf	_logR2^(0+128),w
  3828  04C7  1283               	bcf	3,5	;RP0=0, select bank0
  3829  04C8  1303               	bcf	3,6	;RP1=0, select bank0
  3830  04C9  00BE               	movwf	___flmul@b
  3831  04CA  120A  118A  2041  120A  118A  	fcall	___flmul
  3832  04CF  1283               	bcf	3,5	;RP0=0, select bank0
  3833  04D0  1303               	bcf	3,6	;RP1=0, select bank0
  3834  04D1  0841               	movf	?___flmul+3,w
  3835  04D2  1683               	bsf	3,5	;RP0=1, select bank1
  3836  04D3  1303               	bcf	3,6	;RP1=0, select bank1
  3837  04D4  00CB               	movwf	(_slave$1495+3)^(0+128)
  3838  04D5  1283               	bcf	3,5	;RP0=0, select bank0
  3839  04D6  1303               	bcf	3,6	;RP1=0, select bank0
  3840  04D7  0840               	movf	?___flmul+2,w
  3841  04D8  1683               	bsf	3,5	;RP0=1, select bank1
  3842  04D9  1303               	bcf	3,6	;RP1=0, select bank1
  3843  04DA  00CA               	movwf	(_slave$1495+2)^(0+128)
  3844  04DB  1283               	bcf	3,5	;RP0=0, select bank0
  3845  04DC  1303               	bcf	3,6	;RP1=0, select bank0
  3846  04DD  083F               	movf	?___flmul+1,w
  3847  04DE  1683               	bsf	3,5	;RP0=1, select bank1
  3848  04DF  1303               	bcf	3,6	;RP1=0, select bank1
  3849  04E0  00C9               	movwf	(_slave$1495+1)^(0+128)
  3850  04E1  1283               	bcf	3,5	;RP0=0, select bank0
  3851  04E2  1303               	bcf	3,6	;RP1=0, select bank0
  3852  04E3  083E               	movf	?___flmul,w
  3853  04E4  1683               	bsf	3,5	;RP0=1, select bank1
  3854  04E5  1303               	bcf	3,6	;RP1=0, select bank1
  3855  04E6  00C8               	movwf	_slave$1495^(0+128)
  3856  04E7                     i1l3154:
  3857                           
  3858                           ;main_slave_p1.c: 89:             TC = (uint8_t)(273.15 - (1.0 / (A + B * logR2 + C * lo
      +                          gR2 * logR2 * logR2)));
  3859  04E7  084B               	movf	(_slave$1495+3)^(0+128),w
  3860  04E8  1283               	bcf	3,5	;RP0=0, select bank0
  3861  04E9  1303               	bcf	3,6	;RP1=0, select bank0
  3862  04EA  00C5               	movwf	___flmul@a+3
  3863  04EB  1683               	bsf	3,5	;RP0=1, select bank1
  3864  04EC  1303               	bcf	3,6	;RP1=0, select bank1
  3865  04ED  084A               	movf	(_slave$1495+2)^(0+128),w
  3866  04EE  1283               	bcf	3,5	;RP0=0, select bank0
  3867  04EF  1303               	bcf	3,6	;RP1=0, select bank0
  3868  04F0  00C4               	movwf	___flmul@a+2
  3869  04F1  1683               	bsf	3,5	;RP0=1, select bank1
  3870  04F2  1303               	bcf	3,6	;RP1=0, select bank1
  3871  04F3  0849               	movf	(_slave$1495+1)^(0+128),w
  3872  04F4  1283               	bcf	3,5	;RP0=0, select bank0
  3873  04F5  1303               	bcf	3,6	;RP1=0, select bank0
  3874  04F6  00C3               	movwf	___flmul@a+1
  3875  04F7  1683               	bsf	3,5	;RP0=1, select bank1
  3876  04F8  1303               	bcf	3,6	;RP1=0, select bank1
  3877  04F9  0848               	movf	_slave$1495^(0+128),w
  3878  04FA  1283               	bcf	3,5	;RP0=0, select bank0
  3879  04FB  1303               	bcf	3,6	;RP1=0, select bank0
  3880  04FC  00C2               	movwf	___flmul@a
  3881  04FD  1683               	bsf	3,5	;RP0=1, select bank1
  3882  04FE  1303               	bcf	3,6	;RP1=0, select bank1
  3883  04FF  0863               	movf	(_logR2+3)^(0+128),w
  3884  0500  1283               	bcf	3,5	;RP0=0, select bank0
  3885  0501  1303               	bcf	3,6	;RP1=0, select bank0
  3886  0502  00C1               	movwf	___flmul@b+3
  3887  0503  1683               	bsf	3,5	;RP0=1, select bank1
  3888  0504  1303               	bcf	3,6	;RP1=0, select bank1
  3889  0505  0862               	movf	(_logR2+2)^(0+128),w
  3890  0506  1283               	bcf	3,5	;RP0=0, select bank0
  3891  0507  1303               	bcf	3,6	;RP1=0, select bank0
  3892  0508  00C0               	movwf	___flmul@b+2
  3893  0509  1683               	bsf	3,5	;RP0=1, select bank1
  3894  050A  1303               	bcf	3,6	;RP1=0, select bank1
  3895  050B  0861               	movf	(_logR2+1)^(0+128),w
  3896  050C  1283               	bcf	3,5	;RP0=0, select bank0
  3897  050D  1303               	bcf	3,6	;RP1=0, select bank0
  3898  050E  00BF               	movwf	___flmul@b+1
  3899  050F  1683               	bsf	3,5	;RP0=1, select bank1
  3900  0510  1303               	bcf	3,6	;RP1=0, select bank1
  3901  0511  0860               	movf	_logR2^(0+128),w
  3902  0512  1283               	bcf	3,5	;RP0=0, select bank0
  3903  0513  1303               	bcf	3,6	;RP1=0, select bank0
  3904  0514  00BE               	movwf	___flmul@b
  3905  0515  120A  118A  2041  120A  118A  	fcall	___flmul
  3906  051A  1283               	bcf	3,5	;RP0=0, select bank0
  3907  051B  1303               	bcf	3,6	;RP1=0, select bank0
  3908  051C  0841               	movf	?___flmul+3,w
  3909  051D  1683               	bsf	3,5	;RP0=1, select bank1
  3910  051E  1303               	bcf	3,6	;RP1=0, select bank1
  3911  051F  00CF               	movwf	(_slave$1496+3)^(0+128)
  3912  0520  1283               	bcf	3,5	;RP0=0, select bank0
  3913  0521  1303               	bcf	3,6	;RP1=0, select bank0
  3914  0522  0840               	movf	?___flmul+2,w
  3915  0523  1683               	bsf	3,5	;RP0=1, select bank1
  3916  0524  1303               	bcf	3,6	;RP1=0, select bank1
  3917  0525  00CE               	movwf	(_slave$1496+2)^(0+128)
  3918  0526  1283               	bcf	3,5	;RP0=0, select bank0
  3919  0527  1303               	bcf	3,6	;RP1=0, select bank0
  3920  0528  083F               	movf	?___flmul+1,w
  3921  0529  1683               	bsf	3,5	;RP0=1, select bank1
  3922  052A  1303               	bcf	3,6	;RP1=0, select bank1
  3923  052B  00CD               	movwf	(_slave$1496+1)^(0+128)
  3924  052C  1283               	bcf	3,5	;RP0=0, select bank0
  3925  052D  1303               	bcf	3,6	;RP1=0, select bank0
  3926  052E  083E               	movf	?___flmul,w
  3927  052F  1683               	bsf	3,5	;RP0=1, select bank1
  3928  0530  1303               	bcf	3,6	;RP1=0, select bank1
  3929  0531  00CC               	movwf	_slave$1496^(0+128)
  3930  0532                     i1l3156:
  3931                           
  3932                           ;main_slave_p1.c: 89:             TC = (uint8_t)(273.15 - (1.0 / (A + B * logR2 + C * lo
      +                          gR2 * logR2 * logR2)));
  3933  0532  1683               	bsf	3,5	;RP0=1, select bank3
  3934  0533  1703               	bsf	3,6	;RP1=1, select bank3
  3935  0534  0839               	movf	(_B+3)^(0+384),w
  3936  0535  1283               	bcf	3,5	;RP0=0, select bank0
  3937  0536  1303               	bcf	3,6	;RP1=0, select bank0
  3938  0537  00C5               	movwf	___flmul@a+3
  3939  0538  1683               	bsf	3,5	;RP0=1, select bank3
  3940  0539  1703               	bsf	3,6	;RP1=1, select bank3
  3941  053A  0838               	movf	(_B+2)^(0+384),w
  3942  053B  1283               	bcf	3,5	;RP0=0, select bank0
  3943  053C  1303               	bcf	3,6	;RP1=0, select bank0
  3944  053D  00C4               	movwf	___flmul@a+2
  3945  053E  1683               	bsf	3,5	;RP0=1, select bank3
  3946  053F  1703               	bsf	3,6	;RP1=1, select bank3
  3947  0540  0837               	movf	(_B+1)^(0+384),w
  3948  0541  1283               	bcf	3,5	;RP0=0, select bank0
  3949  0542  1303               	bcf	3,6	;RP1=0, select bank0
  3950  0543  00C3               	movwf	___flmul@a+1
  3951  0544  1683               	bsf	3,5	;RP0=1, select bank3
  3952  0545  1703               	bsf	3,6	;RP1=1, select bank3
  3953  0546  0836               	movf	_B^(0+384),w
  3954  0547  1283               	bcf	3,5	;RP0=0, select bank0
  3955  0548  1303               	bcf	3,6	;RP1=0, select bank0
  3956  0549  00C2               	movwf	___flmul@a
  3957  054A  1683               	bsf	3,5	;RP0=1, select bank1
  3958  054B  1303               	bcf	3,6	;RP1=0, select bank1
  3959  054C  0863               	movf	(_logR2+3)^(0+128),w
  3960  054D  1283               	bcf	3,5	;RP0=0, select bank0
  3961  054E  1303               	bcf	3,6	;RP1=0, select bank0
  3962  054F  00C1               	movwf	___flmul@b+3
  3963  0550  1683               	bsf	3,5	;RP0=1, select bank1
  3964  0551  1303               	bcf	3,6	;RP1=0, select bank1
  3965  0552  0862               	movf	(_logR2+2)^(0+128),w
  3966  0553  1283               	bcf	3,5	;RP0=0, select bank0
  3967  0554  1303               	bcf	3,6	;RP1=0, select bank0
  3968  0555  00C0               	movwf	___flmul@b+2
  3969  0556  1683               	bsf	3,5	;RP0=1, select bank1
  3970  0557  1303               	bcf	3,6	;RP1=0, select bank1
  3971  0558  0861               	movf	(_logR2+1)^(0+128),w
  3972  0559  1283               	bcf	3,5	;RP0=0, select bank0
  3973  055A  1303               	bcf	3,6	;RP1=0, select bank0
  3974  055B  00BF               	movwf	___flmul@b+1
  3975  055C  1683               	bsf	3,5	;RP0=1, select bank1
  3976  055D  1303               	bcf	3,6	;RP1=0, select bank1
  3977  055E  0860               	movf	_logR2^(0+128),w
  3978  055F  1283               	bcf	3,5	;RP0=0, select bank0
  3979  0560  1303               	bcf	3,6	;RP1=0, select bank0
  3980  0561  00BE               	movwf	___flmul@b
  3981  0562  120A  118A  2041  120A  118A  	fcall	___flmul
  3982  0567  1283               	bcf	3,5	;RP0=0, select bank0
  3983  0568  1303               	bcf	3,6	;RP1=0, select bank0
  3984  0569  0841               	movf	?___flmul+3,w
  3985  056A  00B1               	movwf	___fladd@a+3
  3986  056B  0840               	movf	?___flmul+2,w
  3987  056C  00B0               	movwf	___fladd@a+2
  3988  056D  083F               	movf	?___flmul+1,w
  3989  056E  00AF               	movwf	___fladd@a+1
  3990  056F  083E               	movf	?___flmul,w
  3991  0570  00AE               	movwf	___fladd@a
  3992  0571  1683               	bsf	3,5	;RP0=1, select bank1
  3993  0572  1303               	bcf	3,6	;RP1=0, select bank1
  3994  0573  086B               	movf	(_A+3)^(0+128),w
  3995  0574  1283               	bcf	3,5	;RP0=0, select bank0
  3996  0575  1303               	bcf	3,6	;RP1=0, select bank0
  3997  0576  00AD               	movwf	___fladd@b+3
  3998  0577  1683               	bsf	3,5	;RP0=1, select bank1
  3999  0578  1303               	bcf	3,6	;RP1=0, select bank1
  4000  0579  086A               	movf	(_A+2)^(0+128),w
  4001  057A  1283               	bcf	3,5	;RP0=0, select bank0
  4002  057B  1303               	bcf	3,6	;RP1=0, select bank0
  4003  057C  00AC               	movwf	___fladd@b+2
  4004  057D  1683               	bsf	3,5	;RP0=1, select bank1
  4005  057E  1303               	bcf	3,6	;RP1=0, select bank1
  4006  057F  0869               	movf	(_A+1)^(0+128),w
  4007  0580  1283               	bcf	3,5	;RP0=0, select bank0
  4008  0581  1303               	bcf	3,6	;RP1=0, select bank0
  4009  0582  00AB               	movwf	___fladd@b+1
  4010  0583  1683               	bsf	3,5	;RP0=1, select bank1
  4011  0584  1303               	bcf	3,6	;RP1=0, select bank1
  4012  0585  0868               	movf	_A^(0+128),w
  4013  0586  1283               	bcf	3,5	;RP0=0, select bank0
  4014  0587  1303               	bcf	3,6	;RP1=0, select bank0
  4015  0588  00AA               	movwf	___fladd@b
  4016  0589  120A  158A  22D8  120A  118A  	fcall	___fladd
  4017  058E  1283               	bcf	3,5	;RP0=0, select bank0
  4018  058F  1303               	bcf	3,6	;RP1=0, select bank0
  4019  0590  082D               	movf	?___fladd+3,w
  4020  0591  1683               	bsf	3,5	;RP0=1, select bank1
  4021  0592  1303               	bcf	3,6	;RP1=0, select bank1
  4022  0593  00D3               	movwf	(_slave$1497+3)^(0+128)
  4023  0594  1283               	bcf	3,5	;RP0=0, select bank0
  4024  0595  1303               	bcf	3,6	;RP1=0, select bank0
  4025  0596  082C               	movf	?___fladd+2,w
  4026  0597  1683               	bsf	3,5	;RP0=1, select bank1
  4027  0598  1303               	bcf	3,6	;RP1=0, select bank1
  4028  0599  00D2               	movwf	(_slave$1497+2)^(0+128)
  4029  059A  1283               	bcf	3,5	;RP0=0, select bank0
  4030  059B  1303               	bcf	3,6	;RP1=0, select bank0
  4031  059C  082B               	movf	?___fladd+1,w
  4032  059D  1683               	bsf	3,5	;RP0=1, select bank1
  4033  059E  1303               	bcf	3,6	;RP1=0, select bank1
  4034  059F  00D1               	movwf	(_slave$1497+1)^(0+128)
  4035  05A0  1283               	bcf	3,5	;RP0=0, select bank0
  4036  05A1  1303               	bcf	3,6	;RP1=0, select bank0
  4037  05A2  082A               	movf	?___fladd,w
  4038  05A3  1683               	bsf	3,5	;RP0=1, select bank1
  4039  05A4  1303               	bcf	3,6	;RP1=0, select bank1
  4040  05A5  00D0               	movwf	_slave$1497^(0+128)
  4041  05A6                     i1l3158:
  4042                           
  4043                           ;main_slave_p1.c: 89:             TC = (uint8_t)(273.15 - (1.0 / (A + B * logR2 + C * lo
      +                          gR2 * logR2 * logR2)));
  4044  05A6  303F               	movlw	63
  4045  05A7  1283               	bcf	3,5	;RP0=0, select bank0
  4046  05A8  1303               	bcf	3,6	;RP1=0, select bank0
  4047  05A9  00DF               	movwf	___fldiv@b+3
  4048  05AA  3080               	movlw	128
  4049  05AB  00DE               	movwf	___fldiv@b+2
  4050  05AC  3000               	movlw	0
  4051  05AD  00DD               	movwf	___fldiv@b+1
  4052  05AE  3000               	movlw	0
  4053  05AF  00DC               	movwf	___fldiv@b
  4054  05B0  1683               	bsf	3,5	;RP0=1, select bank1
  4055  05B1  1303               	bcf	3,6	;RP1=0, select bank1
  4056  05B2  0853               	movf	(_slave$1497+3)^(0+128),w
  4057  05B3  1283               	bcf	3,5	;RP0=0, select bank0
  4058  05B4  1303               	bcf	3,6	;RP1=0, select bank0
  4059  05B5  00B1               	movwf	___fladd@a+3
  4060  05B6  1683               	bsf	3,5	;RP0=1, select bank1
  4061  05B7  1303               	bcf	3,6	;RP1=0, select bank1
  4062  05B8  0852               	movf	(_slave$1497+2)^(0+128),w
  4063  05B9  1283               	bcf	3,5	;RP0=0, select bank0
  4064  05BA  1303               	bcf	3,6	;RP1=0, select bank0
  4065  05BB  00B0               	movwf	___fladd@a+2
  4066  05BC  1683               	bsf	3,5	;RP0=1, select bank1
  4067  05BD  1303               	bcf	3,6	;RP1=0, select bank1
  4068  05BE  0851               	movf	(_slave$1497+1)^(0+128),w
  4069  05BF  1283               	bcf	3,5	;RP0=0, select bank0
  4070  05C0  1303               	bcf	3,6	;RP1=0, select bank0
  4071  05C1  00AF               	movwf	___fladd@a+1
  4072  05C2  1683               	bsf	3,5	;RP0=1, select bank1
  4073  05C3  1303               	bcf	3,6	;RP1=0, select bank1
  4074  05C4  0850               	movf	_slave$1497^(0+128),w
  4075  05C5  1283               	bcf	3,5	;RP0=0, select bank0
  4076  05C6  1303               	bcf	3,6	;RP1=0, select bank0
  4077  05C7  00AE               	movwf	___fladd@a
  4078  05C8  1683               	bsf	3,5	;RP0=1, select bank1
  4079  05C9  1303               	bcf	3,6	;RP1=0, select bank1
  4080  05CA  084F               	movf	(_slave$1496+3)^(0+128),w
  4081  05CB  1283               	bcf	3,5	;RP0=0, select bank0
  4082  05CC  1303               	bcf	3,6	;RP1=0, select bank0
  4083  05CD  00C5               	movwf	___flmul@a+3
  4084  05CE  1683               	bsf	3,5	;RP0=1, select bank1
  4085  05CF  1303               	bcf	3,6	;RP1=0, select bank1
  4086  05D0  084E               	movf	(_slave$1496+2)^(0+128),w
  4087  05D1  1283               	bcf	3,5	;RP0=0, select bank0
  4088  05D2  1303               	bcf	3,6	;RP1=0, select bank0
  4089  05D3  00C4               	movwf	___flmul@a+2
  4090  05D4  1683               	bsf	3,5	;RP0=1, select bank1
  4091  05D5  1303               	bcf	3,6	;RP1=0, select bank1
  4092  05D6  084D               	movf	(_slave$1496+1)^(0+128),w
  4093  05D7  1283               	bcf	3,5	;RP0=0, select bank0
  4094  05D8  1303               	bcf	3,6	;RP1=0, select bank0
  4095  05D9  00C3               	movwf	___flmul@a+1
  4096  05DA  1683               	bsf	3,5	;RP0=1, select bank1
  4097  05DB  1303               	bcf	3,6	;RP1=0, select bank1
  4098  05DC  084C               	movf	_slave$1496^(0+128),w
  4099  05DD  1283               	bcf	3,5	;RP0=0, select bank0
  4100  05DE  1303               	bcf	3,6	;RP1=0, select bank0
  4101  05DF  00C2               	movwf	___flmul@a
  4102  05E0  1683               	bsf	3,5	;RP0=1, select bank1
  4103  05E1  1303               	bcf	3,6	;RP1=0, select bank1
  4104  05E2  0863               	movf	(_logR2+3)^(0+128),w
  4105  05E3  1283               	bcf	3,5	;RP0=0, select bank0
  4106  05E4  1303               	bcf	3,6	;RP1=0, select bank0
  4107  05E5  00C1               	movwf	___flmul@b+3
  4108  05E6  1683               	bsf	3,5	;RP0=1, select bank1
  4109  05E7  1303               	bcf	3,6	;RP1=0, select bank1
  4110  05E8  0862               	movf	(_logR2+2)^(0+128),w
  4111  05E9  1283               	bcf	3,5	;RP0=0, select bank0
  4112  05EA  1303               	bcf	3,6	;RP1=0, select bank0
  4113  05EB  00C0               	movwf	___flmul@b+2
  4114  05EC  1683               	bsf	3,5	;RP0=1, select bank1
  4115  05ED  1303               	bcf	3,6	;RP1=0, select bank1
  4116  05EE  0861               	movf	(_logR2+1)^(0+128),w
  4117  05EF  1283               	bcf	3,5	;RP0=0, select bank0
  4118  05F0  1303               	bcf	3,6	;RP1=0, select bank0
  4119  05F1  00BF               	movwf	___flmul@b+1
  4120  05F2  1683               	bsf	3,5	;RP0=1, select bank1
  4121  05F3  1303               	bcf	3,6	;RP1=0, select bank1
  4122  05F4  0860               	movf	_logR2^(0+128),w
  4123  05F5  1283               	bcf	3,5	;RP0=0, select bank0
  4124  05F6  1303               	bcf	3,6	;RP1=0, select bank0
  4125  05F7  00BE               	movwf	___flmul@b
  4126  05F8  120A  118A  2041  120A  118A  	fcall	___flmul
  4127  05FD  1283               	bcf	3,5	;RP0=0, select bank0
  4128  05FE  1303               	bcf	3,6	;RP1=0, select bank0
  4129  05FF  0841               	movf	?___flmul+3,w
  4130  0600  00AD               	movwf	___fladd@b+3
  4131  0601  0840               	movf	?___flmul+2,w
  4132  0602  00AC               	movwf	___fladd@b+2
  4133  0603  083F               	movf	?___flmul+1,w
  4134  0604  00AB               	movwf	___fladd@b+1
  4135  0605  083E               	movf	?___flmul,w
  4136  0606  00AA               	movwf	___fladd@b
  4137  0607  120A  158A  22D8  120A  118A  	fcall	___fladd
  4138  060C  1283               	bcf	3,5	;RP0=0, select bank0
  4139  060D  1303               	bcf	3,6	;RP1=0, select bank0
  4140  060E  082D               	movf	?___fladd+3,w
  4141  060F  00DB               	movwf	___fldiv@a+3
  4142  0610  082C               	movf	?___fladd+2,w
  4143  0611  00DA               	movwf	___fldiv@a+2
  4144  0612  082B               	movf	?___fladd+1,w
  4145  0613  00D9               	movwf	___fldiv@a+1
  4146  0614  082A               	movf	?___fladd,w
  4147  0615  00D8               	movwf	___fldiv@a
  4148  0616  120A  158A  2560  120A  118A  	fcall	___fldiv
  4149  061B  1283               	bcf	3,5	;RP0=0, select bank0
  4150  061C  1303               	bcf	3,6	;RP1=0, select bank0
  4151  061D  085B               	movf	?___fldiv+3,w
  4152  061E  1683               	bsf	3,5	;RP0=1, select bank1
  4153  061F  1303               	bcf	3,6	;RP1=0, select bank1
  4154  0620  00D7               	movwf	(_slave$1498+3)^(0+128)
  4155  0621  1283               	bcf	3,5	;RP0=0, select bank0
  4156  0622  1303               	bcf	3,6	;RP1=0, select bank0
  4157  0623  085A               	movf	?___fldiv+2,w
  4158  0624  1683               	bsf	3,5	;RP0=1, select bank1
  4159  0625  1303               	bcf	3,6	;RP1=0, select bank1
  4160  0626  00D6               	movwf	(_slave$1498+2)^(0+128)
  4161  0627  1283               	bcf	3,5	;RP0=0, select bank0
  4162  0628  1303               	bcf	3,6	;RP1=0, select bank0
  4163  0629  0859               	movf	?___fldiv+1,w
  4164  062A  1683               	bsf	3,5	;RP0=1, select bank1
  4165  062B  1303               	bcf	3,6	;RP1=0, select bank1
  4166  062C  00D5               	movwf	(_slave$1498+1)^(0+128)
  4167  062D  1283               	bcf	3,5	;RP0=0, select bank0
  4168  062E  1303               	bcf	3,6	;RP1=0, select bank0
  4169  062F  0858               	movf	?___fldiv,w
  4170  0630  1683               	bsf	3,5	;RP0=1, select bank1
  4171  0631  1303               	bcf	3,6	;RP1=0, select bank1
  4172  0632  00D4               	movwf	_slave$1498^(0+128)
  4173  0633                     i1l3160:
  4174                           
  4175                           ;main_slave_p1.c: 89:             TC = (uint8_t)(273.15 - (1.0 / (A + B * logR2 + C * lo
      +                          gR2 * logR2 * logR2)));
  4176  0633  3043               	movlw	67
  4177  0634  1283               	bcf	3,5	;RP0=0, select bank0
  4178  0635  1303               	bcf	3,6	;RP1=0, select bank0
  4179  0636  00EC               	movwf	___flsub@b+3
  4180  0637  3088               	movlw	136
  4181  0638  00EB               	movwf	___flsub@b+2
  4182  0639  3093               	movlw	147
  4183  063A  00EA               	movwf	___flsub@b+1
  4184  063B  3033               	movlw	51
  4185  063C  00E9               	movwf	___flsub@b
  4186  063D  1683               	bsf	3,5	;RP0=1, select bank1
  4187  063E  1303               	bcf	3,6	;RP1=0, select bank1
  4188  063F  0857               	movf	(_slave$1498+3)^(0+128),w
  4189  0640  1283               	bcf	3,5	;RP0=0, select bank0
  4190  0641  1303               	bcf	3,6	;RP1=0, select bank0
  4191  0642  00E8               	movwf	___flsub@a+3
  4192  0643  1683               	bsf	3,5	;RP0=1, select bank1
  4193  0644  1303               	bcf	3,6	;RP1=0, select bank1
  4194  0645  0856               	movf	(_slave$1498+2)^(0+128),w
  4195  0646  1283               	bcf	3,5	;RP0=0, select bank0
  4196  0647  1303               	bcf	3,6	;RP1=0, select bank0
  4197  0648  00E7               	movwf	___flsub@a+2
  4198  0649  1683               	bsf	3,5	;RP0=1, select bank1
  4199  064A  1303               	bcf	3,6	;RP1=0, select bank1
  4200  064B  0855               	movf	(_slave$1498+1)^(0+128),w
  4201  064C  1283               	bcf	3,5	;RP0=0, select bank0
  4202  064D  1303               	bcf	3,6	;RP1=0, select bank0
  4203  064E  00E6               	movwf	___flsub@a+1
  4204  064F  1683               	bsf	3,5	;RP0=1, select bank1
  4205  0650  1303               	bcf	3,6	;RP1=0, select bank1
  4206  0651  0854               	movf	_slave$1498^(0+128),w
  4207  0652  1283               	bcf	3,5	;RP0=0, select bank0
  4208  0653  1303               	bcf	3,6	;RP1=0, select bank0
  4209  0654  00E5               	movwf	___flsub@a
  4210  0655  160A  118A  2282  120A  118A  	fcall	___flsub
  4211  065A  1283               	bcf	3,5	;RP0=0, select bank0
  4212  065B  1303               	bcf	3,6	;RP1=0, select bank0
  4213  065C  0868               	movf	?___flsub+3,w
  4214  065D  1683               	bsf	3,5	;RP0=1, select bank1
  4215  065E  1303               	bcf	3,6	;RP1=0, select bank1
  4216  065F  00B0               	movwf	(i1___fltol@f1+3)^(0+128)
  4217  0660  1283               	bcf	3,5	;RP0=0, select bank0
  4218  0661  1303               	bcf	3,6	;RP1=0, select bank0
  4219  0662  0867               	movf	?___flsub+2,w
  4220  0663  1683               	bsf	3,5	;RP0=1, select bank1
  4221  0664  1303               	bcf	3,6	;RP1=0, select bank1
  4222  0665  00AF               	movwf	(i1___fltol@f1+2)^(0+128)
  4223  0666  1283               	bcf	3,5	;RP0=0, select bank0
  4224  0667  1303               	bcf	3,6	;RP1=0, select bank0
  4225  0668  0866               	movf	?___flsub+1,w
  4226  0669  1683               	bsf	3,5	;RP0=1, select bank1
  4227  066A  1303               	bcf	3,6	;RP1=0, select bank1
  4228  066B  00AE               	movwf	(i1___fltol@f1+1)^(0+128)
  4229  066C  1283               	bcf	3,5	;RP0=0, select bank0
  4230  066D  1303               	bcf	3,6	;RP1=0, select bank0
  4231  066E  0865               	movf	?___flsub,w
  4232  066F  1683               	bsf	3,5	;RP0=1, select bank1
  4233  0670  1303               	bcf	3,6	;RP1=0, select bank1
  4234  0671  00AD               	movwf	i1___fltol@f1^(0+128)
  4235  0672  160A  118A  26D0  120A  118A  	fcall	i1___fltol
  4236  0677  1683               	bsf	3,5	;RP0=1, select bank1
  4237  0678  1303               	bcf	3,6	;RP1=0, select bank1
  4238  0679  082D               	movf	?i1___fltol^(0+128),w
  4239  067A  00C0               	movwf	??_slave^(0+128)
  4240  067B  01C1               	clrf	(??_slave^(0+128)+1)
  4241  067C  01C2               	clrf	(??_slave^(0+128)+2)
  4242  067D  01C3               	clrf	(??_slave^(0+128)+3)
  4243  067E  0843               	movf	(??_slave+3)^(0+128),w
  4244  067F  00FC               	movwf	___xxtofl@val+3
  4245  0680  0842               	movf	(??_slave+2)^(0+128),w
  4246  0681  00FB               	movwf	___xxtofl@val+2
  4247  0682  0841               	movf	(??_slave+1)^(0+128),w
  4248  0683  00FA               	movwf	___xxtofl@val+1
  4249  0684  0840               	movf	??_slave^(0+128),w
  4250  0685  00F9               	movwf	___xxtofl@val
  4251  0686  3000               	movlw	0
  4252  0687  120A  158A  221C  120A  118A  	fcall	___xxtofl
  4253  068C  087C               	movf	?___xxtofl+3,w
  4254  068D  1683               	bsf	3,5	;RP0=1, select bank1
  4255  068E  1303               	bcf	3,6	;RP1=0, select bank1
  4256  068F  00DB               	movwf	(_TC+3)^(0+128)
  4257  0690  087B               	movf	?___xxtofl+2,w
  4258  0691  00DA               	movwf	(_TC+2)^(0+128)
  4259  0692  087A               	movf	?___xxtofl+1,w
  4260  0693  00D9               	movwf	(_TC+1)^(0+128)
  4261  0694  0879               	movf	?___xxtofl,w
  4262  0695  00D8               	movwf	_TC^(0+128)
  4263  0696                     i1l3162:
  4264                           
  4265                           ;main_slave_p1.c: 90:             PORTD = TC;
  4266  0696  085B               	movf	(_TC+3)^(0+128),w
  4267  0697  00B0               	movwf	(i1___fltol@f1+3)^(0+128)
  4268  0698  085A               	movf	(_TC+2)^(0+128),w
  4269  0699  00AF               	movwf	(i1___fltol@f1+2)^(0+128)
  4270  069A  0859               	movf	(_TC+1)^(0+128),w
  4271  069B  00AE               	movwf	(i1___fltol@f1+1)^(0+128)
  4272  069C  0858               	movf	_TC^(0+128),w
  4273  069D  00AD               	movwf	i1___fltol@f1^(0+128)
  4274  069E  160A  118A  26D0  120A  118A  	fcall	i1___fltol
  4275  06A3  1683               	bsf	3,5	;RP0=1, select bank1
  4276  06A4  1303               	bcf	3,6	;RP1=0, select bank1
  4277  06A5  082D               	movf	?i1___fltol^(0+128),w
  4278  06A6  1283               	bcf	3,5	;RP0=0, select bank0
  4279  06A7  1303               	bcf	3,6	;RP1=0, select bank0
  4280  06A8  0088               	movwf	8	;volatile
  4281  06A9                     i1l3164:
  4282                           
  4283                           ;main_slave_p1.c: 92:         PIR1bits.ADIF = 0;
  4284  06A9  1283               	bcf	3,5	;RP0=0, select bank0
  4285  06AA  130C               	bcf	12,6	;volatile
  4286  06AB                     i1l84:
  4287  06AB  1683               	bsf	3,5	;RP0=1, select bank1
  4288  06AC  1303               	bcf	3,6	;RP1=0, select bank1
  4289  06AD  0847               	movf	(??_slave+7)^(0+128),w
  4290  06AE  00FF               	movwf	btemp+1
  4291  06AF  0846               	movf	(??_slave+6)^(0+128),w
  4292  06B0  008A               	movwf	10
  4293  06B1  0845               	movf	(??_slave+5)^(0+128),w
  4294  06B2  0084               	movwf	4
  4295  06B3  0E44               	swapf	(??_slave+4)^(0+128),w
  4296  06B4  0083               	movwf	3
  4297  06B5  0EFE               	swapf	btemp,f
  4298  06B6  0E7E               	swapf	btemp,w
  4299  06B7  0009               	retfie
  4300  06B8                     __end_of_slave:
  4301                           
  4302                           	psect	intentry
  4303  0004                     __pintentry:	
  4304                           ;incstack = 0
  4305                           ; Regs used in _slave: [wreg-fsr0h+status,2+status,0+btemp+1+pclath+cstack]
  4306                           
  4307  0004                     interrupt_function:
  4308  007E                     saved_w	set	btemp
  4309  0004  00FE               	movwf	btemp
  4310  0005  0E03               	swapf	3,w
  4311  0006  1683               	bsf	3,5	;RP0=1, select bank1
  4312  0007  1303               	bcf	3,6	;RP1=0, select bank1
  4313  0008  00C4               	movwf	(??_slave+4)^(0+128)
  4314  0009  0804               	movf	4,w
  4315  000A  00C5               	movwf	(??_slave+5)^(0+128)
  4316  000B  080A               	movf	10,w
  4317  000C  00C6               	movwf	(??_slave+6)^(0+128)
  4318  000D  087F               	movf	btemp+1,w
  4319  000E  00C7               	movwf	(??_slave+7)^(0+128)
  4320  000F  120A  118A  2BA2   	ljmp	_slave
  4321                           
  4322                           	psect	text14
  4323  0963                     __ptext14:	
  4324 ;; *************** function _map *****************
  4325 ;; Defined at:
  4326 ;;		line 115 in file "main_slave_p1.c"
  4327 ;; Parameters:    Size  Location     Type
  4328 ;;  x               2   22[BANK1 ] unsigned int 
  4329 ;;  x0              2   24[BANK1 ] unsigned int 
  4330 ;;  x1              2   26[BANK1 ] unsigned int 
  4331 ;;  y0              2   28[BANK1 ] short 
  4332 ;;  y1              2   30[BANK1 ] short 
  4333 ;; Auto vars:     Size  Location     Type
  4334 ;;		None
  4335 ;; Return value:  Size  Location     Type
  4336 ;;                  2   22[BANK1 ] short 
  4337 ;; Registers used:
  4338 ;;		wreg, status,2, status,0, btemp+1, pclath, cstack
  4339 ;; Tracked objects:
  4340 ;;		On entry : 0/0
  4341 ;;		On exit  : 0/0
  4342 ;;		Unchanged: 0/0
  4343 ;; Data sizes:     COMMON   BANK0   BANK1   BANK3   BANK2
  4344 ;;      Params:         0       0      10       0       0
  4345 ;;      Locals:         0       0       0       0       0
  4346 ;;      Temps:          0       0       0       0       0
  4347 ;;      Totals:         0       0      10       0       0
  4348 ;;Total ram usage:       10 bytes
  4349 ;; Hardware stack levels used: 1
  4350 ;; Hardware stack levels required when called: 2
  4351 ;; This function calls:
  4352 ;;		___fladd
  4353 ;;		___fldiv
  4354 ;;		___flmul
  4355 ;;		___xxtofl
  4356 ;;		i1___fltol
  4357 ;; This function is called by:
  4358 ;;		_slave
  4359 ;; This function uses a non-reentrant model
  4360 ;;
  4361                           
  4362  0963                     _map:	
  4363                           ;psect for function _map
  4364                           
  4365  0963                     i1l2916:	
  4366                           ;incstack = 0
  4367                           ; Regs used in _map: [wreg+status,2+status,0+btemp+1+pclath+cstack]
  4368                           
  4369                           
  4370                           ;main_slave_p1.c: 115: short map(uint16_t x, uint16_t x0, uint16_t x1,;main_slave_p1.c: 
      +                          116:           short y0, short y1){;main_slave_p1.c: 117:     return (short)(y0+((float)
      +                          (y1-y0)/(x1-x0))*(x-x0));
  4371  0963  1683               	bsf	3,5	;RP0=1, select bank1
  4372  0964  1303               	bcf	3,6	;RP1=0, select bank1
  4373  0965  083C               	movf	map@y0^(0+128),w
  4374  0966  00F9               	movwf	___xxtofl@val
  4375  0967  083D               	movf	(map@y0+1)^(0+128),w
  4376  0968  00FA               	movwf	___xxtofl@val+1
  4377  0969  3000               	movlw	0
  4378  096A  1BFA               	btfsc	___xxtofl@val+1,7
  4379  096B  30FF               	movlw	255
  4380  096C  00FB               	movwf	___xxtofl@val+2
  4381  096D  00FC               	movwf	___xxtofl@val+3
  4382  096E  3001               	movlw	1
  4383  096F  120A  158A  221C  120A  158A  	fcall	___xxtofl
  4384  0974  087C               	movf	?___xxtofl+3,w
  4385  0975  1283               	bcf	3,5	;RP0=0, select bank0
  4386  0976  1303               	bcf	3,6	;RP1=0, select bank0
  4387  0977  00B1               	movwf	___fladd@a+3
  4388  0978  087B               	movf	?___xxtofl+2,w
  4389  0979  00B0               	movwf	___fladd@a+2
  4390  097A  087A               	movf	?___xxtofl+1,w
  4391  097B  00AF               	movwf	___fladd@a+1
  4392  097C  0879               	movf	?___xxtofl,w
  4393  097D  00AE               	movwf	___fladd@a
  4394  097E  1683               	bsf	3,5	;RP0=1, select bank1
  4395  097F  1303               	bcf	3,6	;RP1=0, select bank1
  4396  0980  083C               	movf	map@y0^(0+128),w
  4397  0981  023E               	subwf	map@y1^(0+128),w
  4398  0982  00F9               	movwf	___xxtofl@val
  4399  0983  083D               	movf	(map@y0+1)^(0+128),w
  4400  0984  1C03               	skipc
  4401  0985  0A3D               	incf	(map@y0+1)^(0+128),w
  4402  0986  023F               	subwf	(map@y1+1)^(0+128),w
  4403  0987  00FA               	movwf	___xxtofl@val+1
  4404  0988  01FB               	clrf	___xxtofl@val+2
  4405  0989  1BFA               	btfsc	___xxtofl@val+1,7
  4406  098A  03FB               	decf	___xxtofl@val+2,f
  4407  098B  087B               	movf	___xxtofl@val+2,w
  4408  098C  00FC               	movwf	___xxtofl@val+3
  4409  098D  3001               	movlw	1
  4410  098E  120A  158A  221C  120A  158A  	fcall	___xxtofl
  4411  0993  087C               	movf	?___xxtofl+3,w
  4412  0994  1283               	bcf	3,5	;RP0=0, select bank0
  4413  0995  1303               	bcf	3,6	;RP1=0, select bank0
  4414  0996  00DF               	movwf	___fldiv@b+3
  4415  0997  087B               	movf	?___xxtofl+2,w
  4416  0998  00DE               	movwf	___fldiv@b+2
  4417  0999  087A               	movf	?___xxtofl+1,w
  4418  099A  00DD               	movwf	___fldiv@b+1
  4419  099B  0879               	movf	?___xxtofl,w
  4420  099C  00DC               	movwf	___fldiv@b
  4421  099D  1683               	bsf	3,5	;RP0=1, select bank1
  4422  099E  1303               	bcf	3,6	;RP1=0, select bank1
  4423  099F  0838               	movf	map@x0^(0+128),w
  4424  09A0  023A               	subwf	map@x1^(0+128),w
  4425  09A1  00F9               	movwf	___xxtofl@val
  4426  09A2  0839               	movf	(map@x0+1)^(0+128),w
  4427  09A3  1C03               	skipc
  4428  09A4  0A39               	incf	(map@x0+1)^(0+128),w
  4429  09A5  023B               	subwf	(map@x1+1)^(0+128),w
  4430  09A6  00FA               	movwf	___xxtofl@val+1
  4431  09A7  01FB               	clrf	___xxtofl@val+2
  4432  09A8  01FC               	clrf	___xxtofl@val+3
  4433  09A9  3000               	movlw	0
  4434  09AA  120A  158A  221C  120A  158A  	fcall	___xxtofl
  4435  09AF  087C               	movf	?___xxtofl+3,w
  4436  09B0  1283               	bcf	3,5	;RP0=0, select bank0
  4437  09B1  1303               	bcf	3,6	;RP1=0, select bank0
  4438  09B2  00DB               	movwf	___fldiv@a+3
  4439  09B3  087B               	movf	?___xxtofl+2,w
  4440  09B4  00DA               	movwf	___fldiv@a+2
  4441  09B5  087A               	movf	?___xxtofl+1,w
  4442  09B6  00D9               	movwf	___fldiv@a+1
  4443  09B7  0879               	movf	?___xxtofl,w
  4444  09B8  00D8               	movwf	___fldiv@a
  4445  09B9  120A  158A  2560  120A  158A  	fcall	___fldiv
  4446  09BE  1283               	bcf	3,5	;RP0=0, select bank0
  4447  09BF  1303               	bcf	3,6	;RP1=0, select bank0
  4448  09C0  085B               	movf	?___fldiv+3,w
  4449  09C1  00C5               	movwf	___flmul@a+3
  4450  09C2  085A               	movf	?___fldiv+2,w
  4451  09C3  00C4               	movwf	___flmul@a+2
  4452  09C4  0859               	movf	?___fldiv+1,w
  4453  09C5  00C3               	movwf	___flmul@a+1
  4454  09C6  0858               	movf	?___fldiv,w
  4455  09C7  00C2               	movwf	___flmul@a
  4456  09C8  1683               	bsf	3,5	;RP0=1, select bank1
  4457  09C9  1303               	bcf	3,6	;RP1=0, select bank1
  4458  09CA  0838               	movf	map@x0^(0+128),w
  4459  09CB  0236               	subwf	map@x^(0+128),w
  4460  09CC  00F9               	movwf	___xxtofl@val
  4461  09CD  0839               	movf	(map@x0+1)^(0+128),w
  4462  09CE  1C03               	skipc
  4463  09CF  0A39               	incf	(map@x0+1)^(0+128),w
  4464  09D0  0237               	subwf	(map@x+1)^(0+128),w
  4465  09D1  00FA               	movwf	___xxtofl@val+1
  4466  09D2  01FB               	clrf	___xxtofl@val+2
  4467  09D3  01FC               	clrf	___xxtofl@val+3
  4468  09D4  3000               	movlw	0
  4469  09D5  120A  158A  221C  120A  158A  	fcall	___xxtofl
  4470  09DA  087C               	movf	?___xxtofl+3,w
  4471  09DB  1283               	bcf	3,5	;RP0=0, select bank0
  4472  09DC  1303               	bcf	3,6	;RP1=0, select bank0
  4473  09DD  00C1               	movwf	___flmul@b+3
  4474  09DE  087B               	movf	?___xxtofl+2,w
  4475  09DF  00C0               	movwf	___flmul@b+2
  4476  09E0  087A               	movf	?___xxtofl+1,w
  4477  09E1  00BF               	movwf	___flmul@b+1
  4478  09E2  0879               	movf	?___xxtofl,w
  4479  09E3  00BE               	movwf	___flmul@b
  4480  09E4  120A  118A  2041  120A  158A  	fcall	___flmul
  4481  09E9  1283               	bcf	3,5	;RP0=0, select bank0
  4482  09EA  1303               	bcf	3,6	;RP1=0, select bank0
  4483  09EB  0841               	movf	?___flmul+3,w
  4484  09EC  00AD               	movwf	___fladd@b+3
  4485  09ED  0840               	movf	?___flmul+2,w
  4486  09EE  00AC               	movwf	___fladd@b+2
  4487  09EF  083F               	movf	?___flmul+1,w
  4488  09F0  00AB               	movwf	___fladd@b+1
  4489  09F1  083E               	movf	?___flmul,w
  4490  09F2  00AA               	movwf	___fladd@b
  4491  09F3  120A  158A  22D8  120A  158A  	fcall	___fladd
  4492  09F8  1283               	bcf	3,5	;RP0=0, select bank0
  4493  09F9  1303               	bcf	3,6	;RP1=0, select bank0
  4494  09FA  082D               	movf	?___fladd+3,w
  4495  09FB  1683               	bsf	3,5	;RP0=1, select bank1
  4496  09FC  1303               	bcf	3,6	;RP1=0, select bank1
  4497  09FD  00B0               	movwf	(i1___fltol@f1+3)^(0+128)
  4498  09FE  1283               	bcf	3,5	;RP0=0, select bank0
  4499  09FF  1303               	bcf	3,6	;RP1=0, select bank0
  4500  0A00  082C               	movf	?___fladd+2,w
  4501  0A01  1683               	bsf	3,5	;RP0=1, select bank1
  4502  0A02  1303               	bcf	3,6	;RP1=0, select bank1
  4503  0A03  00AF               	movwf	(i1___fltol@f1+2)^(0+128)
  4504  0A04  1283               	bcf	3,5	;RP0=0, select bank0
  4505  0A05  1303               	bcf	3,6	;RP1=0, select bank0
  4506  0A06  082B               	movf	?___fladd+1,w
  4507  0A07  1683               	bsf	3,5	;RP0=1, select bank1
  4508  0A08  1303               	bcf	3,6	;RP1=0, select bank1
  4509  0A09  00AE               	movwf	(i1___fltol@f1+1)^(0+128)
  4510  0A0A  1283               	bcf	3,5	;RP0=0, select bank0
  4511  0A0B  1303               	bcf	3,6	;RP1=0, select bank0
  4512  0A0C  082A               	movf	?___fladd,w
  4513  0A0D  1683               	bsf	3,5	;RP0=1, select bank1
  4514  0A0E  1303               	bcf	3,6	;RP1=0, select bank1
  4515  0A0F  00AD               	movwf	i1___fltol@f1^(0+128)
  4516  0A10  160A  118A  26D0  120A  158A  	fcall	i1___fltol
  4517  0A15  1683               	bsf	3,5	;RP0=1, select bank1
  4518  0A16  1303               	bcf	3,6	;RP1=0, select bank1
  4519  0A17  082E               	movf	(?i1___fltol+1)^(0+128),w
  4520  0A18  00B7               	movwf	(?_map+1)^(0+128)
  4521  0A19  082D               	movf	?i1___fltol^(0+128),w
  4522  0A1A  00B6               	movwf	?_map^(0+128)
  4523  0A1B                     i1l95:
  4524  0A1B  0008               	return
  4525  0A1C                     __end_of_map:
  4526                           
  4527                           	psect	text15
  4528  16D0                     __ptext15:	
  4529 ;; *************** function i1___fltol *****************
  4530 ;; Defined at:
  4531 ;;		line 43 in file "C:\Program Files\Microchip\xc8\v2.35\pic\sources\c90\common\fltol.c"
  4532 ;; Parameters:    Size  Location     Type
  4533 ;;  f1              4   13[BANK1 ] short 
  4534 ;; Auto vars:     Size  Location     Type
  4535 ;;  exp1            1   78[BANK0 ] unsigned char 
  4536 ;;  sign1           1   77[BANK0 ] unsigned char 
  4537 ;; Return value:  Size  Location     Type
  4538 ;;                  4   13[BANK1 ] long 
  4539 ;; Registers used:
  4540 ;;		wreg, status,2, status,0
  4541 ;; Tracked objects:
  4542 ;;		On entry : 0/0
  4543 ;;		On exit  : 0/0
  4544 ;;		Unchanged: 0/0
  4545 ;; Data sizes:     COMMON   BANK0   BANK1   BANK3   BANK2
  4546 ;;      Params:         0       0       4       0       0
  4547 ;;      Locals:         0       2       0       0       0
  4548 ;;      Temps:          0       0       5       0       0
  4549 ;;      Totals:         0       2       9       0       0
  4550 ;;Total ram usage:       11 bytes
  4551 ;; Hardware stack levels used: 1
  4552 ;; This function calls:
  4553 ;;		Nothing
  4554 ;; This function is called by:
  4555 ;;		_slave
  4556 ;;		_map
  4557 ;; This function uses a non-reentrant model
  4558 ;;
  4559                           
  4560  16D0                     i1___fltol:	
  4561                           ;psect for function i1___fltol
  4562                           
  4563  16D0                     i1l2874:	
  4564                           ;incstack = 0
  4565                           ; Regs used in i1___fltol: [wreg+status,2+status,0]
  4566                           
  4567  16D0  1003               	clrc
  4568  16D1  1683               	bsf	3,5	;RP0=1, select bank1
  4569  16D2  1303               	bcf	3,6	;RP1=0, select bank1
  4570  16D3  0D2F               	rlf	(i1___fltol@f1+2)^(0+128),w
  4571  16D4  0D30               	rlf	(i1___fltol@f1+3)^(0+128),w
  4572  16D5  00B1               	movwf	??i1___fltol^(0+128)
  4573  16D6  0831               	movf	??i1___fltol^(0+128),w
  4574  16D7  1283               	bcf	3,5	;RP0=0, select bank0
  4575  16D8  1303               	bcf	3,6	;RP1=0, select bank0
  4576  16D9  00EE               	movwf	i1___fltol@exp1
  4577  16DA  086E               	movf	i1___fltol@exp1,w
  4578  16DB  1D03               	btfss	3,2
  4579  16DC  2EDE               	goto	u361_21
  4580  16DD  2EDF               	goto	u361_20
  4581  16DE                     u361_21:
  4582  16DE  2EEA               	goto	i1l2880
  4583  16DF                     u361_20:
  4584  16DF                     i1l2876:
  4585  16DF  3000               	movlw	0
  4586  16E0  1683               	bsf	3,5	;RP0=1, select bank1
  4587  16E1  1303               	bcf	3,6	;RP1=0, select bank1
  4588  16E2  00B0               	movwf	(?i1___fltol+3)^(0+128)
  4589  16E3  3000               	movlw	0
  4590  16E4  00AF               	movwf	(?i1___fltol+2)^(0+128)
  4591  16E5  3000               	movlw	0
  4592  16E6  00AE               	movwf	(?i1___fltol+1)^(0+128)
  4593  16E7  3000               	movlw	0
  4594  16E8  00AD               	movwf	?i1___fltol^(0+128)
  4595  16E9  2F61               	goto	i1l514
  4596  16EA                     i1l2880:
  4597  16EA  1683               	bsf	3,5	;RP0=1, select bank1
  4598  16EB  1303               	bcf	3,6	;RP1=0, select bank1
  4599  16EC  082D               	movf	i1___fltol@f1^(0+128),w
  4600  16ED  00B1               	movwf	??i1___fltol^(0+128)
  4601  16EE  082E               	movf	(i1___fltol@f1+1)^(0+128),w
  4602  16EF  00B2               	movwf	(??i1___fltol^(0+128)+1)
  4603  16F0  082F               	movf	(i1___fltol@f1+2)^(0+128),w
  4604  16F1  00B3               	movwf	(??i1___fltol^(0+128)+2)
  4605  16F2  0830               	movf	(i1___fltol@f1+3)^(0+128),w
  4606  16F3  00B4               	movwf	(??i1___fltol^(0+128)+3)
  4607  16F4  301F               	movlw	31
  4608  16F5                     u362_25:
  4609  16F5  1003               	clrc
  4610  16F6  0CB4               	rrf	(??i1___fltol^(0+128)+3),f
  4611  16F7  0CB3               	rrf	(??i1___fltol^(0+128)+2),f
  4612  16F8  0CB2               	rrf	(??i1___fltol^(0+128)+1),f
  4613  16F9  0CB1               	rrf	??i1___fltol^(0+128),f
  4614  16FA                     u362_20:
  4615  16FA  3EFF               	addlw	-1
  4616  16FB  1D03               	skipz
  4617  16FC  2EF5               	goto	u362_25
  4618  16FD  0831               	movf	??i1___fltol^(0+128),w
  4619  16FE  00B5               	movwf	(??i1___fltol+4)^(0+128)
  4620  16FF  0835               	movf	(??i1___fltol+4)^(0+128),w
  4621  1700  1283               	bcf	3,5	;RP0=0, select bank0
  4622  1701  1303               	bcf	3,6	;RP1=0, select bank0
  4623  1702  00ED               	movwf	i1___fltol@sign1
  4624  1703                     i1l2882:
  4625  1703  1683               	bsf	3,5	;RP0=1, select bank1
  4626  1704  1303               	bcf	3,6	;RP1=0, select bank1
  4627  1705  17AF               	bsf	(i1___fltol@f1^(0+128)+2),7
  4628  1706                     i1l2884:
  4629  1706  30FF               	movlw	255
  4630  1707  05AD               	andwf	i1___fltol@f1^(0+128),f
  4631  1708  30FF               	movlw	255
  4632  1709  05AE               	andwf	(i1___fltol@f1+1)^(0+128),f
  4633  170A  30FF               	movlw	255
  4634  170B  05AF               	andwf	(i1___fltol@f1+2)^(0+128),f
  4635  170C  3000               	movlw	0
  4636  170D  05B0               	andwf	(i1___fltol@f1+3)^(0+128),f
  4637  170E                     i1l2886:
  4638  170E  3096               	movlw	150
  4639  170F  1283               	bcf	3,5	;RP0=0, select bank0
  4640  1710  1303               	bcf	3,6	;RP1=0, select bank0
  4641  1711  02EE               	subwf	i1___fltol@exp1,f
  4642  1712                     i1l2888:
  4643  1712  1FEE               	btfss	i1___fltol@exp1,7
  4644  1713  2F15               	goto	u363_21
  4645  1714  2F16               	goto	u363_20
  4646  1715                     u363_21:
  4647  1715  2F34               	goto	i1l2898
  4648  1716                     u363_20:
  4649  1716                     i1l2890:
  4650  1716  086E               	movf	i1___fltol@exp1,w
  4651  1717  3A80               	xorlw	128
  4652  1718  3E97               	addlw	151
  4653  1719  1803               	skipnc
  4654  171A  2F1C               	goto	u364_21
  4655  171B  2F1D               	goto	u364_20
  4656  171C                     u364_21:
  4657  171C  2F1E               	goto	i1l2896
  4658  171D                     u364_20:
  4659  171D  2EDF               	goto	i1l2876
  4660  171E                     i1l2896:
  4661  171E  3001               	movlw	1
  4662  171F                     u365_25:
  4663  171F  1003               	clrc
  4664  1720  1683               	bsf	3,5	;RP0=1, select bank1
  4665  1721  1303               	bcf	3,6	;RP1=0, select bank1
  4666  1722  0CB0               	rrf	(i1___fltol@f1+3)^(0+128),f
  4667  1723  0CAF               	rrf	(i1___fltol@f1+2)^(0+128),f
  4668  1724  0CAE               	rrf	(i1___fltol@f1+1)^(0+128),f
  4669  1725  0CAD               	rrf	i1___fltol@f1^(0+128),f
  4670  1726  3EFF               	addlw	-1
  4671  1727  1D03               	skipz
  4672  1728  2F1F               	goto	u365_25
  4673  1729  3001               	movlw	1
  4674  172A  00B1               	movwf	??i1___fltol^(0+128)
  4675  172B  0831               	movf	??i1___fltol^(0+128),w
  4676  172C  1283               	bcf	3,5	;RP0=0, select bank0
  4677  172D  1303               	bcf	3,6	;RP1=0, select bank0
  4678  172E  07EE               	addwf	i1___fltol@exp1,f
  4679  172F  1D03               	btfss	3,2
  4680  1730  2F32               	goto	u366_21
  4681  1731  2F33               	goto	u366_20
  4682  1732                     u366_21:
  4683  1732  2F1E               	goto	i1l2896
  4684  1733                     u366_20:
  4685  1733  2F4F               	goto	i1l2906
  4686  1734                     i1l2898:
  4687  1734  3020               	movlw	32
  4688  1735  026E               	subwf	i1___fltol@exp1,w
  4689  1736  1C03               	skipc
  4690  1737  2F39               	goto	u367_21
  4691  1738  2F3A               	goto	u367_20
  4692  1739                     u367_21:
  4693  1739  2F4A               	goto	i1l521
  4694  173A                     u367_20:
  4695  173A  2EDF               	goto	i1l2876
  4696  173B                     i1l2904:
  4697  173B  3001               	movlw	1
  4698  173C  1683               	bsf	3,5	;RP0=1, select bank1
  4699  173D  1303               	bcf	3,6	;RP1=0, select bank1
  4700  173E  00B1               	movwf	??i1___fltol^(0+128)
  4701  173F                     u368_25:
  4702  173F  1003               	clrc
  4703  1740  0DAD               	rlf	i1___fltol@f1^(0+128),f
  4704  1741  0DAE               	rlf	(i1___fltol@f1+1)^(0+128),f
  4705  1742  0DAF               	rlf	(i1___fltol@f1+2)^(0+128),f
  4706  1743  0DB0               	rlf	(i1___fltol@f1+3)^(0+128),f
  4707  1744  0BB1               	decfsz	??i1___fltol^(0+128),f
  4708  1745  2F3F               	goto	u368_25
  4709  1746  3001               	movlw	1
  4710  1747  1283               	bcf	3,5	;RP0=0, select bank0
  4711  1748  1303               	bcf	3,6	;RP1=0, select bank0
  4712  1749  02EE               	subwf	i1___fltol@exp1,f
  4713  174A                     i1l521:
  4714  174A  086E               	movf	i1___fltol@exp1,w
  4715  174B  1D03               	btfss	3,2
  4716  174C  2F4E               	goto	u369_21
  4717  174D  2F4F               	goto	u369_20
  4718  174E                     u369_21:
  4719  174E  2F3B               	goto	i1l2904
  4720  174F                     u369_20:
  4721  174F                     i1l2906:
  4722  174F  086D               	movf	i1___fltol@sign1,w
  4723  1750  1903               	btfsc	3,2
  4724  1751  2F53               	goto	u370_21
  4725  1752  2F54               	goto	u370_20
  4726  1753                     u370_21:
  4727  1753  2F61               	goto	i1l524
  4728  1754                     u370_20:
  4729  1754                     i1l2908:
  4730  1754  1683               	bsf	3,5	;RP0=1, select bank1
  4731  1755  1303               	bcf	3,6	;RP1=0, select bank1
  4732  1756  09AD               	comf	i1___fltol@f1^(0+128),f
  4733  1757  09AE               	comf	(i1___fltol@f1+1)^(0+128),f
  4734  1758  09AF               	comf	(i1___fltol@f1+2)^(0+128),f
  4735  1759  09B0               	comf	(i1___fltol@f1+3)^(0+128),f
  4736  175A  0AAD               	incf	i1___fltol@f1^(0+128),f
  4737  175B  1903               	skipnz
  4738  175C  0AAE               	incf	(i1___fltol@f1+1)^(0+128),f
  4739  175D  1903               	skipnz
  4740  175E  0AAF               	incf	(i1___fltol@f1+2)^(0+128),f
  4741  175F  1903               	skipnz
  4742  1760  0AB0               	incf	(i1___fltol@f1+3)^(0+128),f
  4743  1761                     i1l524:
  4744  1761                     i1l514:
  4745  1761  0008               	return
  4746  1762                     __end_ofi1___fltol:
  4747                           
  4748                           	psect	text16
  4749  0D60                     __ptext16:	
  4750 ;; *************** function ___fldiv *****************
  4751 ;; Defined at:
  4752 ;;		line 8 in file "C:\Program Files\Microchip\xc8\v2.35\pic\sources\c90\common\sprcdiv.c"
  4753 ;; Parameters:    Size  Location     Type
  4754 ;;  a               4   56[BANK0 ] long 
  4755 ;;  b               4   60[BANK0 ] long 
  4756 ;; Auto vars:     Size  Location     Type
  4757 ;;  grs             4    7[BANK1 ] unsigned long 
  4758 ;;  rem             4    0[BANK1 ] unsigned long 
  4759 ;;  new_exp         2    5[BANK1 ] int 
  4760 ;;  aexp            1   12[BANK1 ] unsigned char 
  4761 ;;  bexp            1   11[BANK1 ] unsigned char 
  4762 ;;  sign            1    4[BANK1 ] unsigned char 
  4763 ;; Return value:  Size  Location     Type
  4764 ;;                  4   56[BANK0 ] unsigned char 
  4765 ;; Registers used:
  4766 ;;		wreg, status,2, status,0, btemp+1
  4767 ;; Tracked objects:
  4768 ;;		On entry : 0/0
  4769 ;;		On exit  : 0/0
  4770 ;;		Unchanged: 0/0
  4771 ;; Data sizes:     COMMON   BANK0   BANK1   BANK3   BANK2
  4772 ;;      Params:         0       8       0       0       0
  4773 ;;      Locals:         0       0      13       0       0
  4774 ;;      Temps:          0       5       0       0       0
  4775 ;;      Totals:         0      13      13       0       0
  4776 ;;Total ram usage:       26 bytes
  4777 ;; Hardware stack levels used: 1
  4778 ;; This function calls:
  4779 ;;		Nothing
  4780 ;; This function is called by:
  4781 ;;		_slave
  4782 ;;		_map
  4783 ;; This function uses a non-reentrant model
  4784 ;;
  4785                           
  4786  0D60                     ___fldiv:	
  4787                           ;psect for function ___fldiv
  4788                           
  4789  0D60                     i1l2658:	
  4790                           ;incstack = 0
  4791                           ; Regs used in ___fldiv: [wreg+status,2+status,0+btemp+1]
  4792                           
  4793  0D60  1283               	bcf	3,5	;RP0=0, select bank0
  4794  0D61  1303               	bcf	3,6	;RP1=0, select bank0
  4795  0D62  085F               	movf	___fldiv@b+3,w
  4796  0D63  3980               	andlw	128
  4797  0D64  00E0               	movwf	??___fldiv
  4798  0D65  0860               	movf	??___fldiv,w
  4799  0D66  1683               	bsf	3,5	;RP0=1, select bank1
  4800  0D67  1303               	bcf	3,6	;RP1=0, select bank1
  4801  0D68  00A4               	movwf	___fldiv@sign^(0+128)
  4802  0D69                     i1l2660:
  4803  0D69  1283               	bcf	3,5	;RP0=0, select bank0
  4804  0D6A  1303               	bcf	3,6	;RP1=0, select bank0
  4805  0D6B  085F               	movf	___fldiv@b+3,w
  4806  0D6C  00E0               	movwf	??___fldiv
  4807  0D6D  0760               	addwf	??___fldiv,w
  4808  0D6E  00E1               	movwf	??___fldiv+1
  4809  0D6F  0861               	movf	??___fldiv+1,w
  4810  0D70  1683               	bsf	3,5	;RP0=1, select bank1
  4811  0D71  1303               	bcf	3,6	;RP1=0, select bank1
  4812  0D72  00AB               	movwf	___fldiv@bexp^(0+128)
  4813  0D73                     i1l2662:
  4814  0D73  1283               	bcf	3,5	;RP0=0, select bank0
  4815  0D74  1303               	bcf	3,6	;RP1=0, select bank0
  4816  0D75  1FDE               	btfss	___fldiv@b+2,7
  4817  0D76  2D78               	goto	u313_21
  4818  0D77  2D79               	goto	u313_20
  4819  0D78                     u313_21:
  4820  0D78  2D7C               	goto	i1l2666
  4821  0D79                     u313_20:
  4822  0D79                     i1l2664:
  4823  0D79  1683               	bsf	3,5	;RP0=1, select bank1
  4824  0D7A  1303               	bcf	3,6	;RP1=0, select bank1
  4825  0D7B  142B               	bsf	___fldiv@bexp^(0+128),0
  4826  0D7C                     i1l2666:
  4827  0D7C  1683               	bsf	3,5	;RP0=1, select bank1
  4828  0D7D  1303               	bcf	3,6	;RP1=0, select bank1
  4829  0D7E  082B               	movf	___fldiv@bexp^(0+128),w
  4830  0D7F  1903               	btfsc	3,2
  4831  0D80  2D82               	goto	u314_21
  4832  0D81  2D83               	goto	u314_20
  4833  0D82                     u314_21:
  4834  0D82  2D96               	goto	i1l2676
  4835  0D83                     u314_20:
  4836  0D83                     i1l2668:
  4837  0D83  0A2B               	incf	___fldiv@bexp^(0+128),w
  4838  0D84  1D03               	btfss	3,2
  4839  0D85  2D87               	goto	u315_21
  4840  0D86  2D88               	goto	u315_20
  4841  0D87                     u315_21:
  4842  0D87  2D92               	goto	i1l2672
  4843  0D88                     u315_20:
  4844  0D88                     i1l2670:
  4845  0D88  3000               	movlw	0
  4846  0D89  1283               	bcf	3,5	;RP0=0, select bank0
  4847  0D8A  1303               	bcf	3,6	;RP1=0, select bank0
  4848  0D8B  00DF               	movwf	___fldiv@b+3
  4849  0D8C  3000               	movlw	0
  4850  0D8D  00DE               	movwf	___fldiv@b+2
  4851  0D8E  3000               	movlw	0
  4852  0D8F  00DD               	movwf	___fldiv@b+1
  4853  0D90  3000               	movlw	0
  4854  0D91  00DC               	movwf	___fldiv@b
  4855  0D92                     i1l2672:
  4856  0D92  1283               	bcf	3,5	;RP0=0, select bank0
  4857  0D93  17DE               	bsf	___fldiv@b+2,7
  4858  0D94                     i1l2674:
  4859  0D94  01DF               	clrf	___fldiv@b+3
  4860  0D95  2DA0               	goto	i1l2678
  4861  0D96                     i1l2676:
  4862  0D96  3000               	movlw	0
  4863  0D97  1283               	bcf	3,5	;RP0=0, select bank0
  4864  0D98  1303               	bcf	3,6	;RP1=0, select bank0
  4865  0D99  00DF               	movwf	___fldiv@b+3
  4866  0D9A  3000               	movlw	0
  4867  0D9B  00DE               	movwf	___fldiv@b+2
  4868  0D9C  3000               	movlw	0
  4869  0D9D  00DD               	movwf	___fldiv@b+1
  4870  0D9E  3000               	movlw	0
  4871  0D9F  00DC               	movwf	___fldiv@b
  4872  0DA0                     i1l2678:
  4873  0DA0  085B               	movf	___fldiv@a+3,w
  4874  0DA1  3980               	andlw	128
  4875  0DA2  00E0               	movwf	??___fldiv
  4876  0DA3  0860               	movf	??___fldiv,w
  4877  0DA4  1683               	bsf	3,5	;RP0=1, select bank1
  4878  0DA5  1303               	bcf	3,6	;RP1=0, select bank1
  4879  0DA6  06A4               	xorwf	___fldiv@sign^(0+128),f
  4880  0DA7                     i1l2680:
  4881  0DA7  1283               	bcf	3,5	;RP0=0, select bank0
  4882  0DA8  1303               	bcf	3,6	;RP1=0, select bank0
  4883  0DA9  085B               	movf	___fldiv@a+3,w
  4884  0DAA  00E0               	movwf	??___fldiv
  4885  0DAB  0760               	addwf	??___fldiv,w
  4886  0DAC  00E1               	movwf	??___fldiv+1
  4887  0DAD  0861               	movf	??___fldiv+1,w
  4888  0DAE  1683               	bsf	3,5	;RP0=1, select bank1
  4889  0DAF  1303               	bcf	3,6	;RP1=0, select bank1
  4890  0DB0  00AC               	movwf	___fldiv@aexp^(0+128)
  4891  0DB1                     i1l2682:
  4892  0DB1  1283               	bcf	3,5	;RP0=0, select bank0
  4893  0DB2  1303               	bcf	3,6	;RP1=0, select bank0
  4894  0DB3  1FDA               	btfss	___fldiv@a+2,7
  4895  0DB4  2DB6               	goto	u316_21
  4896  0DB5  2DB7               	goto	u316_20
  4897  0DB6                     u316_21:
  4898  0DB6  2DBA               	goto	i1l2686
  4899  0DB7                     u316_20:
  4900  0DB7                     i1l2684:
  4901  0DB7  1683               	bsf	3,5	;RP0=1, select bank1
  4902  0DB8  1303               	bcf	3,6	;RP1=0, select bank1
  4903  0DB9  142C               	bsf	___fldiv@aexp^(0+128),0
  4904  0DBA                     i1l2686:
  4905  0DBA  1683               	bsf	3,5	;RP0=1, select bank1
  4906  0DBB  1303               	bcf	3,6	;RP1=0, select bank1
  4907  0DBC  082C               	movf	___fldiv@aexp^(0+128),w
  4908  0DBD  1903               	btfsc	3,2
  4909  0DBE  2DC0               	goto	u317_21
  4910  0DBF  2DC1               	goto	u317_20
  4911  0DC0                     u317_21:
  4912  0DC0  2DD4               	goto	i1l2696
  4913  0DC1                     u317_20:
  4914  0DC1                     i1l2688:
  4915  0DC1  0A2C               	incf	___fldiv@aexp^(0+128),w
  4916  0DC2  1D03               	btfss	3,2
  4917  0DC3  2DC5               	goto	u318_21
  4918  0DC4  2DC6               	goto	u318_20
  4919  0DC5                     u318_21:
  4920  0DC5  2DD0               	goto	i1l2692
  4921  0DC6                     u318_20:
  4922  0DC6                     i1l2690:
  4923  0DC6  3000               	movlw	0
  4924  0DC7  1283               	bcf	3,5	;RP0=0, select bank0
  4925  0DC8  1303               	bcf	3,6	;RP1=0, select bank0
  4926  0DC9  00DB               	movwf	___fldiv@a+3
  4927  0DCA  3000               	movlw	0
  4928  0DCB  00DA               	movwf	___fldiv@a+2
  4929  0DCC  3000               	movlw	0
  4930  0DCD  00D9               	movwf	___fldiv@a+1
  4931  0DCE  3000               	movlw	0
  4932  0DCF  00D8               	movwf	___fldiv@a
  4933  0DD0                     i1l2692:
  4934  0DD0  1283               	bcf	3,5	;RP0=0, select bank0
  4935  0DD1  17DA               	bsf	___fldiv@a+2,7
  4936  0DD2                     i1l2694:
  4937  0DD2  01DB               	clrf	___fldiv@a+3
  4938  0DD3  2DDE               	goto	i1l677
  4939  0DD4                     i1l2696:
  4940  0DD4  3000               	movlw	0
  4941  0DD5  1283               	bcf	3,5	;RP0=0, select bank0
  4942  0DD6  1303               	bcf	3,6	;RP1=0, select bank0
  4943  0DD7  00DB               	movwf	___fldiv@a+3
  4944  0DD8  3000               	movlw	0
  4945  0DD9  00DA               	movwf	___fldiv@a+2
  4946  0DDA  3000               	movlw	0
  4947  0DDB  00D9               	movwf	___fldiv@a+1
  4948  0DDC  3000               	movlw	0
  4949  0DDD  00D8               	movwf	___fldiv@a
  4950  0DDE                     i1l677:
  4951  0DDE  085B               	movf	___fldiv@a+3,w
  4952  0DDF  045A               	iorwf	___fldiv@a+2,w
  4953  0DE0  0459               	iorwf	___fldiv@a+1,w
  4954  0DE1  0458               	iorwf	___fldiv@a,w
  4955  0DE2  1D03               	skipz
  4956  0DE3  2DE5               	goto	u319_21
  4957  0DE4  2DE6               	goto	u319_20
  4958  0DE5                     u319_21:
  4959  0DE5  2E03               	goto	i1l2706
  4960  0DE6                     u319_20:
  4961  0DE6                     i1l2698:
  4962  0DE6  3000               	movlw	0
  4963  0DE7  00DF               	movwf	___fldiv@b+3
  4964  0DE8  3000               	movlw	0
  4965  0DE9  00DE               	movwf	___fldiv@b+2
  4966  0DEA  3000               	movlw	0
  4967  0DEB  00DD               	movwf	___fldiv@b+1
  4968  0DEC  3000               	movlw	0
  4969  0DED  00DC               	movwf	___fldiv@b
  4970  0DEE  3080               	movlw	128
  4971  0DEF  04DE               	iorwf	___fldiv@b+2,f
  4972  0DF0  307F               	movlw	127
  4973  0DF1  04DF               	iorwf	___fldiv@b+3,f
  4974  0DF2                     i1l2700:
  4975  0DF2  1683               	bsf	3,5	;RP0=1, select bank1
  4976  0DF3  1303               	bcf	3,6	;RP1=0, select bank1
  4977  0DF4  0824               	movf	___fldiv@sign^(0+128),w
  4978  0DF5  1283               	bcf	3,5	;RP0=0, select bank0
  4979  0DF6  1303               	bcf	3,6	;RP1=0, select bank0
  4980  0DF7  00E0               	movwf	??___fldiv
  4981  0DF8  0860               	movf	??___fldiv,w
  4982  0DF9  04DF               	iorwf	___fldiv@b+3,f
  4983  0DFA                     i1l2702:
  4984  0DFA  085F               	movf	___fldiv@b+3,w
  4985  0DFB  00DB               	movwf	?___fldiv+3
  4986  0DFC  085E               	movf	___fldiv@b+2,w
  4987  0DFD  00DA               	movwf	?___fldiv+2
  4988  0DFE  085D               	movf	___fldiv@b+1,w
  4989  0DFF  00D9               	movwf	?___fldiv+1
  4990  0E00  085C               	movf	___fldiv@b,w
  4991  0E01  00D8               	movwf	?___fldiv
  4992  0E02  2FFF               	goto	i1l679
  4993  0E03                     i1l2706:
  4994  0E03  1683               	bsf	3,5	;RP0=1, select bank1
  4995  0E04  1303               	bcf	3,6	;RP1=0, select bank1
  4996  0E05  082B               	movf	___fldiv@bexp^(0+128),w
  4997  0E06  1D03               	btfss	3,2
  4998  0E07  2E09               	goto	u320_21
  4999  0E08  2E0A               	goto	u320_20
  5000  0E09                     u320_21:
  5001  0E09  2E15               	goto	i1l2712
  5002  0E0A                     u320_20:
  5003  0E0A                     i1l2708:
  5004  0E0A  3000               	movlw	0
  5005  0E0B  1283               	bcf	3,5	;RP0=0, select bank0
  5006  0E0C  1303               	bcf	3,6	;RP1=0, select bank0
  5007  0E0D  00DB               	movwf	?___fldiv+3
  5008  0E0E  3000               	movlw	0
  5009  0E0F  00DA               	movwf	?___fldiv+2
  5010  0E10  3000               	movlw	0
  5011  0E11  00D9               	movwf	?___fldiv+1
  5012  0E12  3000               	movlw	0
  5013  0E13  00D8               	movwf	?___fldiv
  5014  0E14  2FFF               	goto	i1l679
  5015  0E15                     i1l2712:
  5016  0E15  082B               	movf	___fldiv@bexp^(0+128),w
  5017  0E16  1283               	bcf	3,5	;RP0=0, select bank0
  5018  0E17  1303               	bcf	3,6	;RP1=0, select bank0
  5019  0E18  00E0               	movwf	??___fldiv
  5020  0E19  01E1               	clrf	??___fldiv+1
  5021  0E1A  0861               	movf	??___fldiv+1,w
  5022  0E1B  00E3               	movwf	??___fldiv+3
  5023  0E1C  1683               	bsf	3,5	;RP0=1, select bank1
  5024  0E1D  1303               	bcf	3,6	;RP1=0, select bank1
  5025  0E1E  082C               	movf	___fldiv@aexp^(0+128),w
  5026  0E1F  1283               	bcf	3,5	;RP0=0, select bank0
  5027  0E20  1303               	bcf	3,6	;RP1=0, select bank0
  5028  0E21  0260               	subwf	??___fldiv,w
  5029  0E22  00E2               	movwf	??___fldiv+2
  5030  0E23  1C03               	skipc
  5031  0E24  03E3               	decf	??___fldiv+3,f
  5032  0E25  0862               	movf	??___fldiv+2,w
  5033  0E26  3E7F               	addlw	127
  5034  0E27  1683               	bsf	3,5	;RP0=1, select bank1
  5035  0E28  1303               	bcf	3,6	;RP1=0, select bank1
  5036  0E29  00A5               	movwf	___fldiv@new_exp^(0+128)
  5037  0E2A  1283               	bcf	3,5	;RP0=0, select bank0
  5038  0E2B  1303               	bcf	3,6	;RP1=0, select bank0
  5039  0E2C  0863               	movf	??___fldiv+3,w
  5040  0E2D  1803               	skipnc
  5041  0E2E  3E01               	addlw	1
  5042  0E2F  3E00               	addlw	0
  5043  0E30  1683               	bsf	3,5	;RP0=1, select bank1
  5044  0E31  1303               	bcf	3,6	;RP1=0, select bank1
  5045  0E32  00A6               	movwf	(___fldiv@new_exp+1)^(0+128)
  5046  0E33                     i1l2714:
  5047  0E33  1283               	bcf	3,5	;RP0=0, select bank0
  5048  0E34  1303               	bcf	3,6	;RP1=0, select bank0
  5049  0E35  085F               	movf	___fldiv@b+3,w
  5050  0E36  1683               	bsf	3,5	;RP0=1, select bank1
  5051  0E37  1303               	bcf	3,6	;RP1=0, select bank1
  5052  0E38  00A3               	movwf	(___fldiv@rem+3)^(0+128)
  5053  0E39  1283               	bcf	3,5	;RP0=0, select bank0
  5054  0E3A  1303               	bcf	3,6	;RP1=0, select bank0
  5055  0E3B  085E               	movf	___fldiv@b+2,w
  5056  0E3C  1683               	bsf	3,5	;RP0=1, select bank1
  5057  0E3D  1303               	bcf	3,6	;RP1=0, select bank1
  5058  0E3E  00A2               	movwf	(___fldiv@rem+2)^(0+128)
  5059  0E3F  1283               	bcf	3,5	;RP0=0, select bank0
  5060  0E40  1303               	bcf	3,6	;RP1=0, select bank0
  5061  0E41  085D               	movf	___fldiv@b+1,w
  5062  0E42  1683               	bsf	3,5	;RP0=1, select bank1
  5063  0E43  1303               	bcf	3,6	;RP1=0, select bank1
  5064  0E44  00A1               	movwf	(___fldiv@rem+1)^(0+128)
  5065  0E45  1283               	bcf	3,5	;RP0=0, select bank0
  5066  0E46  1303               	bcf	3,6	;RP1=0, select bank0
  5067  0E47  085C               	movf	___fldiv@b,w
  5068  0E48  1683               	bsf	3,5	;RP0=1, select bank1
  5069  0E49  1303               	bcf	3,6	;RP1=0, select bank1
  5070  0E4A  00A0               	movwf	___fldiv@rem^(0+128)
  5071  0E4B                     i1l2716:
  5072  0E4B  3000               	movlw	0
  5073  0E4C  1283               	bcf	3,5	;RP0=0, select bank0
  5074  0E4D  1303               	bcf	3,6	;RP1=0, select bank0
  5075  0E4E  00DF               	movwf	___fldiv@b+3
  5076  0E4F  3000               	movlw	0
  5077  0E50  00DE               	movwf	___fldiv@b+2
  5078  0E51  3000               	movlw	0
  5079  0E52  00DD               	movwf	___fldiv@b+1
  5080  0E53  3000               	movlw	0
  5081  0E54  00DC               	movwf	___fldiv@b
  5082  0E55                     i1l2718:
  5083  0E55  3000               	movlw	0
  5084  0E56  1683               	bsf	3,5	;RP0=1, select bank1
  5085  0E57  1303               	bcf	3,6	;RP1=0, select bank1
  5086  0E58  00AA               	movwf	(___fldiv@grs+3)^(0+128)
  5087  0E59  3000               	movlw	0
  5088  0E5A  00A9               	movwf	(___fldiv@grs+2)^(0+128)
  5089  0E5B  3000               	movlw	0
  5090  0E5C  00A8               	movwf	(___fldiv@grs+1)^(0+128)
  5091  0E5D  3000               	movlw	0
  5092  0E5E  00A7               	movwf	___fldiv@grs^(0+128)
  5093  0E5F                     i1l2720:
  5094  0E5F  01AC               	clrf	___fldiv@aexp^(0+128)
  5095  0E60  2EE7               	goto	i1l2740
  5096  0E61                     i1l2722:
  5097  0E61  082C               	movf	___fldiv@aexp^(0+128),w
  5098  0E62  1903               	btfsc	3,2
  5099  0E63  2E65               	goto	u321_21
  5100  0E64  2E66               	goto	u321_20
  5101  0E65                     u321_21:
  5102  0E65  2E95               	goto	i1l2732
  5103  0E66                     u321_20:
  5104  0E66                     i1l2724:
  5105  0E66  3001               	movlw	1
  5106  0E67  1283               	bcf	3,5	;RP0=0, select bank0
  5107  0E68  1303               	bcf	3,6	;RP1=0, select bank0
  5108  0E69  00E0               	movwf	??___fldiv
  5109  0E6A                     u322_25:
  5110  0E6A  1003               	clrc
  5111  0E6B  1683               	bsf	3,5	;RP0=1, select bank1
  5112  0E6C  1303               	bcf	3,6	;RP1=0, select bank1
  5113  0E6D  0DA0               	rlf	___fldiv@rem^(0+128),f
  5114  0E6E  0DA1               	rlf	(___fldiv@rem+1)^(0+128),f
  5115  0E6F  0DA2               	rlf	(___fldiv@rem+2)^(0+128),f
  5116  0E70  0DA3               	rlf	(___fldiv@rem+3)^(0+128),f
  5117  0E71  1283               	bcf	3,5	;RP0=0, select bank0
  5118  0E72  1303               	bcf	3,6	;RP1=0, select bank0
  5119  0E73  0BE0               	decfsz	??___fldiv,f
  5120  0E74  2E6A               	goto	u322_25
  5121  0E75  3001               	movlw	1
  5122  0E76  00E0               	movwf	??___fldiv
  5123  0E77                     u323_25:
  5124  0E77  1003               	clrc
  5125  0E78  0DDC               	rlf	___fldiv@b,f
  5126  0E79  0DDD               	rlf	___fldiv@b+1,f
  5127  0E7A  0DDE               	rlf	___fldiv@b+2,f
  5128  0E7B  0DDF               	rlf	___fldiv@b+3,f
  5129  0E7C  0BE0               	decfsz	??___fldiv,f
  5130  0E7D  2E77               	goto	u323_25
  5131  0E7E                     i1l2726:
  5132  0E7E  1683               	bsf	3,5	;RP0=1, select bank1
  5133  0E7F  1303               	bcf	3,6	;RP1=0, select bank1
  5134  0E80  1FAA               	btfss	(___fldiv@grs+3)^(0+128),7
  5135  0E81  2E83               	goto	u324_21
  5136  0E82  2E84               	goto	u324_20
  5137  0E83                     u324_21:
  5138  0E83  2E87               	goto	i1l2730
  5139  0E84                     u324_20:
  5140  0E84                     i1l2728:
  5141  0E84  1283               	bcf	3,5	;RP0=0, select bank0
  5142  0E85  1303               	bcf	3,6	;RP1=0, select bank0
  5143  0E86  145C               	bsf	___fldiv@b,0
  5144  0E87                     i1l2730:
  5145  0E87  3001               	movlw	1
  5146  0E88  1283               	bcf	3,5	;RP0=0, select bank0
  5147  0E89  00E0               	movwf	??___fldiv
  5148  0E8A                     u325_25:
  5149  0E8A  1003               	clrc
  5150  0E8B  1683               	bsf	3,5	;RP0=1, select bank1
  5151  0E8C  1303               	bcf	3,6	;RP1=0, select bank1
  5152  0E8D  0DA7               	rlf	___fldiv@grs^(0+128),f
  5153  0E8E  0DA8               	rlf	(___fldiv@grs+1)^(0+128),f
  5154  0E8F  0DA9               	rlf	(___fldiv@grs+2)^(0+128),f
  5155  0E90  0DAA               	rlf	(___fldiv@grs+3)^(0+128),f
  5156  0E91  1283               	bcf	3,5	;RP0=0, select bank0
  5157  0E92  1303               	bcf	3,6	;RP1=0, select bank0
  5158  0E93  0BE0               	decfsz	??___fldiv,f
  5159  0E94  2E8A               	goto	u325_25
  5160  0E95                     i1l2732:
  5161  0E95  1283               	bcf	3,5	;RP0=0, select bank0
  5162  0E96  085B               	movf	___fldiv@a+3,w
  5163  0E97  1683               	bsf	3,5	;RP0=1, select bank1
  5164  0E98  1303               	bcf	3,6	;RP1=0, select bank1
  5165  0E99  0223               	subwf	(___fldiv@rem+3)^(0+128),w
  5166  0E9A  1D03               	skipz
  5167  0E9B  2EB2               	goto	u326_25
  5168  0E9C  1283               	bcf	3,5	;RP0=0, select bank0
  5169  0E9D  1303               	bcf	3,6	;RP1=0, select bank0
  5170  0E9E  085A               	movf	___fldiv@a+2,w
  5171  0E9F  1683               	bsf	3,5	;RP0=1, select bank1
  5172  0EA0  1303               	bcf	3,6	;RP1=0, select bank1
  5173  0EA1  0222               	subwf	(___fldiv@rem+2)^(0+128),w
  5174  0EA2  1D03               	skipz
  5175  0EA3  2EB2               	goto	u326_25
  5176  0EA4  1283               	bcf	3,5	;RP0=0, select bank0
  5177  0EA5  1303               	bcf	3,6	;RP1=0, select bank0
  5178  0EA6  0859               	movf	___fldiv@a+1,w
  5179  0EA7  1683               	bsf	3,5	;RP0=1, select bank1
  5180  0EA8  1303               	bcf	3,6	;RP1=0, select bank1
  5181  0EA9  0221               	subwf	(___fldiv@rem+1)^(0+128),w
  5182  0EAA  1D03               	skipz
  5183  0EAB  2EB2               	goto	u326_25
  5184  0EAC  1283               	bcf	3,5	;RP0=0, select bank0
  5185  0EAD  1303               	bcf	3,6	;RP1=0, select bank0
  5186  0EAE  0858               	movf	___fldiv@a,w
  5187  0EAF  1683               	bsf	3,5	;RP0=1, select bank1
  5188  0EB0  1303               	bcf	3,6	;RP1=0, select bank1
  5189  0EB1  0220               	subwf	___fldiv@rem^(0+128),w
  5190  0EB2                     u326_25:
  5191  0EB2  1C03               	skipc
  5192  0EB3  2EB5               	goto	u326_21
  5193  0EB4  2EB6               	goto	u326_20
  5194  0EB5                     u326_21:
  5195  0EB5  2EDF               	goto	i1l2738
  5196  0EB6                     u326_20:
  5197  0EB6                     i1l2734:
  5198  0EB6  172A               	bsf	(___fldiv@grs^(0+128)+3),6
  5199  0EB7                     i1l2736:
  5200  0EB7  1283               	bcf	3,5	;RP0=0, select bank0
  5201  0EB8  1303               	bcf	3,6	;RP1=0, select bank0
  5202  0EB9  0858               	movf	___fldiv@a,w
  5203  0EBA  1683               	bsf	3,5	;RP0=1, select bank1
  5204  0EBB  1303               	bcf	3,6	;RP1=0, select bank1
  5205  0EBC  02A0               	subwf	___fldiv@rem^(0+128),f
  5206  0EBD  1283               	bcf	3,5	;RP0=0, select bank0
  5207  0EBE  1303               	bcf	3,6	;RP1=0, select bank0
  5208  0EBF  0859               	movf	___fldiv@a+1,w
  5209  0EC0  1C03               	skipc
  5210  0EC1  0F59               	incfsz	___fldiv@a+1,w
  5211  0EC2  2EC4               	goto	u327_25
  5212  0EC3  2EC7               	goto	u327_26
  5213  0EC4                     u327_25:
  5214  0EC4  1683               	bsf	3,5	;RP0=1, select bank1
  5215  0EC5  1303               	bcf	3,6	;RP1=0, select bank1
  5216  0EC6  02A1               	subwf	(___fldiv@rem+1)^(0+128),f
  5217  0EC7                     u327_26:
  5218  0EC7  1283               	bcf	3,5	;RP0=0, select bank0
  5219  0EC8  1303               	bcf	3,6	;RP1=0, select bank0
  5220  0EC9  085A               	movf	___fldiv@a+2,w
  5221  0ECA  1C03               	skipc
  5222  0ECB  0F5A               	incfsz	___fldiv@a+2,w
  5223  0ECC  2ECE               	goto	u327_27
  5224  0ECD  2ED1               	goto	u327_28
  5225  0ECE                     u327_27:
  5226  0ECE  1683               	bsf	3,5	;RP0=1, select bank1
  5227  0ECF  1303               	bcf	3,6	;RP1=0, select bank1
  5228  0ED0  02A2               	subwf	(___fldiv@rem+2)^(0+128),f
  5229  0ED1                     u327_28:
  5230  0ED1  1283               	bcf	3,5	;RP0=0, select bank0
  5231  0ED2  1303               	bcf	3,6	;RP1=0, select bank0
  5232  0ED3  085B               	movf	___fldiv@a+3,w
  5233  0ED4  1C03               	skipc
  5234  0ED5  0F5B               	incfsz	___fldiv@a+3,w
  5235  0ED6  2ED8               	goto	u327_29
  5236  0ED7  2EDB               	goto	u327_20
  5237  0ED8                     u327_29:
  5238  0ED8  1683               	bsf	3,5	;RP0=1, select bank1
  5239  0ED9  1303               	bcf	3,6	;RP1=0, select bank1
  5240  0EDA  02A3               	subwf	(___fldiv@rem+3)^(0+128),f
  5241  0EDB                     u327_20:
  5242  0EDB  1283               	bcf	3,5	;RP0=0, select bank0
  5243  0EDC  1303               	bcf	3,6	;RP1=0, select bank0
  5244  0EDD  1683               	bsf	3,5	;RP0=1, select bank1
  5245  0EDE  1303               	bcf	3,6	;RP1=0, select bank1
  5246  0EDF                     i1l2738:
  5247  0EDF  3001               	movlw	1
  5248  0EE0  1283               	bcf	3,5	;RP0=0, select bank0
  5249  0EE1  1303               	bcf	3,6	;RP1=0, select bank0
  5250  0EE2  00E0               	movwf	??___fldiv
  5251  0EE3  0860               	movf	??___fldiv,w
  5252  0EE4  1683               	bsf	3,5	;RP0=1, select bank1
  5253  0EE5  1303               	bcf	3,6	;RP1=0, select bank1
  5254  0EE6  07AC               	addwf	___fldiv@aexp^(0+128),f
  5255  0EE7                     i1l2740:
  5256  0EE7  301A               	movlw	26
  5257  0EE8  022C               	subwf	___fldiv@aexp^(0+128),w
  5258  0EE9  1C03               	skipc
  5259  0EEA  2EEC               	goto	u328_21
  5260  0EEB  2EED               	goto	u328_20
  5261  0EEC                     u328_21:
  5262  0EEC  2E61               	goto	i1l2722
  5263  0EED                     u328_20:
  5264  0EED                     i1l2742:
  5265  0EED  0823               	movf	(___fldiv@rem+3)^(0+128),w
  5266  0EEE  0422               	iorwf	(___fldiv@rem+2)^(0+128),w
  5267  0EEF  0421               	iorwf	(___fldiv@rem+1)^(0+128),w
  5268  0EF0  0420               	iorwf	___fldiv@rem^(0+128),w
  5269  0EF1  1903               	skipnz
  5270  0EF2  2EF4               	goto	u329_21
  5271  0EF3  2EF5               	goto	u329_20
  5272  0EF4                     u329_21:
  5273  0EF4  2F1F               	goto	i1l2756
  5274  0EF5                     u329_20:
  5275  0EF5                     i1l2744:
  5276  0EF5  1427               	bsf	___fldiv@grs^(0+128),0
  5277  0EF6  2F1F               	goto	i1l2756
  5278  0EF7                     i1l2746:
  5279  0EF7  3001               	movlw	1
  5280  0EF8  00E0               	movwf	??___fldiv
  5281  0EF9                     u330_25:
  5282  0EF9  1003               	clrc
  5283  0EFA  0DDC               	rlf	___fldiv@b,f
  5284  0EFB  0DDD               	rlf	___fldiv@b+1,f
  5285  0EFC  0DDE               	rlf	___fldiv@b+2,f
  5286  0EFD  0DDF               	rlf	___fldiv@b+3,f
  5287  0EFE  0BE0               	decfsz	??___fldiv,f
  5288  0EFF  2EF9               	goto	u330_25
  5289  0F00                     i1l2748:
  5290  0F00  1683               	bsf	3,5	;RP0=1, select bank1
  5291  0F01  1303               	bcf	3,6	;RP1=0, select bank1
  5292  0F02  1FAA               	btfss	(___fldiv@grs+3)^(0+128),7
  5293  0F03  2F05               	goto	u331_21
  5294  0F04  2F06               	goto	u331_20
  5295  0F05                     u331_21:
  5296  0F05  2F09               	goto	i1l2752
  5297  0F06                     u331_20:
  5298  0F06                     i1l2750:
  5299  0F06  1283               	bcf	3,5	;RP0=0, select bank0
  5300  0F07  1303               	bcf	3,6	;RP1=0, select bank0
  5301  0F08  145C               	bsf	___fldiv@b,0
  5302  0F09                     i1l2752:
  5303  0F09  3001               	movlw	1
  5304  0F0A  1283               	bcf	3,5	;RP0=0, select bank0
  5305  0F0B  00E0               	movwf	??___fldiv
  5306  0F0C                     u332_25:
  5307  0F0C  1003               	clrc
  5308  0F0D  1683               	bsf	3,5	;RP0=1, select bank1
  5309  0F0E  1303               	bcf	3,6	;RP1=0, select bank1
  5310  0F0F  0DA7               	rlf	___fldiv@grs^(0+128),f
  5311  0F10  0DA8               	rlf	(___fldiv@grs+1)^(0+128),f
  5312  0F11  0DA9               	rlf	(___fldiv@grs+2)^(0+128),f
  5313  0F12  0DAA               	rlf	(___fldiv@grs+3)^(0+128),f
  5314  0F13  1283               	bcf	3,5	;RP0=0, select bank0
  5315  0F14  1303               	bcf	3,6	;RP1=0, select bank0
  5316  0F15  0BE0               	decfsz	??___fldiv,f
  5317  0F16  2F0C               	goto	u332_25
  5318  0F17                     i1l2754:
  5319  0F17  30FF               	movlw	255
  5320  0F18  1683               	bsf	3,5	;RP0=1, select bank1
  5321  0F19  1303               	bcf	3,6	;RP1=0, select bank1
  5322  0F1A  07A5               	addwf	___fldiv@new_exp^(0+128),f
  5323  0F1B  1803               	skipnc
  5324  0F1C  0AA6               	incf	(___fldiv@new_exp+1)^(0+128),f
  5325  0F1D  30FF               	movlw	255
  5326  0F1E  07A6               	addwf	(___fldiv@new_exp+1)^(0+128),f
  5327  0F1F                     i1l2756:
  5328  0F1F  1283               	bcf	3,5	;RP0=0, select bank0
  5329  0F20  1303               	bcf	3,6	;RP1=0, select bank0
  5330  0F21  1FDE               	btfss	___fldiv@b+2,7
  5331  0F22  2F24               	goto	u333_21
  5332  0F23  2F25               	goto	u333_20
  5333  0F24                     u333_21:
  5334  0F24  2EF7               	goto	i1l2746
  5335  0F25                     u333_20:
  5336  0F25                     i1l2758:
  5337  0F25  1683               	bsf	3,5	;RP0=1, select bank1
  5338  0F26  1303               	bcf	3,6	;RP1=0, select bank1
  5339  0F27  01AC               	clrf	___fldiv@aexp^(0+128)
  5340  0F28                     i1l2760:
  5341  0F28  1FAA               	btfss	(___fldiv@grs+3)^(0+128),7
  5342  0F29  2F2B               	goto	u334_21
  5343  0F2A  2F2C               	goto	u334_20
  5344  0F2B                     u334_21:
  5345  0F2B  2F58               	goto	i1l2768
  5346  0F2C                     u334_20:
  5347  0F2C                     i1l2762:
  5348  0F2C  30FF               	movlw	255
  5349  0F2D  0527               	andwf	___fldiv@grs^(0+128),w
  5350  0F2E  1283               	bcf	3,5	;RP0=0, select bank0
  5351  0F2F  1303               	bcf	3,6	;RP1=0, select bank0
  5352  0F30  00E0               	movwf	??___fldiv
  5353  0F31  30FF               	movlw	255
  5354  0F32  1683               	bsf	3,5	;RP0=1, select bank1
  5355  0F33  1303               	bcf	3,6	;RP1=0, select bank1
  5356  0F34  0528               	andwf	(___fldiv@grs+1)^(0+128),w
  5357  0F35  1283               	bcf	3,5	;RP0=0, select bank0
  5358  0F36  1303               	bcf	3,6	;RP1=0, select bank0
  5359  0F37  00E1               	movwf	??___fldiv+1
  5360  0F38  30FF               	movlw	255
  5361  0F39  1683               	bsf	3,5	;RP0=1, select bank1
  5362  0F3A  1303               	bcf	3,6	;RP1=0, select bank1
  5363  0F3B  0529               	andwf	(___fldiv@grs+2)^(0+128),w
  5364  0F3C  1283               	bcf	3,5	;RP0=0, select bank0
  5365  0F3D  1303               	bcf	3,6	;RP1=0, select bank0
  5366  0F3E  00E2               	movwf	??___fldiv+2
  5367  0F3F  307F               	movlw	127
  5368  0F40  1683               	bsf	3,5	;RP0=1, select bank1
  5369  0F41  1303               	bcf	3,6	;RP1=0, select bank1
  5370  0F42  052A               	andwf	(___fldiv@grs+3)^(0+128),w
  5371  0F43  1283               	bcf	3,5	;RP0=0, select bank0
  5372  0F44  1303               	bcf	3,6	;RP1=0, select bank0
  5373  0F45  00E3               	movwf	??___fldiv+3
  5374  0F46  0863               	movf	??___fldiv+3,w
  5375  0F47  0462               	iorwf	??___fldiv+2,w
  5376  0F48  0461               	iorwf	??___fldiv+1,w
  5377  0F49  0460               	iorwf	??___fldiv,w
  5378  0F4A  1903               	skipnz
  5379  0F4B  2F4D               	goto	u335_21
  5380  0F4C  2F4E               	goto	u335_20
  5381  0F4D                     u335_21:
  5382  0F4D  2F53               	goto	i1l693
  5383  0F4E                     u335_20:
  5384  0F4E                     i1l2764:
  5385  0F4E  1683               	bsf	3,5	;RP0=1, select bank1
  5386  0F4F  1303               	bcf	3,6	;RP1=0, select bank1
  5387  0F50  01AC               	clrf	___fldiv@aexp^(0+128)
  5388  0F51  0AAC               	incf	___fldiv@aexp^(0+128),f
  5389  0F52  2F58               	goto	i1l2768
  5390  0F53                     i1l693:
  5391  0F53  1C5C               	btfss	___fldiv@b,0
  5392  0F54  2F56               	goto	u336_21
  5393  0F55  2F57               	goto	u336_20
  5394  0F56                     u336_21:
  5395  0F56  2F58               	goto	i1l2768
  5396  0F57                     u336_20:
  5397  0F57  2F4E               	goto	i1l2764
  5398  0F58                     i1l2768:
  5399  0F58  1683               	bsf	3,5	;RP0=1, select bank1
  5400  0F59  1303               	bcf	3,6	;RP1=0, select bank1
  5401  0F5A  082C               	movf	___fldiv@aexp^(0+128),w
  5402  0F5B  1903               	btfsc	3,2
  5403  0F5C  2F5E               	goto	u337_21
  5404  0F5D  2F5F               	goto	u337_20
  5405  0F5E                     u337_21:
  5406  0F5E  2F94               	goto	i1l2778
  5407  0F5F                     u337_20:
  5408  0F5F                     i1l2770:
  5409  0F5F  3001               	movlw	1
  5410  0F60  1283               	bcf	3,5	;RP0=0, select bank0
  5411  0F61  1303               	bcf	3,6	;RP1=0, select bank0
  5412  0F62  07DC               	addwf	___fldiv@b,f
  5413  0F63  3000               	movlw	0
  5414  0F64  1803               	skipnc
  5415  0F65  3001               	movlw	1
  5416  0F66  07DD               	addwf	___fldiv@b+1,f
  5417  0F67  3000               	movlw	0
  5418  0F68  1803               	skipnc
  5419  0F69  3001               	movlw	1
  5420  0F6A  07DE               	addwf	___fldiv@b+2,f
  5421  0F6B  3000               	movlw	0
  5422  0F6C  1803               	skipnc
  5423  0F6D  3001               	movlw	1
  5424  0F6E  07DF               	addwf	___fldiv@b+3,f
  5425  0F6F                     i1l2772:
  5426  0F6F  1C5F               	btfss	___fldiv@b+3,0
  5427  0F70  2F72               	goto	u338_21
  5428  0F71  2F73               	goto	u338_20
  5429  0F72                     u338_21:
  5430  0F72  2F94               	goto	i1l2778
  5431  0F73                     u338_20:
  5432  0F73                     i1l2774:
  5433  0F73  085C               	movf	___fldiv@b,w
  5434  0F74  00E0               	movwf	??___fldiv
  5435  0F75  085D               	movf	___fldiv@b+1,w
  5436  0F76  00E1               	movwf	??___fldiv+1
  5437  0F77  085E               	movf	___fldiv@b+2,w
  5438  0F78  00E2               	movwf	??___fldiv+2
  5439  0F79  085F               	movf	___fldiv@b+3,w
  5440  0F7A  00E3               	movwf	??___fldiv+3
  5441  0F7B  3001               	movlw	1
  5442  0F7C  00E4               	movwf	??___fldiv+4
  5443  0F7D                     u339_25:
  5444  0F7D  0D63               	rlf	??___fldiv+3,w
  5445  0F7E  0CE3               	rrf	??___fldiv+3,f
  5446  0F7F  0CE2               	rrf	??___fldiv+2,f
  5447  0F80  0CE1               	rrf	??___fldiv+1,f
  5448  0F81  0CE0               	rrf	??___fldiv,f
  5449  0F82                     u339_20:
  5450  0F82  0BE4               	decfsz	??___fldiv+4,f
  5451  0F83  2F7D               	goto	u339_25
  5452  0F84  0863               	movf	??___fldiv+3,w
  5453  0F85  00DF               	movwf	___fldiv@b+3
  5454  0F86  0862               	movf	??___fldiv+2,w
  5455  0F87  00DE               	movwf	___fldiv@b+2
  5456  0F88  0861               	movf	??___fldiv+1,w
  5457  0F89  00DD               	movwf	___fldiv@b+1
  5458  0F8A  0860               	movf	??___fldiv,w
  5459  0F8B  00DC               	movwf	___fldiv@b
  5460  0F8C                     i1l2776:
  5461  0F8C  3001               	movlw	1
  5462  0F8D  1683               	bsf	3,5	;RP0=1, select bank1
  5463  0F8E  1303               	bcf	3,6	;RP1=0, select bank1
  5464  0F8F  07A5               	addwf	___fldiv@new_exp^(0+128),f
  5465  0F90  1803               	skipnc
  5466  0F91  0AA6               	incf	(___fldiv@new_exp+1)^(0+128),f
  5467  0F92  3000               	movlw	0
  5468  0F93  07A6               	addwf	(___fldiv@new_exp+1)^(0+128),f
  5469  0F94                     i1l2778:
  5470  0F94  1683               	bsf	3,5	;RP0=1, select bank1
  5471  0F95  1303               	bcf	3,6	;RP1=0, select bank1
  5472  0F96  0826               	movf	(___fldiv@new_exp+1)^(0+128),w
  5473  0F97  3A80               	xorlw	128
  5474  0F98  00FF               	movwf	btemp+1
  5475  0F99  3080               	movlw	128
  5476  0F9A  027F               	subwf	btemp+1,w
  5477  0F9B  1D03               	skipz
  5478  0F9C  2F9F               	goto	u340_25
  5479  0F9D  30FF               	movlw	255
  5480  0F9E  0225               	subwf	___fldiv@new_exp^(0+128),w
  5481  0F9F                     u340_25:
  5482  0F9F  1C03               	skipc
  5483  0FA0  2FA2               	goto	u340_21
  5484  0FA1  2FA3               	goto	u340_20
  5485  0FA2                     u340_21:
  5486  0FA2  2FB3               	goto	i1l2782
  5487  0FA3                     u340_20:
  5488  0FA3                     i1l2780:
  5489  0FA3  30FF               	movlw	255
  5490  0FA4  1683               	bsf	3,5	;RP0=1, select bank1
  5491  0FA5  1303               	bcf	3,6	;RP1=0, select bank1
  5492  0FA6  00A5               	movwf	___fldiv@new_exp^(0+128)
  5493  0FA7  3000               	movlw	0
  5494  0FA8  00A6               	movwf	(___fldiv@new_exp^(0+128)+1)
  5495  0FA9  3000               	movlw	0
  5496  0FAA  1283               	bcf	3,5	;RP0=0, select bank0
  5497  0FAB  1303               	bcf	3,6	;RP1=0, select bank0
  5498  0FAC  00DF               	movwf	___fldiv@b+3
  5499  0FAD  3000               	movlw	0
  5500  0FAE  00DE               	movwf	___fldiv@b+2
  5501  0FAF  3000               	movlw	0
  5502  0FB0  00DD               	movwf	___fldiv@b+1
  5503  0FB1  3000               	movlw	0
  5504  0FB2  00DC               	movwf	___fldiv@b
  5505  0FB3                     i1l2782:
  5506  0FB3  1683               	bsf	3,5	;RP0=1, select bank1
  5507  0FB4  1303               	bcf	3,6	;RP1=0, select bank1
  5508  0FB5  0826               	movf	(___fldiv@new_exp+1)^(0+128),w
  5509  0FB6  3A80               	xorlw	128
  5510  0FB7  00FF               	movwf	btemp+1
  5511  0FB8  3080               	movlw	128
  5512  0FB9  027F               	subwf	btemp+1,w
  5513  0FBA  1D03               	skipz
  5514  0FBB  2FBE               	goto	u341_25
  5515  0FBC  3001               	movlw	1
  5516  0FBD  0225               	subwf	___fldiv@new_exp^(0+128),w
  5517  0FBE                     u341_25:
  5518  0FBE  1803               	skipnc
  5519  0FBF  2FC1               	goto	u341_21
  5520  0FC0  2FC2               	goto	u341_20
  5521  0FC1                     u341_21:
  5522  0FC1  2FD3               	goto	i1l699
  5523  0FC2                     u341_20:
  5524  0FC2                     i1l2784:
  5525  0FC2  1683               	bsf	3,5	;RP0=1, select bank1
  5526  0FC3  1303               	bcf	3,6	;RP1=0, select bank1
  5527  0FC4  01A5               	clrf	___fldiv@new_exp^(0+128)
  5528  0FC5  01A6               	clrf	(___fldiv@new_exp+1)^(0+128)
  5529  0FC6                     i1l2786:
  5530  0FC6  3000               	movlw	0
  5531  0FC7  1283               	bcf	3,5	;RP0=0, select bank0
  5532  0FC8  1303               	bcf	3,6	;RP1=0, select bank0
  5533  0FC9  00DF               	movwf	___fldiv@b+3
  5534  0FCA  3000               	movlw	0
  5535  0FCB  00DE               	movwf	___fldiv@b+2
  5536  0FCC  3000               	movlw	0
  5537  0FCD  00DD               	movwf	___fldiv@b+1
  5538  0FCE  3000               	movlw	0
  5539  0FCF  00DC               	movwf	___fldiv@b
  5540  0FD0                     i1l2788:
  5541  0FD0  1683               	bsf	3,5	;RP0=1, select bank1
  5542  0FD1  1303               	bcf	3,6	;RP1=0, select bank1
  5543  0FD2  01A4               	clrf	___fldiv@sign^(0+128)
  5544  0FD3                     i1l699:
  5545  0FD3  1683               	bsf	3,5	;RP0=1, select bank1
  5546  0FD4  1303               	bcf	3,6	;RP1=0, select bank1
  5547  0FD5  0825               	movf	___fldiv@new_exp^(0+128),w
  5548  0FD6  1283               	bcf	3,5	;RP0=0, select bank0
  5549  0FD7  1303               	bcf	3,6	;RP1=0, select bank0
  5550  0FD8  00E0               	movwf	??___fldiv
  5551  0FD9  0860               	movf	??___fldiv,w
  5552  0FDA  1683               	bsf	3,5	;RP0=1, select bank1
  5553  0FDB  1303               	bcf	3,6	;RP1=0, select bank1
  5554  0FDC  00AB               	movwf	___fldiv@bexp^(0+128)
  5555  0FDD                     i1l2790:
  5556  0FDD  1C2B               	btfss	___fldiv@bexp^(0+128),0
  5557  0FDE  2FE0               	goto	u342_21
  5558  0FDF  2FE1               	goto	u342_20
  5559  0FE0                     u342_21:
  5560  0FE0  2FE5               	goto	i1l2794
  5561  0FE1                     u342_20:
  5562  0FE1                     i1l2792:
  5563  0FE1  1283               	bcf	3,5	;RP0=0, select bank0
  5564  0FE2  1303               	bcf	3,6	;RP1=0, select bank0
  5565  0FE3  17DE               	bsf	___fldiv@b+2,7
  5566  0FE4  2FEB               	goto	i1l701
  5567  0FE5                     i1l2794:
  5568  0FE5  307F               	movlw	127
  5569  0FE6  1283               	bcf	3,5	;RP0=0, select bank0
  5570  0FE7  1303               	bcf	3,6	;RP1=0, select bank0
  5571  0FE8  00E0               	movwf	??___fldiv
  5572  0FE9  0860               	movf	??___fldiv,w
  5573  0FEA  05DE               	andwf	___fldiv@b+2,f
  5574  0FEB                     i1l701:
  5575  0FEB  1683               	bsf	3,5	;RP0=1, select bank1
  5576  0FEC  1303               	bcf	3,6	;RP1=0, select bank1
  5577  0FED  082B               	movf	___fldiv@bexp^(0+128),w
  5578  0FEE  1283               	bcf	3,5	;RP0=0, select bank0
  5579  0FEF  1303               	bcf	3,6	;RP1=0, select bank0
  5580  0FF0  00E0               	movwf	??___fldiv
  5581  0FF1  1003               	clrc
  5582  0FF2  0C60               	rrf	??___fldiv,w
  5583  0FF3  00E1               	movwf	??___fldiv+1
  5584  0FF4  0861               	movf	??___fldiv+1,w
  5585  0FF5  00DF               	movwf	___fldiv@b+3
  5586  0FF6  1683               	bsf	3,5	;RP0=1, select bank1
  5587  0FF7  1303               	bcf	3,6	;RP1=0, select bank1
  5588  0FF8  0824               	movf	___fldiv@sign^(0+128),w
  5589  0FF9  1283               	bcf	3,5	;RP0=0, select bank0
  5590  0FFA  1303               	bcf	3,6	;RP1=0, select bank0
  5591  0FFB  00E0               	movwf	??___fldiv
  5592  0FFC  0860               	movf	??___fldiv,w
  5593  0FFD  04DF               	iorwf	___fldiv@b+3,f
  5594  0FFE  2DFA               	goto	i1l2702
  5595  0FFF                     i1l679:
  5596  0FFF  0008               	return
  5597  1000                     __end_of___fldiv:
  5598                           
  5599                           	psect	text17
  5600  06B8                     __ptext17:	
  5601 ;; *************** function _log *****************
  5602 ;; Defined at:
  5603 ;;		line 5 in file "C:\Program Files\Microchip\xc8\v2.35\pic\sources\c90\common\log.c"
  5604 ;; Parameters:    Size  Location     Type
  5605 ;;  x               4   72[BANK0 ] unsigned char 
  5606 ;; Auto vars:     Size  Location     Type
  5607 ;;  exponent        2   77[BANK0 ] int 
  5608 ;; Return value:  Size  Location     Type
  5609 ;;                  4   72[BANK0 ] int 
  5610 ;; Registers used:
  5611 ;;		wreg, fsr0l, fsr0h, status,2, status,0, btemp+1, pclath, cstack
  5612 ;; Tracked objects:
  5613 ;;		On entry : 0/0
  5614 ;;		On exit  : 0/0
  5615 ;;		Unchanged: 0/0
  5616 ;; Data sizes:     COMMON   BANK0   BANK1   BANK3   BANK2
  5617 ;;      Params:         0       4       0       0       0
  5618 ;;      Locals:         0       2       0       0       0
  5619 ;;      Temps:          0       1       0       0       0
  5620 ;;      Totals:         0       7       0       0       0
  5621 ;;Total ram usage:        7 bytes
  5622 ;; Hardware stack levels used: 1
  5623 ;; Hardware stack levels required when called: 3
  5624 ;; This function calls:
  5625 ;;		___fladd
  5626 ;;		___fleq
  5627 ;;		___flge
  5628 ;;		___flmul
  5629 ;;		___xxtofl
  5630 ;;		_eval_poly
  5631 ;;		_frexp
  5632 ;; This function is called by:
  5633 ;;		_slave
  5634 ;; This function uses a non-reentrant model
  5635 ;;
  5636                           
  5637  06B8                     _log:	
  5638                           ;psect for function _log
  5639                           
  5640  06B8                     i1l2920:	
  5641                           ;incstack = 0
  5642                           ; Regs used in _log: [wreg-fsr0h+status,2+status,0+btemp+1+pclath+cstack]
  5643                           
  5644  06B8  1283               	bcf	3,5	;RP0=0, select bank0
  5645  06B9  1303               	bcf	3,6	;RP1=0, select bank0
  5646  06BA  086B               	movf	log@x+3,w
  5647  06BB  00F3               	movwf	___flge@ff1+3
  5648  06BC  086A               	movf	log@x+2,w
  5649  06BD  00F2               	movwf	___flge@ff1+2
  5650  06BE  0869               	movf	log@x+1,w
  5651  06BF  00F1               	movwf	___flge@ff1+1
  5652  06C0  0868               	movf	log@x,w
  5653  06C1  00F0               	movwf	___flge@ff1
  5654  06C2  3000               	movlw	0
  5655  06C3  00F7               	movwf	___flge@ff2+3
  5656  06C4  3000               	movlw	0
  5657  06C5  00F6               	movwf	___flge@ff2+2
  5658  06C6  3000               	movlw	0
  5659  06C7  00F5               	movwf	___flge@ff2+1
  5660  06C8  3000               	movlw	0
  5661  06C9  00F4               	movwf	___flge@ff2
  5662  06CA  120A  158A  200A  120A  118A  	fcall	___flge
  5663  06CF  1803               	btfsc	3,0
  5664  06D0  2ED2               	goto	u371_21
  5665  06D1  2ED3               	goto	u371_20
  5666  06D2                     u371_21:
  5667  06D2  2EE4               	goto	i1l2926
  5668  06D3                     u371_20:
  5669  06D3                     i1l2922:
  5670  06D3  3021               	movlw	33
  5671  06D4  1683               	bsf	3,5	;RP0=1, select bank1
  5672  06D5  1303               	bcf	3,6	;RP1=0, select bank1
  5673  06D6  00E4               	movwf	_errno^(0+128)
  5674  06D7  3000               	movlw	0
  5675  06D8  00E5               	movwf	(_errno^(0+128)+1)
  5676  06D9  3000               	movlw	0
  5677  06DA  1283               	bcf	3,5	;RP0=0, select bank0
  5678  06DB  1303               	bcf	3,6	;RP1=0, select bank0
  5679  06DC  00EB               	movwf	?_log+3
  5680  06DD  3000               	movlw	0
  5681  06DE  00EA               	movwf	?_log+2
  5682  06DF  3000               	movlw	0
  5683  06E0  00E9               	movwf	?_log+1
  5684  06E1  3000               	movlw	0
  5685  06E2  00E8               	movwf	?_log
  5686  06E3  2FC7               	goto	i1l788
  5687  06E4                     i1l2926:
  5688  06E4  1283               	bcf	3,5	;RP0=0, select bank0
  5689  06E5  1303               	bcf	3,6	;RP1=0, select bank0
  5690  06E6  086B               	movf	log@x+3,w
  5691  06E7  00F3               	movwf	___fleq@ff1+3
  5692  06E8  086A               	movf	log@x+2,w
  5693  06E9  00F2               	movwf	___fleq@ff1+2
  5694  06EA  0869               	movf	log@x+1,w
  5695  06EB  00F1               	movwf	___fleq@ff1+1
  5696  06EC  0868               	movf	log@x,w
  5697  06ED  00F0               	movwf	___fleq@ff1
  5698  06EE  3000               	movlw	0
  5699  06EF  00F7               	movwf	___fleq@ff2+3
  5700  06F0  3000               	movlw	0
  5701  06F1  00F6               	movwf	___fleq@ff2+2
  5702  06F2  3000               	movlw	0
  5703  06F3  00F5               	movwf	___fleq@ff2+1
  5704  06F4  3000               	movlw	0
  5705  06F5  00F4               	movwf	___fleq@ff2
  5706  06F6  160A  118A  2455  120A  118A  	fcall	___fleq
  5707  06FB  1C03               	btfss	3,0
  5708  06FC  2EFE               	goto	u372_21
  5709  06FD  2EFF               	goto	u372_20
  5710  06FE                     u372_21:
  5711  06FE  2F10               	goto	i1l2932
  5712  06FF                     u372_20:
  5713  06FF                     i1l2928:
  5714  06FF  3022               	movlw	34
  5715  0700  1683               	bsf	3,5	;RP0=1, select bank1
  5716  0701  1303               	bcf	3,6	;RP1=0, select bank1
  5717  0702  00E4               	movwf	_errno^(0+128)
  5718  0703  3000               	movlw	0
  5719  0704  00E5               	movwf	(_errno^(0+128)+1)
  5720  0705  3000               	movlw	0
  5721  0706  1283               	bcf	3,5	;RP0=0, select bank0
  5722  0707  1303               	bcf	3,6	;RP1=0, select bank0
  5723  0708  00EB               	movwf	?_log+3
  5724  0709  3000               	movlw	0
  5725  070A  00EA               	movwf	?_log+2
  5726  070B  3000               	movlw	0
  5727  070C  00E9               	movwf	?_log+1
  5728  070D  3000               	movlw	0
  5729  070E  00E8               	movwf	?_log
  5730  070F  2FC7               	goto	i1l788
  5731  0710                     i1l2932:
  5732  0710  30BF               	movlw	191
  5733  0711  1283               	bcf	3,5	;RP0=0, select bank0
  5734  0712  1303               	bcf	3,6	;RP1=0, select bank0
  5735  0713  00AD               	movwf	___fladd@b+3
  5736  0714  3080               	movlw	128
  5737  0715  00AC               	movwf	___fladd@b+2
  5738  0716  3000               	movlw	0
  5739  0717  00AB               	movwf	___fladd@b+1
  5740  0718  3000               	movlw	0
  5741  0719  00AA               	movwf	___fladd@b
  5742  071A  3040               	movlw	64
  5743  071B  00C1               	movwf	___flmul@b+3
  5744  071C  3000               	movlw	0
  5745  071D  00C0               	movwf	___flmul@b+2
  5746  071E  3000               	movlw	0
  5747  071F  00BF               	movwf	___flmul@b+1
  5748  0720  3000               	movlw	0
  5749  0721  00BE               	movwf	___flmul@b
  5750  0722  306D               	movlw	(low (log@exponent| 0))& (0+255)
  5751  0723  00EC               	movwf	??_log
  5752  0724  086C               	movf	??_log,w
  5753  0725  00A4               	movwf	frexp@eptr
  5754  0726  086B               	movf	log@x+3,w
  5755  0727  00A3               	movwf	frexp@value+3
  5756  0728  086A               	movf	log@x+2,w
  5757  0729  00A2               	movwf	frexp@value+2
  5758  072A  0869               	movf	log@x+1,w
  5759  072B  00A1               	movwf	frexp@value+1
  5760  072C  0868               	movf	log@x,w
  5761  072D  00A0               	movwf	frexp@value
  5762  072E  160A  118A  24A3  120A  118A  	fcall	_frexp
  5763  0733  1283               	bcf	3,5	;RP0=0, select bank0
  5764  0734  1303               	bcf	3,6	;RP1=0, select bank0
  5765  0735  0823               	movf	?_frexp+3,w
  5766  0736  00C5               	movwf	___flmul@a+3
  5767  0737  0822               	movf	?_frexp+2,w
  5768  0738  00C4               	movwf	___flmul@a+2
  5769  0739  0821               	movf	?_frexp+1,w
  5770  073A  00C3               	movwf	___flmul@a+1
  5771  073B  0820               	movf	?_frexp,w
  5772  073C  00C2               	movwf	___flmul@a
  5773  073D  120A  118A  2041  120A  118A  	fcall	___flmul
  5774  0742  1283               	bcf	3,5	;RP0=0, select bank0
  5775  0743  1303               	bcf	3,6	;RP1=0, select bank0
  5776  0744  0841               	movf	?___flmul+3,w
  5777  0745  00B1               	movwf	___fladd@a+3
  5778  0746  0840               	movf	?___flmul+2,w
  5779  0747  00B0               	movwf	___fladd@a+2
  5780  0748  083F               	movf	?___flmul+1,w
  5781  0749  00AF               	movwf	___fladd@a+1
  5782  074A  083E               	movf	?___flmul,w
  5783  074B  00AE               	movwf	___fladd@a
  5784  074C  120A  158A  22D8  120A  118A  	fcall	___fladd
  5785  0751  1283               	bcf	3,5	;RP0=0, select bank0
  5786  0752  1303               	bcf	3,6	;RP1=0, select bank0
  5787  0753  082D               	movf	?___fladd+3,w
  5788  0754  00EB               	movwf	log@x+3
  5789  0755  082C               	movf	?___fladd+2,w
  5790  0756  00EA               	movwf	log@x+2
  5791  0757  082B               	movf	?___fladd+1,w
  5792  0758  00E9               	movwf	log@x+1
  5793  0759  082A               	movf	?___fladd,w
  5794  075A  00E8               	movwf	log@x
  5795  075B                     i1l2934:
  5796  075B  30FF               	movlw	255
  5797  075C  07ED               	addwf	log@exponent,f
  5798  075D  1803               	skipnc
  5799  075E  0AEE               	incf	log@exponent+1,f
  5800  075F  30FF               	movlw	255
  5801  0760  07EE               	addwf	log@exponent+1,f
  5802  0761                     i1l2936:
  5803  0761  086B               	movf	log@x+3,w
  5804  0762  00DB               	movwf	eval_poly@x+3
  5805  0763  086A               	movf	log@x+2,w
  5806  0764  00DA               	movwf	eval_poly@x+2
  5807  0765  0869               	movf	log@x+1,w
  5808  0766  00D9               	movwf	eval_poly@x+1
  5809  0767  0868               	movf	log@x,w
  5810  0768  00D8               	movwf	eval_poly@x
  5811  0769  3001               	movlw	(low ((log@coeff-__stringbase)| (0+32768)))& (0+255)
  5812  076A  00EC               	movwf	??_log
  5813  076B  086C               	movf	??_log,w
  5814  076C  00DC               	movwf	eval_poly@d
  5815  076D  3008               	movlw	8
  5816  076E  00DD               	movwf	eval_poly@n
  5817  076F  3000               	movlw	0
  5818  0770  00DE               	movwf	eval_poly@n+1
  5819  0771  160A  118A  2762  120A  118A  	fcall	_eval_poly
  5820  0776  1283               	bcf	3,5	;RP0=0, select bank0
  5821  0777  1303               	bcf	3,6	;RP1=0, select bank0
  5822  0778  085B               	movf	?_eval_poly+3,w
  5823  0779  00EB               	movwf	log@x+3
  5824  077A  085A               	movf	?_eval_poly+2,w
  5825  077B  00EA               	movwf	log@x+2
  5826  077C  0859               	movf	?_eval_poly+1,w
  5827  077D  00E9               	movwf	log@x+1
  5828  077E  0858               	movf	?_eval_poly,w
  5829  077F  00E8               	movwf	log@x
  5830  0780                     i1l2938:
  5831  0780  086B               	movf	log@x+3,w
  5832  0781  00AD               	movwf	___fladd@b+3
  5833  0782  086A               	movf	log@x+2,w
  5834  0783  00AC               	movwf	___fladd@b+2
  5835  0784  0869               	movf	log@x+1,w
  5836  0785  00AB               	movwf	___fladd@b+1
  5837  0786  0868               	movf	log@x,w
  5838  0787  00AA               	movwf	___fladd@b
  5839  0788  303F               	movlw	63
  5840  0789  00C1               	movwf	___flmul@b+3
  5841  078A  3031               	movlw	49
  5842  078B  00C0               	movwf	___flmul@b+2
  5843  078C  3072               	movlw	114
  5844  078D  00BF               	movwf	___flmul@b+1
  5845  078E  3018               	movlw	24
  5846  078F  00BE               	movwf	___flmul@b
  5847  0790  086D               	movf	log@exponent,w
  5848  0791  00F9               	movwf	___xxtofl@val
  5849  0792  086E               	movf	log@exponent+1,w
  5850  0793  00FA               	movwf	___xxtofl@val+1
  5851  0794  3000               	movlw	0
  5852  0795  1BFA               	btfsc	___xxtofl@val+1,7
  5853  0796  30FF               	movlw	255
  5854  0797  00FB               	movwf	___xxtofl@val+2
  5855  0798  00FC               	movwf	___xxtofl@val+3
  5856  0799  3001               	movlw	1
  5857  079A  120A  158A  221C  120A  118A  	fcall	___xxtofl
  5858  079F  087C               	movf	?___xxtofl+3,w
  5859  07A0  1283               	bcf	3,5	;RP0=0, select bank0
  5860  07A1  1303               	bcf	3,6	;RP1=0, select bank0
  5861  07A2  00C5               	movwf	___flmul@a+3
  5862  07A3  087B               	movf	?___xxtofl+2,w
  5863  07A4  00C4               	movwf	___flmul@a+2
  5864  07A5  087A               	movf	?___xxtofl+1,w
  5865  07A6  00C3               	movwf	___flmul@a+1
  5866  07A7  0879               	movf	?___xxtofl,w
  5867  07A8  00C2               	movwf	___flmul@a
  5868  07A9  120A  118A  2041  120A  118A  	fcall	___flmul
  5869  07AE  1283               	bcf	3,5	;RP0=0, select bank0
  5870  07AF  1303               	bcf	3,6	;RP1=0, select bank0
  5871  07B0  0841               	movf	?___flmul+3,w
  5872  07B1  00B1               	movwf	___fladd@a+3
  5873  07B2  0840               	movf	?___flmul+2,w
  5874  07B3  00B0               	movwf	___fladd@a+2
  5875  07B4  083F               	movf	?___flmul+1,w
  5876  07B5  00AF               	movwf	___fladd@a+1
  5877  07B6  083E               	movf	?___flmul,w
  5878  07B7  00AE               	movwf	___fladd@a
  5879  07B8  120A  158A  22D8  120A  118A  	fcall	___fladd
  5880  07BD  1283               	bcf	3,5	;RP0=0, select bank0
  5881  07BE  1303               	bcf	3,6	;RP1=0, select bank0
  5882  07BF  082D               	movf	?___fladd+3,w
  5883  07C0  00EB               	movwf	?_log+3
  5884  07C1  082C               	movf	?___fladd+2,w
  5885  07C2  00EA               	movwf	?_log+2
  5886  07C3  082B               	movf	?___fladd+1,w
  5887  07C4  00E9               	movwf	?_log+1
  5888  07C5  082A               	movf	?___fladd,w
  5889  07C6  00E8               	movwf	?_log
  5890  07C7                     i1l788:
  5891  07C7  0008               	return
  5892  07C8                     __end_of_log:
  5893                           
  5894                           	psect	text18
  5895  14A3                     __ptext18:	
  5896 ;; *************** function _frexp *****************
  5897 ;; Defined at:
  5898 ;;		line 254 in file "C:\Program Files\Microchip\xc8\v2.35\pic\sources\c90\common\frexp.c"
  5899 ;; Parameters:    Size  Location     Type
  5900 ;;  value           4    0[BANK0 ] int 
  5901 ;;  eptr            1    4[BANK0 ] PTR int 
  5902 ;;		 -> log@exponent(2), 
  5903 ;; Auto vars:     Size  Location     Type
  5904 ;;		None
  5905 ;; Return value:  Size  Location     Type
  5906 ;;                  4    0[BANK0 ] PTR int 
  5907 ;; Registers used:
  5908 ;;		wreg, fsr0l, fsr0h, status,2, status,0, btemp+1, pclath, cstack
  5909 ;; Tracked objects:
  5910 ;;		On entry : 0/0
  5911 ;;		On exit  : 0/0
  5912 ;;		Unchanged: 0/0
  5913 ;; Data sizes:     COMMON   BANK0   BANK1   BANK3   BANK2
  5914 ;;      Params:         0       5       0       0       0
  5915 ;;      Locals:         0       0       0       0       0
  5916 ;;      Temps:          2       0       0       0       0
  5917 ;;      Totals:         2       5       0       0       0
  5918 ;;Total ram usage:        7 bytes
  5919 ;; Hardware stack levels used: 1
  5920 ;; Hardware stack levels required when called: 1
  5921 ;; This function calls:
  5922 ;;		___fleq
  5923 ;; This function is called by:
  5924 ;;		_log
  5925 ;; This function uses a non-reentrant model
  5926 ;;
  5927                           
  5928  14A3                     _frexp:	
  5929                           ;psect for function _frexp
  5930                           
  5931  14A3                     i1l2844:	
  5932                           ;incstack = 0
  5933                           ; Regs used in _frexp: [wreg-fsr0h+status,2+status,0+btemp+1+pclath+cstack]
  5934                           
  5935  14A3  1283               	bcf	3,5	;RP0=0, select bank0
  5936  14A4  1303               	bcf	3,6	;RP1=0, select bank0
  5937  14A5  0823               	movf	frexp@value+3,w
  5938  14A6  00F3               	movwf	___fleq@ff1+3
  5939  14A7  0822               	movf	frexp@value+2,w
  5940  14A8  00F2               	movwf	___fleq@ff1+2
  5941  14A9  0821               	movf	frexp@value+1,w
  5942  14AA  00F1               	movwf	___fleq@ff1+1
  5943  14AB  0820               	movf	frexp@value,w
  5944  14AC  00F0               	movwf	___fleq@ff1
  5945  14AD  3000               	movlw	0
  5946  14AE  00F7               	movwf	___fleq@ff2+3
  5947  14AF  3000               	movlw	0
  5948  14B0  00F6               	movwf	___fleq@ff2+2
  5949  14B1  3000               	movlw	0
  5950  14B2  00F5               	movwf	___fleq@ff2+1
  5951  14B3  3000               	movlw	0
  5952  14B4  00F4               	movwf	___fleq@ff2
  5953  14B5  160A  118A  2455  160A  118A  	fcall	___fleq
  5954  14BA  1C03               	btfss	3,0
  5955  14BB  2CBD               	goto	u357_21
  5956  14BC  2CBE               	goto	u357_20
  5957  14BD                     u357_21:
  5958  14BD  2CCF               	goto	i1l2852
  5959  14BE                     u357_20:
  5960  14BE                     i1l2846:
  5961  14BE  1283               	bcf	3,5	;RP0=0, select bank0
  5962  14BF  1303               	bcf	3,6	;RP1=0, select bank0
  5963  14C0  0824               	movf	frexp@eptr,w
  5964  14C1  0084               	movwf	4
  5965  14C2  1383               	bcf	3,7	;select IRP bank0
  5966  14C3  0180               	clrf	0
  5967  14C4  0A84               	incf	4,f
  5968  14C5  0180               	clrf	0
  5969  14C6                     i1l2848:
  5970  14C6  3000               	movlw	0
  5971  14C7  00A3               	movwf	?_frexp+3
  5972  14C8  3000               	movlw	0
  5973  14C9  00A2               	movwf	?_frexp+2
  5974  14CA  3000               	movlw	0
  5975  14CB  00A1               	movwf	?_frexp+1
  5976  14CC  3000               	movlw	0
  5977  14CD  00A0               	movwf	?_frexp
  5978  14CE  2CFE               	goto	i1l806
  5979  14CF                     i1l2852:
  5980  14CF  1283               	bcf	3,5	;RP0=0, select bank0
  5981  14D0  1303               	bcf	3,6	;RP1=0, select bank0
  5982  14D1  0823               	movf	frexp@value+3,w
  5983  14D2  397F               	andlw	127
  5984  14D3  00FC               	movwf	??_frexp
  5985  14D4  01FD               	clrf	??_frexp+1
  5986  14D5  1003               	clrc
  5987  14D6  0DFC               	rlf	??_frexp,f
  5988  14D7  0DFD               	rlf	??_frexp+1,f
  5989  14D8  0824               	movf	frexp@eptr,w
  5990  14D9  0084               	movwf	4
  5991  14DA  087C               	movf	??_frexp,w
  5992  14DB  1383               	bcf	3,7	;select IRP bank0
  5993  14DC  0080               	movwf	0
  5994  14DD  0A84               	incf	4,f
  5995  14DE  087D               	movf	??_frexp+1,w
  5996  14DF  0080               	movwf	0
  5997  14E0  0D22               	rlf	frexp@value+2,w
  5998  14E1  0D22               	rlf	frexp@value+2,w
  5999  14E2  3901               	andlw	1
  6000  14E3  00FC               	movwf	??_frexp
  6001  14E4  01FD               	clrf	??_frexp+1
  6002  14E5  0824               	movf	frexp@eptr,w
  6003  14E6  0084               	movwf	4
  6004  14E7  087C               	movf	??_frexp,w
  6005  14E8  0480               	iorwf	0,f
  6006  14E9  0A84               	incf	4,f
  6007  14EA  087D               	movf	??_frexp+1,w
  6008  14EB  0480               	iorwf	0,f
  6009  14EC                     i1l2854:
  6010  14EC  0824               	movf	frexp@eptr,w
  6011  14ED  0084               	movwf	4
  6012  14EE  3082               	movlw	130
  6013  14EF  0780               	addwf	0,f
  6014  14F0  0F84               	incfsz	4,f
  6015  14F1  0800               	movf	0,w
  6016  14F2  1803               	skipnc
  6017  14F3  0A00               	incf	0,w
  6018  14F4  00FF               	movwf	btemp+1
  6019  14F5  30FF               	movlw	255
  6020  14F6  077F               	addwf	btemp+1,w
  6021  14F7  0080               	movwf	0
  6022  14F8  0384               	decf	4,f
  6023  14F9                     i1l2856:
  6024  14F9  0823               	movf	frexp@value+3,w
  6025  14FA  3980               	andlw	-128
  6026  14FB  383F               	iorlw	63
  6027  14FC  00A3               	movwf	frexp@value+3
  6028  14FD                     i1l2858:
  6029  14FD  13A2               	bcf	frexp@value+2,7
  6030  14FE                     i1l2860:
  6031  14FE                     i1l806:
  6032  14FE  0008               	return
  6033  14FF                     __end_of_frexp:
  6034                           
  6035                           	psect	text19
  6036  1455                     __ptext19:	
  6037 ;; *************** function ___fleq *****************
  6038 ;; Defined at:
  6039 ;;		line 4 in file "C:\Program Files\Microchip\xc8\v2.35\pic\sources\c90\common\fleq.c"
  6040 ;; Parameters:    Size  Location     Type
  6041 ;;  ff1             4    0[COMMON] PTR int 
  6042 ;;  ff2             4    4[COMMON] PTR int 
  6043 ;; Auto vars:     Size  Location     Type
  6044 ;;		None
  6045 ;; Return value:  Size  Location     Type
  6046 ;;		None               void
  6047 ;; Registers used:
  6048 ;;		wreg, status,2, status,0
  6049 ;; Tracked objects:
  6050 ;;		On entry : 0/0
  6051 ;;		On exit  : 0/0
  6052 ;;		Unchanged: 0/0
  6053 ;; Data sizes:     COMMON   BANK0   BANK1   BANK3   BANK2
  6054 ;;      Params:         8       0       0       0       0
  6055 ;;      Locals:         0       0       0       0       0
  6056 ;;      Temps:          4       0       0       0       0
  6057 ;;      Totals:        12       0       0       0       0
  6058 ;;Total ram usage:       12 bytes
  6059 ;; Hardware stack levels used: 1
  6060 ;; This function calls:
  6061 ;;		Nothing
  6062 ;; This function is called by:
  6063 ;;		_log
  6064 ;;		_frexp
  6065 ;; This function uses a non-reentrant model
  6066 ;;
  6067                           
  6068  1455                     ___fleq:	
  6069                           ;psect for function ___fleq
  6070                           
  6071  1455                     i1l2178:	
  6072                           ;incstack = 0
  6073                           ; Regs used in ___fleq: [wreg+status,2+status,0]
  6074                           
  6075  1455  3000               	movlw	0
  6076  1456  0570               	andwf	___fleq@ff1,w
  6077  1457  00F8               	movwf	??___fleq
  6078  1458  3000               	movlw	0
  6079  1459  0571               	andwf	___fleq@ff1+1,w
  6080  145A  00F9               	movwf	??___fleq+1
  6081  145B  3080               	movlw	128
  6082  145C  0572               	andwf	___fleq@ff1+2,w
  6083  145D  00FA               	movwf	??___fleq+2
  6084  145E  307F               	movlw	127
  6085  145F  0573               	andwf	___fleq@ff1+3,w
  6086  1460  00FB               	movwf	??___fleq+3
  6087  1461  087B               	movf	??___fleq+3,w
  6088  1462  047A               	iorwf	??___fleq+2,w
  6089  1463  0479               	iorwf	??___fleq+1,w
  6090  1464  0478               	iorwf	??___fleq,w
  6091  1465  1D03               	skipz
  6092  1466  2C68               	goto	u215_21
  6093  1467  2C69               	goto	u215_20
  6094  1468                     u215_21:
  6095  1468  2C71               	goto	i1l497
  6096  1469                     u215_20:
  6097  1469                     i1l2180:
  6098  1469  3000               	movlw	0
  6099  146A  00F3               	movwf	___fleq@ff1+3
  6100  146B  3000               	movlw	0
  6101  146C  00F2               	movwf	___fleq@ff1+2
  6102  146D  3000               	movlw	0
  6103  146E  00F1               	movwf	___fleq@ff1+1
  6104  146F  3000               	movlw	0
  6105  1470  00F0               	movwf	___fleq@ff1
  6106  1471                     i1l497:
  6107  1471  3000               	movlw	0
  6108  1472  0574               	andwf	___fleq@ff2,w
  6109  1473  00F8               	movwf	??___fleq
  6110  1474  3000               	movlw	0
  6111  1475  0575               	andwf	___fleq@ff2+1,w
  6112  1476  00F9               	movwf	??___fleq+1
  6113  1477  3080               	movlw	128
  6114  1478  0576               	andwf	___fleq@ff2+2,w
  6115  1479  00FA               	movwf	??___fleq+2
  6116  147A  307F               	movlw	127
  6117  147B  0577               	andwf	___fleq@ff2+3,w
  6118  147C  00FB               	movwf	??___fleq+3
  6119  147D  087B               	movf	??___fleq+3,w
  6120  147E  047A               	iorwf	??___fleq+2,w
  6121  147F  0479               	iorwf	??___fleq+1,w
  6122  1480  0478               	iorwf	??___fleq,w
  6123  1481  1D03               	skipz
  6124  1482  2C84               	goto	u216_21
  6125  1483  2C85               	goto	u216_20
  6126  1484                     u216_21:
  6127  1484  2C8D               	goto	i1l498
  6128  1485                     u216_20:
  6129  1485                     i1l2182:
  6130  1485  3000               	movlw	0
  6131  1486  00F7               	movwf	___fleq@ff2+3
  6132  1487  3000               	movlw	0
  6133  1488  00F6               	movwf	___fleq@ff2+2
  6134  1489  3000               	movlw	0
  6135  148A  00F5               	movwf	___fleq@ff2+1
  6136  148B  3000               	movlw	0
  6137  148C  00F4               	movwf	___fleq@ff2
  6138  148D                     i1l498:
  6139  148D  0877               	movf	___fleq@ff2+3,w
  6140  148E  0673               	xorwf	___fleq@ff1+3,w
  6141  148F  1D03               	skipz
  6142  1490  2C9B               	goto	u217_25
  6143  1491  0876               	movf	___fleq@ff2+2,w
  6144  1492  0672               	xorwf	___fleq@ff1+2,w
  6145  1493  1D03               	skipz
  6146  1494  2C9B               	goto	u217_25
  6147  1495  0875               	movf	___fleq@ff2+1,w
  6148  1496  0671               	xorwf	___fleq@ff1+1,w
  6149  1497  1D03               	skipz
  6150  1498  2C9B               	goto	u217_25
  6151  1499  0874               	movf	___fleq@ff2,w
  6152  149A  0670               	xorwf	___fleq@ff1,w
  6153  149B                     u217_25:
  6154  149B  1903               	skipnz
  6155  149C  2C9E               	goto	u217_21
  6156  149D  2C9F               	goto	u217_20
  6157  149E                     u217_21:
  6158  149E  2CA1               	goto	i1l2186
  6159  149F                     u217_20:
  6160  149F                     i1l2184:
  6161  149F  1003               	clrc
  6162  14A0  2CA2               	goto	i1l499
  6163  14A1                     i1l2186:
  6164  14A1  1403               	setc
  6165  14A2                     i1l499:
  6166  14A2  0008               	return
  6167  14A3                     __end_of___fleq:
  6168                           
  6169                           	psect	text20
  6170  1762                     __ptext20:	
  6171 ;; *************** function _eval_poly *****************
  6172 ;; Defined at:
  6173 ;;		line 4 in file "C:\Program Files\Microchip\xc8\v2.35\pic\sources\c90\common\evalpoly.c"
  6174 ;; Parameters:    Size  Location     Type
  6175 ;;  x               4   56[BANK0 ] PTR int 
  6176 ;;  d               1   60[BANK0 ] PTR const 
  6177 ;;		 -> log@coeff(36), 
  6178 ;;  n               2   61[BANK0 ] int 
  6179 ;; Auto vars:     Size  Location     Type
  6180 ;;  res             4   68[BANK0 ] int 
  6181 ;; Return value:  Size  Location     Type
  6182 ;;                  4   56[BANK0 ] int 
  6183 ;; Registers used:
  6184 ;;		wreg, fsr0l, fsr0h, status,2, status,0, btemp+1, pclath, cstack
  6185 ;; Tracked objects:
  6186 ;;		On entry : 0/0
  6187 ;;		On exit  : 0/0
  6188 ;;		Unchanged: 0/0
  6189 ;; Data sizes:     COMMON   BANK0   BANK1   BANK3   BANK2
  6190 ;;      Params:         0       7       0       0       0
  6191 ;;      Locals:         0       4       0       0       0
  6192 ;;      Temps:          0       5       0       0       0
  6193 ;;      Totals:         0      16       0       0       0
  6194 ;;Total ram usage:       16 bytes
  6195 ;; Hardware stack levels used: 1
  6196 ;; Hardware stack levels required when called: 2
  6197 ;; This function calls:
  6198 ;;		___fladd
  6199 ;;		___flmul
  6200 ;; This function is called by:
  6201 ;;		_log
  6202 ;; This function uses a non-reentrant model
  6203 ;;
  6204                           
  6205  1762                     _eval_poly:	
  6206                           ;psect for function _eval_poly
  6207                           
  6208  1762                     i1l2864:	
  6209                           ;incstack = 0
  6210 ;; using string table level
  6211                           ; Regs used in _eval_poly: [wreg-fsr0h+status,2+status,0+btemp+1+pclath+cstack]
  6212                           
  6213  1762  1283               	bcf	3,5	;RP0=0, select bank0
  6214  1763  1303               	bcf	3,6	;RP1=0, select bank0
  6215  1764  085D               	movf	eval_poly@n,w
  6216  1765  00DF               	movwf	??_eval_poly
  6217  1766  3001               	movlw	1
  6218  1767                     u358_25:
  6219  1767  1003               	clrc
  6220  1768  0DDF               	rlf	??_eval_poly,f
  6221  1769  3EFF               	addlw	-1
  6222  176A  1D03               	skipz
  6223  176B  2F67               	goto	u358_25
  6224  176C  1003               	clrc
  6225  176D  0D5F               	rlf	??_eval_poly,w
  6226  176E  075C               	addwf	eval_poly@d,w
  6227  176F  0084               	movwf	4
  6228  1770  160A  118A  2000  160A  118A  	fcall	stringdir
  6229  1775  00E0               	movwf	??_eval_poly+1
  6230  1776  160A  118A  2000  160A  118A  	fcall	stringdir
  6231  177B  00E1               	movwf	??_eval_poly+2
  6232  177C  160A  118A  2000  160A  118A  	fcall	stringdir
  6233  1781  00E2               	movwf	??_eval_poly+3
  6234  1782  160A  118A  2000  160A  118A  	fcall	stringdir
  6235  1787  00E3               	movwf	??_eval_poly+4
  6236  1788  0863               	movf	??_eval_poly+4,w
  6237  1789  00E7               	movwf	eval_poly@res+3
  6238  178A  0862               	movf	??_eval_poly+3,w
  6239  178B  00E6               	movwf	eval_poly@res+2
  6240  178C  0861               	movf	??_eval_poly+2,w
  6241  178D  00E5               	movwf	eval_poly@res+1
  6242  178E  0860               	movf	??_eval_poly+1,w
  6243  178F  00E4               	movwf	eval_poly@res
  6244  1790  2FF1               	goto	i1l2868
  6245  1791                     i1l2866:
  6246  1791  30FF               	movlw	255
  6247  1792  07DD               	addwf	eval_poly@n,f
  6248  1793  1803               	skipnc
  6249  1794  0ADE               	incf	eval_poly@n+1,f
  6250  1795  30FF               	movlw	255
  6251  1796  07DE               	addwf	eval_poly@n+1,f
  6252  1797  085D               	movf	eval_poly@n,w
  6253  1798  00DF               	movwf	??_eval_poly
  6254  1799  3001               	movlw	1
  6255  179A                     u359_25:
  6256  179A  1003               	clrc
  6257  179B  0DDF               	rlf	??_eval_poly,f
  6258  179C  3EFF               	addlw	-1
  6259  179D  1D03               	skipz
  6260  179E  2F9A               	goto	u359_25
  6261  179F  1003               	clrc
  6262  17A0  0D5F               	rlf	??_eval_poly,w
  6263  17A1  075C               	addwf	eval_poly@d,w
  6264  17A2  0084               	movwf	4
  6265  17A3  160A  118A  2000  160A  118A  	fcall	stringdir
  6266  17A8  00E0               	movwf	??_eval_poly+1
  6267  17A9  160A  118A  2000  160A  118A  	fcall	stringdir
  6268  17AE  00E1               	movwf	??_eval_poly+2
  6269  17AF  160A  118A  2000  160A  118A  	fcall	stringdir
  6270  17B4  00E2               	movwf	??_eval_poly+3
  6271  17B5  160A  118A  2000  160A  118A  	fcall	stringdir
  6272  17BA  00E3               	movwf	??_eval_poly+4
  6273  17BB  0863               	movf	??_eval_poly+4,w
  6274  17BC  00AD               	movwf	___fladd@b+3
  6275  17BD  0862               	movf	??_eval_poly+3,w
  6276  17BE  00AC               	movwf	___fladd@b+2
  6277  17BF  0861               	movf	??_eval_poly+2,w
  6278  17C0  00AB               	movwf	___fladd@b+1
  6279  17C1  0860               	movf	??_eval_poly+1,w
  6280  17C2  00AA               	movwf	___fladd@b
  6281  17C3  0867               	movf	eval_poly@res+3,w
  6282  17C4  00C1               	movwf	___flmul@b+3
  6283  17C5  0866               	movf	eval_poly@res+2,w
  6284  17C6  00C0               	movwf	___flmul@b+2
  6285  17C7  0865               	movf	eval_poly@res+1,w
  6286  17C8  00BF               	movwf	___flmul@b+1
  6287  17C9  0864               	movf	eval_poly@res,w
  6288  17CA  00BE               	movwf	___flmul@b
  6289  17CB  085B               	movf	eval_poly@x+3,w
  6290  17CC  00C5               	movwf	___flmul@a+3
  6291  17CD  085A               	movf	eval_poly@x+2,w
  6292  17CE  00C4               	movwf	___flmul@a+2
  6293  17CF  0859               	movf	eval_poly@x+1,w
  6294  17D0  00C3               	movwf	___flmul@a+1
  6295  17D1  0858               	movf	eval_poly@x,w
  6296  17D2  00C2               	movwf	___flmul@a
  6297  17D3  120A  118A  2041  160A  118A  	fcall	___flmul
  6298  17D8  1283               	bcf	3,5	;RP0=0, select bank0
  6299  17D9  1303               	bcf	3,6	;RP1=0, select bank0
  6300  17DA  0841               	movf	?___flmul+3,w
  6301  17DB  00B1               	movwf	___fladd@a+3
  6302  17DC  0840               	movf	?___flmul+2,w
  6303  17DD  00B0               	movwf	___fladd@a+2
  6304  17DE  083F               	movf	?___flmul+1,w
  6305  17DF  00AF               	movwf	___fladd@a+1
  6306  17E0  083E               	movf	?___flmul,w
  6307  17E1  00AE               	movwf	___fladd@a
  6308  17E2  120A  158A  22D8  160A  118A  	fcall	___fladd
  6309  17E7  1283               	bcf	3,5	;RP0=0, select bank0
  6310  17E8  1303               	bcf	3,6	;RP1=0, select bank0
  6311  17E9  082D               	movf	?___fladd+3,w
  6312  17EA  00E7               	movwf	eval_poly@res+3
  6313  17EB  082C               	movf	?___fladd+2,w
  6314  17EC  00E6               	movwf	eval_poly@res+2
  6315  17ED  082B               	movf	?___fladd+1,w
  6316  17EE  00E5               	movwf	eval_poly@res+1
  6317  17EF  082A               	movf	?___fladd,w
  6318  17F0  00E4               	movwf	eval_poly@res
  6319  17F1                     i1l2868:
  6320  17F1  085D               	movf	eval_poly@n,w
  6321  17F2  045E               	iorwf	eval_poly@n+1,w
  6322  17F3  1D03               	btfss	3,2
  6323  17F4  2FF6               	goto	u360_21
  6324  17F5  2FF7               	goto	u360_20
  6325  17F6                     u360_21:
  6326  17F6  2F91               	goto	i1l2866
  6327  17F7                     u360_20:
  6328  17F7                     i1l2870:
  6329  17F7  0867               	movf	eval_poly@res+3,w
  6330  17F8  00DB               	movwf	?_eval_poly+3
  6331  17F9  0866               	movf	eval_poly@res+2,w
  6332  17FA  00DA               	movwf	?_eval_poly+2
  6333  17FB  0865               	movf	eval_poly@res+1,w
  6334  17FC  00D9               	movwf	?_eval_poly+1
  6335  17FD  0864               	movf	eval_poly@res,w
  6336  17FE  00D8               	movwf	?_eval_poly
  6337  17FF                     i1l800:
  6338  17FF  0008               	return
  6339  1800                     __end_of_eval_poly:
  6340                           
  6341                           	psect	text21
  6342  0041                     __ptext21:	
  6343 ;; *************** function ___flmul *****************
  6344 ;; Defined at:
  6345 ;;		line 8 in file "C:\Program Files\Microchip\xc8\v2.35\pic\sources\c90\common\sprcmul.c"
  6346 ;; Parameters:    Size  Location     Type
  6347 ;;  b               4   30[BANK0 ] int 
  6348 ;;  a               4   34[BANK0 ] int 
  6349 ;; Auto vars:     Size  Location     Type
  6350 ;;  prod            4   50[BANK0 ] struct .
  6351 ;;  grs             4   44[BANK0 ] unsigned long 
  6352 ;;  temp            2   54[BANK0 ] struct .
  6353 ;;  bexp            1   49[BANK0 ] unsigned char 
  6354 ;;  aexp            1   48[BANK0 ] unsigned char 
  6355 ;;  sign            1   43[BANK0 ] unsigned char 
  6356 ;; Return value:  Size  Location     Type
  6357 ;;                  4   30[BANK0 ] unsigned char 
  6358 ;; Registers used:
  6359 ;;		wreg, status,2, status,0, btemp+1, pclath, cstack
  6360 ;; Tracked objects:
  6361 ;;		On entry : 0/0
  6362 ;;		On exit  : 0/0
  6363 ;;		Unchanged: 0/0
  6364 ;; Data sizes:     COMMON   BANK0   BANK1   BANK3   BANK2
  6365 ;;      Params:         0       8       0       0       0
  6366 ;;      Locals:         0      13       0       0       0
  6367 ;;      Temps:          0       5       0       0       0
  6368 ;;      Totals:         0      26       0       0       0
  6369 ;;Total ram usage:       26 bytes
  6370 ;; Hardware stack levels used: 1
  6371 ;; Hardware stack levels required when called: 1
  6372 ;; This function calls:
  6373 ;;		__Umul8_16
  6374 ;; This function is called by:
  6375 ;;		_slave
  6376 ;;		_map
  6377 ;;		_log
  6378 ;;		_eval_poly
  6379 ;; This function uses a non-reentrant model
  6380 ;;
  6381                           
  6382  0041                     ___flmul:	
  6383                           ;psect for function ___flmul
  6384                           
  6385  0041                     i1l2384:	
  6386                           ;incstack = 0
  6387                           ; Regs used in ___flmul: [wreg+status,2+status,0+btemp+1+pclath+cstack]
  6388                           
  6389  0041  1283               	bcf	3,5	;RP0=0, select bank0
  6390  0042  1303               	bcf	3,6	;RP1=0, select bank0
  6391  0043  0841               	movf	___flmul@b+3,w
  6392  0044  3980               	andlw	128
  6393  0045  00C6               	movwf	??___flmul
  6394  0046  0846               	movf	??___flmul,w
  6395  0047  00CB               	movwf	___flmul@sign
  6396  0048                     i1l2386:
  6397  0048  0841               	movf	___flmul@b+3,w
  6398  0049  00C6               	movwf	??___flmul
  6399  004A  0746               	addwf	??___flmul,w
  6400  004B  00C7               	movwf	??___flmul+1
  6401  004C  0847               	movf	??___flmul+1,w
  6402  004D  00D1               	movwf	___flmul@bexp
  6403  004E                     i1l2388:
  6404  004E  1FC0               	btfss	___flmul@b+2,7
  6405  004F  2851               	goto	u264_21
  6406  0050  2852               	goto	u264_20
  6407  0051                     u264_21:
  6408  0051  2853               	goto	i1l2392
  6409  0052                     u264_20:
  6410  0052                     i1l2390:
  6411  0052  1451               	bsf	___flmul@bexp,0
  6412  0053                     i1l2392:
  6413  0053  0851               	movf	___flmul@bexp,w
  6414  0054  1903               	btfsc	3,2
  6415  0055  2857               	goto	u265_21
  6416  0056  2858               	goto	u265_20
  6417  0057                     u265_21:
  6418  0057  2867               	goto	i1l2400
  6419  0058                     u265_20:
  6420  0058                     i1l2394:
  6421  0058  0A51               	incf	___flmul@bexp,w
  6422  0059  1D03               	btfss	3,2
  6423  005A  285C               	goto	u266_21
  6424  005B  285D               	goto	u266_20
  6425  005C                     u266_21:
  6426  005C  2865               	goto	i1l2398
  6427  005D                     u266_20:
  6428  005D                     i1l2396:
  6429  005D  3000               	movlw	0
  6430  005E  00C1               	movwf	___flmul@b+3
  6431  005F  3000               	movlw	0
  6432  0060  00C0               	movwf	___flmul@b+2
  6433  0061  3000               	movlw	0
  6434  0062  00BF               	movwf	___flmul@b+1
  6435  0063  3000               	movlw	0
  6436  0064  00BE               	movwf	___flmul@b
  6437  0065                     i1l2398:
  6438  0065  17C0               	bsf	___flmul@b+2,7
  6439  0066  286F               	goto	i1l2402
  6440  0067                     i1l2400:
  6441  0067  3000               	movlw	0
  6442  0068  00C1               	movwf	___flmul@b+3
  6443  0069  3000               	movlw	0
  6444  006A  00C0               	movwf	___flmul@b+2
  6445  006B  3000               	movlw	0
  6446  006C  00BF               	movwf	___flmul@b+1
  6447  006D  3000               	movlw	0
  6448  006E  00BE               	movwf	___flmul@b
  6449  006F                     i1l2402:
  6450  006F  0845               	movf	___flmul@a+3,w
  6451  0070  3980               	andlw	128
  6452  0071  00C6               	movwf	??___flmul
  6453  0072  0846               	movf	??___flmul,w
  6454  0073  06CB               	xorwf	___flmul@sign,f
  6455  0074                     i1l2404:
  6456  0074  0845               	movf	___flmul@a+3,w
  6457  0075  00C6               	movwf	??___flmul
  6458  0076  0746               	addwf	??___flmul,w
  6459  0077  00C7               	movwf	??___flmul+1
  6460  0078  0847               	movf	??___flmul+1,w
  6461  0079  00D0               	movwf	___flmul@aexp
  6462  007A                     i1l2406:
  6463  007A  1FC4               	btfss	___flmul@a+2,7
  6464  007B  287D               	goto	u267_21
  6465  007C  287E               	goto	u267_20
  6466  007D                     u267_21:
  6467  007D  287F               	goto	i1l2410
  6468  007E                     u267_20:
  6469  007E                     i1l2408:
  6470  007E  1450               	bsf	___flmul@aexp,0
  6471  007F                     i1l2410:
  6472  007F  0850               	movf	___flmul@aexp,w
  6473  0080  1903               	btfsc	3,2
  6474  0081  2883               	goto	u268_21
  6475  0082  2884               	goto	u268_20
  6476  0083                     u268_21:
  6477  0083  2893               	goto	i1l2418
  6478  0084                     u268_20:
  6479  0084                     i1l2412:
  6480  0084  0A50               	incf	___flmul@aexp,w
  6481  0085  1D03               	btfss	3,2
  6482  0086  2888               	goto	u269_21
  6483  0087  2889               	goto	u269_20
  6484  0088                     u269_21:
  6485  0088  2891               	goto	i1l2416
  6486  0089                     u269_20:
  6487  0089                     i1l2414:
  6488  0089  3000               	movlw	0
  6489  008A  00C5               	movwf	___flmul@a+3
  6490  008B  3000               	movlw	0
  6491  008C  00C4               	movwf	___flmul@a+2
  6492  008D  3000               	movlw	0
  6493  008E  00C3               	movwf	___flmul@a+1
  6494  008F  3000               	movlw	0
  6495  0090  00C2               	movwf	___flmul@a
  6496  0091                     i1l2416:
  6497  0091  17C4               	bsf	___flmul@a+2,7
  6498  0092  289B               	goto	i1l2420
  6499  0093                     i1l2418:
  6500  0093  3000               	movlw	0
  6501  0094  00C5               	movwf	___flmul@a+3
  6502  0095  3000               	movlw	0
  6503  0096  00C4               	movwf	___flmul@a+2
  6504  0097  3000               	movlw	0
  6505  0098  00C3               	movwf	___flmul@a+1
  6506  0099  3000               	movlw	0
  6507  009A  00C2               	movwf	___flmul@a
  6508  009B                     i1l2420:
  6509  009B  0850               	movf	___flmul@aexp,w
  6510  009C  1903               	btfsc	3,2
  6511  009D  289F               	goto	u270_21
  6512  009E  28A0               	goto	u270_20
  6513  009F                     u270_21:
  6514  009F  28A5               	goto	i1l2424
  6515  00A0                     u270_20:
  6516  00A0                     i1l2422:
  6517  00A0  0851               	movf	___flmul@bexp,w
  6518  00A1  1D03               	btfss	3,2
  6519  00A2  28A4               	goto	u271_21
  6520  00A3  28A5               	goto	u271_20
  6521  00A4                     u271_21:
  6522  00A4  28AE               	goto	i1l2428
  6523  00A5                     u271_20:
  6524  00A5                     i1l2424:
  6525  00A5  3000               	movlw	0
  6526  00A6  00C1               	movwf	?___flmul+3
  6527  00A7  3000               	movlw	0
  6528  00A8  00C0               	movwf	?___flmul+2
  6529  00A9  3000               	movlw	0
  6530  00AA  00BF               	movwf	?___flmul+1
  6531  00AB  3000               	movlw	0
  6532  00AC  00BE               	movwf	?___flmul
  6533  00AD  2BA1               	goto	i1l717
  6534  00AE                     i1l2428:
  6535  00AE  083E               	movf	___flmul@b,w
  6536  00AF  00C6               	movwf	??___flmul
  6537  00B0  0846               	movf	??___flmul,w
  6538  00B1  00F0               	movwf	__Umul8_16@multiplicand
  6539  00B2  0844               	movf	___flmul@a+2,w
  6540  00B3  160A  118A  22A6  120A  118A  	fcall	__Umul8_16
  6541  00B8  0871               	movf	?__Umul8_16+1,w
  6542  00B9  1283               	bcf	3,5	;RP0=0, select bank0
  6543  00BA  1303               	bcf	3,6	;RP1=0, select bank0
  6544  00BB  00D7               	movwf	___flmul@temp+1
  6545  00BC  0870               	movf	?__Umul8_16,w
  6546  00BD  00D6               	movwf	___flmul@temp
  6547  00BE                     i1l2430:
  6548  00BE  0856               	movf	___flmul@temp,w
  6549  00BF  00C6               	movwf	??___flmul
  6550  00C0  01C7               	clrf	??___flmul+1
  6551  00C1  01C8               	clrf	??___flmul+2
  6552  00C2  01C9               	clrf	??___flmul+3
  6553  00C3  0849               	movf	??___flmul+3,w
  6554  00C4  00CF               	movwf	___flmul@grs+3
  6555  00C5  0848               	movf	??___flmul+2,w
  6556  00C6  00CE               	movwf	___flmul@grs+2
  6557  00C7  0847               	movf	??___flmul+1,w
  6558  00C8  00CD               	movwf	___flmul@grs+1
  6559  00C9  0846               	movf	??___flmul,w
  6560  00CA  00CC               	movwf	___flmul@grs
  6561  00CB                     i1l2432:
  6562  00CB  0857               	movf	___flmul@temp+1,w
  6563  00CC  00C6               	movwf	??___flmul
  6564  00CD  01C7               	clrf	??___flmul+1
  6565  00CE  01C8               	clrf	??___flmul+2
  6566  00CF  01C9               	clrf	??___flmul+3
  6567  00D0  0849               	movf	??___flmul+3,w
  6568  00D1  00D5               	movwf	___flmul@prod+3
  6569  00D2  0848               	movf	??___flmul+2,w
  6570  00D3  00D4               	movwf	___flmul@prod+2
  6571  00D4  0847               	movf	??___flmul+1,w
  6572  00D5  00D3               	movwf	___flmul@prod+1
  6573  00D6  0846               	movf	??___flmul,w
  6574  00D7  00D2               	movwf	___flmul@prod
  6575  00D8  083F               	movf	___flmul@b+1,w
  6576  00D9  00C6               	movwf	??___flmul
  6577  00DA  0846               	movf	??___flmul,w
  6578  00DB  00F0               	movwf	__Umul8_16@multiplicand
  6579  00DC  0843               	movf	___flmul@a+1,w
  6580  00DD  160A  118A  22A6  120A  118A  	fcall	__Umul8_16
  6581  00E2  0871               	movf	?__Umul8_16+1,w
  6582  00E3  1283               	bcf	3,5	;RP0=0, select bank0
  6583  00E4  1303               	bcf	3,6	;RP1=0, select bank0
  6584  00E5  00D7               	movwf	___flmul@temp+1
  6585  00E6  0870               	movf	?__Umul8_16,w
  6586  00E7  00D6               	movwf	___flmul@temp
  6587  00E8                     i1l2434:
  6588  00E8  0856               	movf	___flmul@temp,w
  6589  00E9  00C6               	movwf	??___flmul
  6590  00EA  01C7               	clrf	??___flmul+1
  6591  00EB  01C8               	clrf	??___flmul+2
  6592  00EC  01C9               	clrf	??___flmul+3
  6593  00ED  0846               	movf	??___flmul,w
  6594  00EE  07CC               	addwf	___flmul@grs,f
  6595  00EF  0847               	movf	??___flmul+1,w
  6596  00F0  1103               	clrz
  6597  00F1  1803               	skipnc
  6598  00F2  3E01               	addlw	1
  6599  00F3  1903               	skipnz
  6600  00F4  28F6               	goto	u272_21
  6601  00F5  07CD               	addwf	___flmul@grs+1,f
  6602  00F6                     u272_21:
  6603  00F6  0848               	movf	??___flmul+2,w
  6604  00F7  1103               	clrz
  6605  00F8  1803               	skipnc
  6606  00F9  3E01               	addlw	1
  6607  00FA  1903               	skipnz
  6608  00FB  28FD               	goto	u272_22
  6609  00FC  07CE               	addwf	___flmul@grs+2,f
  6610  00FD                     u272_22:
  6611  00FD  0849               	movf	??___flmul+3,w
  6612  00FE  1103               	clrz
  6613  00FF  1803               	skipnc
  6614  0100  3E01               	addlw	1
  6615  0101  1903               	skipnz
  6616  0102  2904               	goto	u272_23
  6617  0103  07CF               	addwf	___flmul@grs+3,f
  6618  0104                     u272_23:
  6619  0104                     i1l2436:
  6620  0104  0857               	movf	___flmul@temp+1,w
  6621  0105  00C6               	movwf	??___flmul
  6622  0106  01C7               	clrf	??___flmul+1
  6623  0107  01C8               	clrf	??___flmul+2
  6624  0108  01C9               	clrf	??___flmul+3
  6625  0109  0846               	movf	??___flmul,w
  6626  010A  07D2               	addwf	___flmul@prod,f
  6627  010B  0847               	movf	??___flmul+1,w
  6628  010C  1103               	clrz
  6629  010D  1803               	skipnc
  6630  010E  3E01               	addlw	1
  6631  010F  1903               	skipnz
  6632  0110  2912               	goto	u273_21
  6633  0111  07D3               	addwf	___flmul@prod+1,f
  6634  0112                     u273_21:
  6635  0112  0848               	movf	??___flmul+2,w
  6636  0113  1103               	clrz
  6637  0114  1803               	skipnc
  6638  0115  3E01               	addlw	1
  6639  0116  1903               	skipnz
  6640  0117  2919               	goto	u273_22
  6641  0118  07D4               	addwf	___flmul@prod+2,f
  6642  0119                     u273_22:
  6643  0119  0849               	movf	??___flmul+3,w
  6644  011A  1103               	clrz
  6645  011B  1803               	skipnc
  6646  011C  3E01               	addlw	1
  6647  011D  1903               	skipnz
  6648  011E  2920               	goto	u273_23
  6649  011F  07D5               	addwf	___flmul@prod+3,f
  6650  0120                     u273_23:
  6651  0120  0840               	movf	___flmul@b+2,w
  6652  0121  00C6               	movwf	??___flmul
  6653  0122  0846               	movf	??___flmul,w
  6654  0123  00F0               	movwf	__Umul8_16@multiplicand
  6655  0124  0842               	movf	___flmul@a,w
  6656  0125  160A  118A  22A6  120A  118A  	fcall	__Umul8_16
  6657  012A  0871               	movf	?__Umul8_16+1,w
  6658  012B  1283               	bcf	3,5	;RP0=0, select bank0
  6659  012C  1303               	bcf	3,6	;RP1=0, select bank0
  6660  012D  00D7               	movwf	___flmul@temp+1
  6661  012E  0870               	movf	?__Umul8_16,w
  6662  012F  00D6               	movwf	___flmul@temp
  6663  0130                     i1l2438:
  6664  0130  0856               	movf	___flmul@temp,w
  6665  0131  00C6               	movwf	??___flmul
  6666  0132  01C7               	clrf	??___flmul+1
  6667  0133  01C8               	clrf	??___flmul+2
  6668  0134  01C9               	clrf	??___flmul+3
  6669  0135  0846               	movf	??___flmul,w
  6670  0136  07CC               	addwf	___flmul@grs,f
  6671  0137  0847               	movf	??___flmul+1,w
  6672  0138  1103               	clrz
  6673  0139  1803               	skipnc
  6674  013A  3E01               	addlw	1
  6675  013B  1903               	skipnz
  6676  013C  293E               	goto	u274_21
  6677  013D  07CD               	addwf	___flmul@grs+1,f
  6678  013E                     u274_21:
  6679  013E  0848               	movf	??___flmul+2,w
  6680  013F  1103               	clrz
  6681  0140  1803               	skipnc
  6682  0141  3E01               	addlw	1
  6683  0142  1903               	skipnz
  6684  0143  2945               	goto	u274_22
  6685  0144  07CE               	addwf	___flmul@grs+2,f
  6686  0145                     u274_22:
  6687  0145  0849               	movf	??___flmul+3,w
  6688  0146  1103               	clrz
  6689  0147  1803               	skipnc
  6690  0148  3E01               	addlw	1
  6691  0149  1903               	skipnz
  6692  014A  294C               	goto	u274_23
  6693  014B  07CF               	addwf	___flmul@grs+3,f
  6694  014C                     u274_23:
  6695  014C                     i1l2440:
  6696  014C  0857               	movf	___flmul@temp+1,w
  6697  014D  00C6               	movwf	??___flmul
  6698  014E  01C7               	clrf	??___flmul+1
  6699  014F  01C8               	clrf	??___flmul+2
  6700  0150  01C9               	clrf	??___flmul+3
  6701  0151  0846               	movf	??___flmul,w
  6702  0152  07D2               	addwf	___flmul@prod,f
  6703  0153  0847               	movf	??___flmul+1,w
  6704  0154  1103               	clrz
  6705  0155  1803               	skipnc
  6706  0156  3E01               	addlw	1
  6707  0157  1903               	skipnz
  6708  0158  295A               	goto	u275_21
  6709  0159  07D3               	addwf	___flmul@prod+1,f
  6710  015A                     u275_21:
  6711  015A  0848               	movf	??___flmul+2,w
  6712  015B  1103               	clrz
  6713  015C  1803               	skipnc
  6714  015D  3E01               	addlw	1
  6715  015E  1903               	skipnz
  6716  015F  2961               	goto	u275_22
  6717  0160  07D4               	addwf	___flmul@prod+2,f
  6718  0161                     u275_22:
  6719  0161  0849               	movf	??___flmul+3,w
  6720  0162  1103               	clrz
  6721  0163  1803               	skipnc
  6722  0164  3E01               	addlw	1
  6723  0165  1903               	skipnz
  6724  0166  2968               	goto	u275_23
  6725  0167  07D5               	addwf	___flmul@prod+3,f
  6726  0168                     u275_23:
  6727  0168                     i1l2442:
  6728  0168  3008               	movlw	8
  6729  0169  00C6               	movwf	??___flmul
  6730  016A                     u276_25:
  6731  016A  1003               	clrc
  6732  016B  0DCC               	rlf	___flmul@grs,f
  6733  016C  0DCD               	rlf	___flmul@grs+1,f
  6734  016D  0DCE               	rlf	___flmul@grs+2,f
  6735  016E  0DCF               	rlf	___flmul@grs+3,f
  6736  016F  0BC6               	decfsz	??___flmul,f
  6737  0170  296A               	goto	u276_25
  6738  0171                     i1l2444:
  6739  0171  083F               	movf	___flmul@b+1,w
  6740  0172  00C6               	movwf	??___flmul
  6741  0173  0846               	movf	??___flmul,w
  6742  0174  00F0               	movwf	__Umul8_16@multiplicand
  6743  0175  0842               	movf	___flmul@a,w
  6744  0176  160A  118A  22A6  120A  118A  	fcall	__Umul8_16
  6745  017B  0871               	movf	?__Umul8_16+1,w
  6746  017C  1283               	bcf	3,5	;RP0=0, select bank0
  6747  017D  1303               	bcf	3,6	;RP1=0, select bank0
  6748  017E  00D7               	movwf	___flmul@temp+1
  6749  017F  0870               	movf	?__Umul8_16,w
  6750  0180  00D6               	movwf	___flmul@temp
  6751  0181                     i1l2446:
  6752  0181  0856               	movf	___flmul@temp,w
  6753  0182  00C6               	movwf	??___flmul
  6754  0183  0857               	movf	___flmul@temp+1,w
  6755  0184  00C7               	movwf	??___flmul+1
  6756  0185  01C8               	clrf	??___flmul+2
  6757  0186  01C9               	clrf	??___flmul+3
  6758  0187  0846               	movf	??___flmul,w
  6759  0188  07CC               	addwf	___flmul@grs,f
  6760  0189  0847               	movf	??___flmul+1,w
  6761  018A  1103               	clrz
  6762  018B  1803               	skipnc
  6763  018C  3E01               	addlw	1
  6764  018D  1903               	skipnz
  6765  018E  2990               	goto	u277_21
  6766  018F  07CD               	addwf	___flmul@grs+1,f
  6767  0190                     u277_21:
  6768  0190  0848               	movf	??___flmul+2,w
  6769  0191  1103               	clrz
  6770  0192  1803               	skipnc
  6771  0193  3E01               	addlw	1
  6772  0194  1903               	skipnz
  6773  0195  2997               	goto	u277_22
  6774  0196  07CE               	addwf	___flmul@grs+2,f
  6775  0197                     u277_22:
  6776  0197  0849               	movf	??___flmul+3,w
  6777  0198  1103               	clrz
  6778  0199  1803               	skipnc
  6779  019A  3E01               	addlw	1
  6780  019B  1903               	skipnz
  6781  019C  299E               	goto	u277_23
  6782  019D  07CF               	addwf	___flmul@grs+3,f
  6783  019E                     u277_23:
  6784  019E                     i1l2448:
  6785  019E  083E               	movf	___flmul@b,w
  6786  019F  00C6               	movwf	??___flmul
  6787  01A0  0846               	movf	??___flmul,w
  6788  01A1  00F0               	movwf	__Umul8_16@multiplicand
  6789  01A2  0843               	movf	___flmul@a+1,w
  6790  01A3  160A  118A  22A6  120A  118A  	fcall	__Umul8_16
  6791  01A8  0871               	movf	?__Umul8_16+1,w
  6792  01A9  1283               	bcf	3,5	;RP0=0, select bank0
  6793  01AA  1303               	bcf	3,6	;RP1=0, select bank0
  6794  01AB  00D7               	movwf	___flmul@temp+1
  6795  01AC  0870               	movf	?__Umul8_16,w
  6796  01AD  00D6               	movwf	___flmul@temp
  6797  01AE                     i1l2450:
  6798  01AE  0856               	movf	___flmul@temp,w
  6799  01AF  00C6               	movwf	??___flmul
  6800  01B0  0857               	movf	___flmul@temp+1,w
  6801  01B1  00C7               	movwf	??___flmul+1
  6802  01B2  01C8               	clrf	??___flmul+2
  6803  01B3  01C9               	clrf	??___flmul+3
  6804  01B4  0846               	movf	??___flmul,w
  6805  01B5  07CC               	addwf	___flmul@grs,f
  6806  01B6  0847               	movf	??___flmul+1,w
  6807  01B7  1103               	clrz
  6808  01B8  1803               	skipnc
  6809  01B9  3E01               	addlw	1
  6810  01BA  1903               	skipnz
  6811  01BB  29BD               	goto	u278_21
  6812  01BC  07CD               	addwf	___flmul@grs+1,f
  6813  01BD                     u278_21:
  6814  01BD  0848               	movf	??___flmul+2,w
  6815  01BE  1103               	clrz
  6816  01BF  1803               	skipnc
  6817  01C0  3E01               	addlw	1
  6818  01C1  1903               	skipnz
  6819  01C2  29C4               	goto	u278_22
  6820  01C3  07CE               	addwf	___flmul@grs+2,f
  6821  01C4                     u278_22:
  6822  01C4  0849               	movf	??___flmul+3,w
  6823  01C5  1103               	clrz
  6824  01C6  1803               	skipnc
  6825  01C7  3E01               	addlw	1
  6826  01C8  1903               	skipnz
  6827  01C9  29CB               	goto	u278_23
  6828  01CA  07CF               	addwf	___flmul@grs+3,f
  6829  01CB                     u278_23:
  6830  01CB                     i1l2452:
  6831  01CB  3008               	movlw	8
  6832  01CC  00C6               	movwf	??___flmul
  6833  01CD                     u279_25:
  6834  01CD  1003               	clrc
  6835  01CE  0DCC               	rlf	___flmul@grs,f
  6836  01CF  0DCD               	rlf	___flmul@grs+1,f
  6837  01D0  0DCE               	rlf	___flmul@grs+2,f
  6838  01D1  0DCF               	rlf	___flmul@grs+3,f
  6839  01D2  0BC6               	decfsz	??___flmul,f
  6840  01D3  29CD               	goto	u279_25
  6841  01D4  083E               	movf	___flmul@b,w
  6842  01D5  00C6               	movwf	??___flmul
  6843  01D6  0846               	movf	??___flmul,w
  6844  01D7  00F0               	movwf	__Umul8_16@multiplicand
  6845  01D8  0842               	movf	___flmul@a,w
  6846  01D9  160A  118A  22A6  120A  118A  	fcall	__Umul8_16
  6847  01DE  0871               	movf	?__Umul8_16+1,w
  6848  01DF  1283               	bcf	3,5	;RP0=0, select bank0
  6849  01E0  1303               	bcf	3,6	;RP1=0, select bank0
  6850  01E1  00D7               	movwf	___flmul@temp+1
  6851  01E2  0870               	movf	?__Umul8_16,w
  6852  01E3  00D6               	movwf	___flmul@temp
  6853  01E4                     i1l2454:
  6854  01E4  0856               	movf	___flmul@temp,w
  6855  01E5  00C6               	movwf	??___flmul
  6856  01E6  0857               	movf	___flmul@temp+1,w
  6857  01E7  00C7               	movwf	??___flmul+1
  6858  01E8  01C8               	clrf	??___flmul+2
  6859  01E9  01C9               	clrf	??___flmul+3
  6860  01EA  0846               	movf	??___flmul,w
  6861  01EB  07CC               	addwf	___flmul@grs,f
  6862  01EC  0847               	movf	??___flmul+1,w
  6863  01ED  1103               	clrz
  6864  01EE  1803               	skipnc
  6865  01EF  3E01               	addlw	1
  6866  01F0  1903               	skipnz
  6867  01F1  29F3               	goto	u280_21
  6868  01F2  07CD               	addwf	___flmul@grs+1,f
  6869  01F3                     u280_21:
  6870  01F3  0848               	movf	??___flmul+2,w
  6871  01F4  1103               	clrz
  6872  01F5  1803               	skipnc
  6873  01F6  3E01               	addlw	1
  6874  01F7  1903               	skipnz
  6875  01F8  29FA               	goto	u280_22
  6876  01F9  07CE               	addwf	___flmul@grs+2,f
  6877  01FA                     u280_22:
  6878  01FA  0849               	movf	??___flmul+3,w
  6879  01FB  1103               	clrz
  6880  01FC  1803               	skipnc
  6881  01FD  3E01               	addlw	1
  6882  01FE  1903               	skipnz
  6883  01FF  2A01               	goto	u280_23
  6884  0200  07CF               	addwf	___flmul@grs+3,f
  6885  0201                     u280_23:
  6886  0201                     i1l2456:
  6887  0201  083F               	movf	___flmul@b+1,w
  6888  0202  00C6               	movwf	??___flmul
  6889  0203  0846               	movf	??___flmul,w
  6890  0204  00F0               	movwf	__Umul8_16@multiplicand
  6891  0205  0844               	movf	___flmul@a+2,w
  6892  0206  160A  118A  22A6  120A  118A  	fcall	__Umul8_16
  6893  020B  0871               	movf	?__Umul8_16+1,w
  6894  020C  1283               	bcf	3,5	;RP0=0, select bank0
  6895  020D  1303               	bcf	3,6	;RP1=0, select bank0
  6896  020E  00D7               	movwf	___flmul@temp+1
  6897  020F  0870               	movf	?__Umul8_16,w
  6898  0210  00D6               	movwf	___flmul@temp
  6899  0211  0856               	movf	___flmul@temp,w
  6900  0212  00C6               	movwf	??___flmul
  6901  0213  0857               	movf	___flmul@temp+1,w
  6902  0214  00C7               	movwf	??___flmul+1
  6903  0215  01C8               	clrf	??___flmul+2
  6904  0216  01C9               	clrf	??___flmul+3
  6905  0217  0846               	movf	??___flmul,w
  6906  0218  07D2               	addwf	___flmul@prod,f
  6907  0219  0847               	movf	??___flmul+1,w
  6908  021A  1103               	clrz
  6909  021B  1803               	skipnc
  6910  021C  3E01               	addlw	1
  6911  021D  1903               	skipnz
  6912  021E  2A20               	goto	u281_21
  6913  021F  07D3               	addwf	___flmul@prod+1,f
  6914  0220                     u281_21:
  6915  0220  0848               	movf	??___flmul+2,w
  6916  0221  1103               	clrz
  6917  0222  1803               	skipnc
  6918  0223  3E01               	addlw	1
  6919  0224  1903               	skipnz
  6920  0225  2A27               	goto	u281_22
  6921  0226  07D4               	addwf	___flmul@prod+2,f
  6922  0227                     u281_22:
  6923  0227  0849               	movf	??___flmul+3,w
  6924  0228  1103               	clrz
  6925  0229  1803               	skipnc
  6926  022A  3E01               	addlw	1
  6927  022B  1903               	skipnz
  6928  022C  2A2E               	goto	u281_23
  6929  022D  07D5               	addwf	___flmul@prod+3,f
  6930  022E                     u281_23:
  6931  022E                     i1l2458:
  6932  022E  0840               	movf	___flmul@b+2,w
  6933  022F  00C6               	movwf	??___flmul
  6934  0230  0846               	movf	??___flmul,w
  6935  0231  00F0               	movwf	__Umul8_16@multiplicand
  6936  0232  0843               	movf	___flmul@a+1,w
  6937  0233  160A  118A  22A6  120A  118A  	fcall	__Umul8_16
  6938  0238  0871               	movf	?__Umul8_16+1,w
  6939  0239  1283               	bcf	3,5	;RP0=0, select bank0
  6940  023A  1303               	bcf	3,6	;RP1=0, select bank0
  6941  023B  00D7               	movwf	___flmul@temp+1
  6942  023C  0870               	movf	?__Umul8_16,w
  6943  023D  00D6               	movwf	___flmul@temp
  6944  023E                     i1l2460:
  6945  023E  0856               	movf	___flmul@temp,w
  6946  023F  00C6               	movwf	??___flmul
  6947  0240  0857               	movf	___flmul@temp+1,w
  6948  0241  00C7               	movwf	??___flmul+1
  6949  0242  01C8               	clrf	??___flmul+2
  6950  0243  01C9               	clrf	??___flmul+3
  6951  0244  0846               	movf	??___flmul,w
  6952  0245  07D2               	addwf	___flmul@prod,f
  6953  0246  0847               	movf	??___flmul+1,w
  6954  0247  1103               	clrz
  6955  0248  1803               	skipnc
  6956  0249  3E01               	addlw	1
  6957  024A  1903               	skipnz
  6958  024B  2A4D               	goto	u282_21
  6959  024C  07D3               	addwf	___flmul@prod+1,f
  6960  024D                     u282_21:
  6961  024D  0848               	movf	??___flmul+2,w
  6962  024E  1103               	clrz
  6963  024F  1803               	skipnc
  6964  0250  3E01               	addlw	1
  6965  0251  1903               	skipnz
  6966  0252  2A54               	goto	u282_22
  6967  0253  07D4               	addwf	___flmul@prod+2,f
  6968  0254                     u282_22:
  6969  0254  0849               	movf	??___flmul+3,w
  6970  0255  1103               	clrz
  6971  0256  1803               	skipnc
  6972  0257  3E01               	addlw	1
  6973  0258  1903               	skipnz
  6974  0259  2A5B               	goto	u282_23
  6975  025A  07D5               	addwf	___flmul@prod+3,f
  6976  025B                     u282_23:
  6977  025B  0840               	movf	___flmul@b+2,w
  6978  025C  00C6               	movwf	??___flmul
  6979  025D  0846               	movf	??___flmul,w
  6980  025E  00F0               	movwf	__Umul8_16@multiplicand
  6981  025F  0844               	movf	___flmul@a+2,w
  6982  0260  160A  118A  22A6  120A  118A  	fcall	__Umul8_16
  6983  0265  0871               	movf	?__Umul8_16+1,w
  6984  0266  1283               	bcf	3,5	;RP0=0, select bank0
  6985  0267  1303               	bcf	3,6	;RP1=0, select bank0
  6986  0268  00D7               	movwf	___flmul@temp+1
  6987  0269  0870               	movf	?__Umul8_16,w
  6988  026A  00D6               	movwf	___flmul@temp
  6989  026B                     i1l2462:
  6990  026B  0856               	movf	___flmul@temp,w
  6991  026C  00C6               	movwf	??___flmul
  6992  026D  0857               	movf	___flmul@temp+1,w
  6993  026E  00C7               	movwf	??___flmul+1
  6994  026F  01C8               	clrf	??___flmul+2
  6995  0270  01C9               	clrf	??___flmul+3
  6996  0271  3008               	movlw	8
  6997  0272                     u283_25:
  6998  0272  1003               	clrc
  6999  0273  0DC6               	rlf	??___flmul,f
  7000  0274  0DC7               	rlf	??___flmul+1,f
  7001  0275  0DC8               	rlf	??___flmul+2,f
  7002  0276  0DC9               	rlf	??___flmul+3,f
  7003  0277                     u283_20:
  7004  0277  3EFF               	addlw	-1
  7005  0278  1D03               	skipz
  7006  0279  2A72               	goto	u283_25
  7007  027A  0846               	movf	??___flmul,w
  7008  027B  07D2               	addwf	___flmul@prod,f
  7009  027C  0847               	movf	??___flmul+1,w
  7010  027D  1103               	clrz
  7011  027E  1803               	skipnc
  7012  027F  3E01               	addlw	1
  7013  0280  1903               	skipnz
  7014  0281  2A83               	goto	u284_21
  7015  0282  07D3               	addwf	___flmul@prod+1,f
  7016  0283                     u284_21:
  7017  0283  0848               	movf	??___flmul+2,w
  7018  0284  1103               	clrz
  7019  0285  1803               	skipnc
  7020  0286  3E01               	addlw	1
  7021  0287  1903               	skipnz
  7022  0288  2A8A               	goto	u284_22
  7023  0289  07D4               	addwf	___flmul@prod+2,f
  7024  028A                     u284_22:
  7025  028A  0849               	movf	??___flmul+3,w
  7026  028B  1103               	clrz
  7027  028C  1803               	skipnc
  7028  028D  3E01               	addlw	1
  7029  028E  1903               	skipnz
  7030  028F  2A91               	goto	u284_23
  7031  0290  07D5               	addwf	___flmul@prod+3,f
  7032  0291                     u284_23:
  7033  0291                     i1l2464:
  7034  0291  084C               	movf	___flmul@grs,w
  7035  0292  00C6               	movwf	??___flmul
  7036  0293  084D               	movf	___flmul@grs+1,w
  7037  0294  00C7               	movwf	??___flmul+1
  7038  0295  084E               	movf	___flmul@grs+2,w
  7039  0296  00C8               	movwf	??___flmul+2
  7040  0297  084F               	movf	___flmul@grs+3,w
  7041  0298  00C9               	movwf	??___flmul+3
  7042  0299  3018               	movlw	24
  7043  029A                     u285_25:
  7044  029A  1003               	clrc
  7045  029B  0CC9               	rrf	??___flmul+3,f
  7046  029C  0CC8               	rrf	??___flmul+2,f
  7047  029D  0CC7               	rrf	??___flmul+1,f
  7048  029E  0CC6               	rrf	??___flmul,f
  7049  029F                     u285_20:
  7050  029F  3EFF               	addlw	-1
  7051  02A0  1D03               	skipz
  7052  02A1  2A9A               	goto	u285_25
  7053  02A2  0846               	movf	??___flmul,w
  7054  02A3  07D2               	addwf	___flmul@prod,f
  7055  02A4  0847               	movf	??___flmul+1,w
  7056  02A5  1103               	clrz
  7057  02A6  1803               	skipnc
  7058  02A7  3E01               	addlw	1
  7059  02A8  1903               	skipnz
  7060  02A9  2AAB               	goto	u286_21
  7061  02AA  07D3               	addwf	___flmul@prod+1,f
  7062  02AB                     u286_21:
  7063  02AB  0848               	movf	??___flmul+2,w
  7064  02AC  1103               	clrz
  7065  02AD  1803               	skipnc
  7066  02AE  3E01               	addlw	1
  7067  02AF  1903               	skipnz
  7068  02B0  2AB2               	goto	u286_22
  7069  02B1  07D4               	addwf	___flmul@prod+2,f
  7070  02B2                     u286_22:
  7071  02B2  0849               	movf	??___flmul+3,w
  7072  02B3  1103               	clrz
  7073  02B4  1803               	skipnc
  7074  02B5  3E01               	addlw	1
  7075  02B6  1903               	skipnz
  7076  02B7  2AB9               	goto	u286_23
  7077  02B8  07D5               	addwf	___flmul@prod+3,f
  7078  02B9                     u286_23:
  7079  02B9                     i1l2466:
  7080  02B9  3008               	movlw	8
  7081  02BA  00C6               	movwf	??___flmul
  7082  02BB                     u287_25:
  7083  02BB  1003               	clrc
  7084  02BC  0DCC               	rlf	___flmul@grs,f
  7085  02BD  0DCD               	rlf	___flmul@grs+1,f
  7086  02BE  0DCE               	rlf	___flmul@grs+2,f
  7087  02BF  0DCF               	rlf	___flmul@grs+3,f
  7088  02C0  0BC6               	decfsz	??___flmul,f
  7089  02C1  2ABB               	goto	u287_25
  7090  02C2                     i1l2468:
  7091  02C2  0851               	movf	___flmul@bexp,w
  7092  02C3  0750               	addwf	___flmul@aexp,w
  7093  02C4  00C6               	movwf	??___flmul
  7094  02C5  01C7               	clrf	??___flmul+1
  7095  02C6  0DC7               	rlf	??___flmul+1,f
  7096  02C7  0846               	movf	??___flmul,w
  7097  02C8  3E82               	addlw	130
  7098  02C9  00D6               	movwf	___flmul@temp
  7099  02CA  0847               	movf	??___flmul+1,w
  7100  02CB  1803               	skipnc
  7101  02CC  3E01               	addlw	1
  7102  02CD  3EFF               	addlw	255
  7103  02CE  00D7               	movwf	___flmul@temp+1
  7104  02CF  2AED               	goto	i1l2480
  7105  02D0                     i1l2470:
  7106  02D0  3001               	movlw	1
  7107  02D1  00C6               	movwf	??___flmul
  7108  02D2                     u288_25:
  7109  02D2  1003               	clrc
  7110  02D3  0DD2               	rlf	___flmul@prod,f
  7111  02D4  0DD3               	rlf	___flmul@prod+1,f
  7112  02D5  0DD4               	rlf	___flmul@prod+2,f
  7113  02D6  0DD5               	rlf	___flmul@prod+3,f
  7114  02D7  0BC6               	decfsz	??___flmul,f
  7115  02D8  2AD2               	goto	u288_25
  7116  02D9                     i1l2472:
  7117  02D9  1FCF               	btfss	___flmul@grs+3,7
  7118  02DA  2ADC               	goto	u289_21
  7119  02DB  2ADD               	goto	u289_20
  7120  02DC                     u289_21:
  7121  02DC  2ADE               	goto	i1l2476
  7122  02DD                     u289_20:
  7123  02DD                     i1l2474:
  7124  02DD  1452               	bsf	___flmul@prod,0
  7125  02DE                     i1l2476:
  7126  02DE  3001               	movlw	1
  7127  02DF  00C6               	movwf	??___flmul
  7128  02E0                     u290_25:
  7129  02E0  1003               	clrc
  7130  02E1  0DCC               	rlf	___flmul@grs,f
  7131  02E2  0DCD               	rlf	___flmul@grs+1,f
  7132  02E3  0DCE               	rlf	___flmul@grs+2,f
  7133  02E4  0DCF               	rlf	___flmul@grs+3,f
  7134  02E5  0BC6               	decfsz	??___flmul,f
  7135  02E6  2AE0               	goto	u290_25
  7136  02E7                     i1l2478:
  7137  02E7  30FF               	movlw	255
  7138  02E8  07D6               	addwf	___flmul@temp,f
  7139  02E9  1803               	skipnc
  7140  02EA  0AD7               	incf	___flmul@temp+1,f
  7141  02EB  30FF               	movlw	255
  7142  02EC  07D7               	addwf	___flmul@temp+1,f
  7143  02ED                     i1l2480:
  7144  02ED  1FD4               	btfss	___flmul@prod+2,7
  7145  02EE  2AF0               	goto	u291_21
  7146  02EF  2AF1               	goto	u291_20
  7147  02F0                     u291_21:
  7148  02F0  2AD0               	goto	i1l2470
  7149  02F1                     u291_20:
  7150  02F1                     i1l2482:
  7151  02F1  01D0               	clrf	___flmul@aexp
  7152  02F2                     i1l2484:
  7153  02F2  1FCF               	btfss	___flmul@grs+3,7
  7154  02F3  2AF5               	goto	u292_21
  7155  02F4  2AF6               	goto	u292_20
  7156  02F5                     u292_21:
  7157  02F5  2B12               	goto	i1l2492
  7158  02F6                     u292_20:
  7159  02F6                     i1l2486:
  7160  02F6  30FF               	movlw	255
  7161  02F7  054C               	andwf	___flmul@grs,w
  7162  02F8  00C6               	movwf	??___flmul
  7163  02F9  30FF               	movlw	255
  7164  02FA  054D               	andwf	___flmul@grs+1,w
  7165  02FB  00C7               	movwf	??___flmul+1
  7166  02FC  30FF               	movlw	255
  7167  02FD  054E               	andwf	___flmul@grs+2,w
  7168  02FE  00C8               	movwf	??___flmul+2
  7169  02FF  307F               	movlw	127
  7170  0300  054F               	andwf	___flmul@grs+3,w
  7171  0301  00C9               	movwf	??___flmul+3
  7172  0302  0849               	movf	??___flmul+3,w
  7173  0303  0448               	iorwf	??___flmul+2,w
  7174  0304  0447               	iorwf	??___flmul+1,w
  7175  0305  0446               	iorwf	??___flmul,w
  7176  0306  1903               	skipnz
  7177  0307  2B09               	goto	u293_21
  7178  0308  2B0A               	goto	u293_20
  7179  0309                     u293_21:
  7180  0309  2B0D               	goto	i1l723
  7181  030A                     u293_20:
  7182  030A                     i1l2488:
  7183  030A  01D0               	clrf	___flmul@aexp
  7184  030B  0AD0               	incf	___flmul@aexp,f
  7185  030C  2B12               	goto	i1l2492
  7186  030D                     i1l723:
  7187  030D  1C52               	btfss	___flmul@prod,0
  7188  030E  2B10               	goto	u294_21
  7189  030F  2B11               	goto	u294_20
  7190  0310                     u294_21:
  7191  0310  2B12               	goto	i1l2492
  7192  0311                     u294_20:
  7193  0311  2B0A               	goto	i1l2488
  7194  0312                     i1l2492:
  7195  0312  0850               	movf	___flmul@aexp,w
  7196  0313  1903               	btfsc	3,2
  7197  0314  2B16               	goto	u295_21
  7198  0315  2B17               	goto	u295_20
  7199  0316                     u295_21:
  7200  0316  2B48               	goto	i1l2502
  7201  0317                     u295_20:
  7202  0317                     i1l2494:
  7203  0317  3001               	movlw	1
  7204  0318  07D2               	addwf	___flmul@prod,f
  7205  0319  3000               	movlw	0
  7206  031A  1803               	skipnc
  7207  031B  3001               	movlw	1
  7208  031C  07D3               	addwf	___flmul@prod+1,f
  7209  031D  3000               	movlw	0
  7210  031E  1803               	skipnc
  7211  031F  3001               	movlw	1
  7212  0320  07D4               	addwf	___flmul@prod+2,f
  7213  0321  3000               	movlw	0
  7214  0322  1803               	skipnc
  7215  0323  3001               	movlw	1
  7216  0324  07D5               	addwf	___flmul@prod+3,f
  7217  0325                     i1l2496:
  7218  0325  1C55               	btfss	___flmul@prod+3,0
  7219  0326  2B28               	goto	u296_21
  7220  0327  2B29               	goto	u296_20
  7221  0328                     u296_21:
  7222  0328  2B48               	goto	i1l2502
  7223  0329                     u296_20:
  7224  0329                     i1l2498:
  7225  0329  0852               	movf	___flmul@prod,w
  7226  032A  00C6               	movwf	??___flmul
  7227  032B  0853               	movf	___flmul@prod+1,w
  7228  032C  00C7               	movwf	??___flmul+1
  7229  032D  0854               	movf	___flmul@prod+2,w
  7230  032E  00C8               	movwf	??___flmul+2
  7231  032F  0855               	movf	___flmul@prod+3,w
  7232  0330  00C9               	movwf	??___flmul+3
  7233  0331  3001               	movlw	1
  7234  0332  00CA               	movwf	??___flmul+4
  7235  0333                     u297_25:
  7236  0333  0D49               	rlf	??___flmul+3,w
  7237  0334  0CC9               	rrf	??___flmul+3,f
  7238  0335  0CC8               	rrf	??___flmul+2,f
  7239  0336  0CC7               	rrf	??___flmul+1,f
  7240  0337  0CC6               	rrf	??___flmul,f
  7241  0338                     u297_20:
  7242  0338  0BCA               	decfsz	??___flmul+4,f
  7243  0339  2B33               	goto	u297_25
  7244  033A  0849               	movf	??___flmul+3,w
  7245  033B  00D5               	movwf	___flmul@prod+3
  7246  033C  0848               	movf	??___flmul+2,w
  7247  033D  00D4               	movwf	___flmul@prod+2
  7248  033E  0847               	movf	??___flmul+1,w
  7249  033F  00D3               	movwf	___flmul@prod+1
  7250  0340  0846               	movf	??___flmul,w
  7251  0341  00D2               	movwf	___flmul@prod
  7252  0342                     i1l2500:
  7253  0342  3001               	movlw	1
  7254  0343  07D6               	addwf	___flmul@temp,f
  7255  0344  1803               	skipnc
  7256  0345  0AD7               	incf	___flmul@temp+1,f
  7257  0346  3000               	movlw	0
  7258  0347  07D7               	addwf	___flmul@temp+1,f
  7259  0348                     i1l2502:
  7260  0348  0857               	movf	___flmul@temp+1,w
  7261  0349  3A80               	xorlw	128
  7262  034A  00FF               	movwf	btemp+1
  7263  034B  3080               	movlw	128
  7264  034C  027F               	subwf	btemp+1,w
  7265  034D  1D03               	skipz
  7266  034E  2B51               	goto	u298_25
  7267  034F  30FF               	movlw	255
  7268  0350  0256               	subwf	___flmul@temp,w
  7269  0351                     u298_25:
  7270  0351  1C03               	skipc
  7271  0352  2B54               	goto	u298_21
  7272  0353  2B55               	goto	u298_20
  7273  0354                     u298_21:
  7274  0354  2B60               	goto	i1l2506
  7275  0355                     u298_20:
  7276  0355                     i1l2504:
  7277  0355  307F               	movlw	127
  7278  0356  1283               	bcf	3,5	;RP0=0, select bank0
  7279  0357  1303               	bcf	3,6	;RP1=0, select bank0
  7280  0358  00D5               	movwf	___flmul@prod+3
  7281  0359  3080               	movlw	128
  7282  035A  00D4               	movwf	___flmul@prod+2
  7283  035B  3000               	movlw	0
  7284  035C  00D3               	movwf	___flmul@prod+1
  7285  035D  3000               	movlw	0
  7286  035E  00D2               	movwf	___flmul@prod
  7287  035F  2B95               	goto	i1l729
  7288  0360                     i1l2506:
  7289  0360  1283               	bcf	3,5	;RP0=0, select bank0
  7290  0361  1303               	bcf	3,6	;RP1=0, select bank0
  7291  0362  0857               	movf	___flmul@temp+1,w
  7292  0363  3A80               	xorlw	128
  7293  0364  00FF               	movwf	btemp+1
  7294  0365  3080               	movlw	128
  7295  0366  027F               	subwf	btemp+1,w
  7296  0367  1D03               	skipz
  7297  0368  2B6B               	goto	u299_25
  7298  0369  3001               	movlw	1
  7299  036A  0256               	subwf	___flmul@temp,w
  7300  036B                     u299_25:
  7301  036B  1803               	skipnc
  7302  036C  2B6E               	goto	u299_21
  7303  036D  2B6F               	goto	u299_20
  7304  036E                     u299_21:
  7305  036E  2B7B               	goto	i1l2512
  7306  036F                     u299_20:
  7307  036F                     i1l2508:
  7308  036F  3000               	movlw	0
  7309  0370  1283               	bcf	3,5	;RP0=0, select bank0
  7310  0371  1303               	bcf	3,6	;RP1=0, select bank0
  7311  0372  00D5               	movwf	___flmul@prod+3
  7312  0373  3000               	movlw	0
  7313  0374  00D4               	movwf	___flmul@prod+2
  7314  0375  3000               	movlw	0
  7315  0376  00D3               	movwf	___flmul@prod+1
  7316  0377  3000               	movlw	0
  7317  0378  00D2               	movwf	___flmul@prod
  7318  0379                     i1l2510:
  7319  0379  01CB               	clrf	___flmul@sign
  7320  037A  2B95               	goto	i1l729
  7321  037B                     i1l2512:
  7322  037B  1283               	bcf	3,5	;RP0=0, select bank0
  7323  037C  1303               	bcf	3,6	;RP1=0, select bank0
  7324  037D  0856               	movf	___flmul@temp,w
  7325  037E  00C6               	movwf	??___flmul
  7326  037F  0846               	movf	??___flmul,w
  7327  0380  00D1               	movwf	___flmul@bexp
  7328  0381  30FF               	movlw	255
  7329  0382  05D2               	andwf	___flmul@prod,f
  7330  0383  30FF               	movlw	255
  7331  0384  05D3               	andwf	___flmul@prod+1,f
  7332  0385  307F               	movlw	127
  7333  0386  05D4               	andwf	___flmul@prod+2,f
  7334  0387  3000               	movlw	0
  7335  0388  05D5               	andwf	___flmul@prod+3,f
  7336  0389                     i1l2514:
  7337  0389  1C51               	btfss	___flmul@bexp,0
  7338  038A  2B8C               	goto	u300_21
  7339  038B  2B8D               	goto	u300_20
  7340  038C                     u300_21:
  7341  038C  2B8E               	goto	i1l2518
  7342  038D                     u300_20:
  7343  038D                     i1l2516:
  7344  038D  17D4               	bsf	___flmul@prod+2,7
  7345  038E                     i1l2518:
  7346  038E  0851               	movf	___flmul@bexp,w
  7347  038F  00C6               	movwf	??___flmul
  7348  0390  1003               	clrc
  7349  0391  0C46               	rrf	??___flmul,w
  7350  0392  00C7               	movwf	??___flmul+1
  7351  0393  0847               	movf	??___flmul+1,w
  7352  0394  00D5               	movwf	___flmul@prod+3
  7353  0395                     i1l729:
  7354  0395  084B               	movf	___flmul@sign,w
  7355  0396  00C6               	movwf	??___flmul
  7356  0397  0846               	movf	??___flmul,w
  7357  0398  04D5               	iorwf	___flmul@prod+3,f
  7358  0399                     i1l2520:
  7359  0399  0855               	movf	___flmul@prod+3,w
  7360  039A  00C1               	movwf	?___flmul+3
  7361  039B  0854               	movf	___flmul@prod+2,w
  7362  039C  00C0               	movwf	?___flmul+2
  7363  039D  0853               	movf	___flmul@prod+1,w
  7364  039E  00BF               	movwf	?___flmul+1
  7365  039F  0852               	movf	___flmul@prod,w
  7366  03A0  00BE               	movwf	?___flmul
  7367  03A1                     i1l717:
  7368  03A1  0008               	return
  7369  03A2                     __end_of___flmul:
  7370                           
  7371                           	psect	text22
  7372  12A6                     __ptext22:	
  7373 ;; *************** function __Umul8_16 *****************
  7374 ;; Defined at:
  7375 ;;		line 4 in file "C:\Program Files\Microchip\xc8\v2.35\pic\sources\c90\common\Umul8_16.c"
  7376 ;; Parameters:    Size  Location     Type
  7377 ;;  multiplier      1    wreg     unsigned char 
  7378 ;;  multiplicand    1    0[COMMON] unsigned char 
  7379 ;; Auto vars:     Size  Location     Type
  7380 ;;  multiplier      1    8[COMMON] unsigned char 
  7381 ;;  word_mpld       2    6[COMMON] unsigned int 
  7382 ;;  product         2    4[COMMON] unsigned int 
  7383 ;; Return value:  Size  Location     Type
  7384 ;;                  2    0[COMMON] unsigned int 
  7385 ;; Registers used:
  7386 ;;		wreg, status,2, status,0
  7387 ;; Tracked objects:
  7388 ;;		On entry : 0/0
  7389 ;;		On exit  : 0/0
  7390 ;;		Unchanged: 0/0
  7391 ;; Data sizes:     COMMON   BANK0   BANK1   BANK3   BANK2
  7392 ;;      Params:         2       0       0       0       0
  7393 ;;      Locals:         5       0       0       0       0
  7394 ;;      Temps:          2       0       0       0       0
  7395 ;;      Totals:         9       0       0       0       0
  7396 ;;Total ram usage:        9 bytes
  7397 ;; Hardware stack levels used: 1
  7398 ;; This function calls:
  7399 ;;		Nothing
  7400 ;; This function is called by:
  7401 ;;		___flmul
  7402 ;; This function uses a non-reentrant model
  7403 ;;
  7404                           
  7405  12A6                     __Umul8_16:	
  7406                           ;psect for function __Umul8_16
  7407                           
  7408                           
  7409                           ;incstack = 0
  7410                           ; Regs used in __Umul8_16: [wreg+status,2+status,0]
  7411                           ;__Umul8_16@multiplier stored from wreg
  7412  12A6  00F8               	movwf	__Umul8_16@multiplier
  7413  12A7                     i1l2140:
  7414  12A7  01F4               	clrf	__Umul8_16@product
  7415  12A8  01F5               	clrf	__Umul8_16@product+1
  7416  12A9                     i1l2142:
  7417  12A9  0870               	movf	__Umul8_16@multiplicand,w
  7418  12AA  00F2               	movwf	??__Umul8_16
  7419  12AB  01F3               	clrf	??__Umul8_16+1
  7420  12AC  0872               	movf	??__Umul8_16,w
  7421  12AD  00F6               	movwf	__Umul8_16@word_mpld
  7422  12AE  0873               	movf	??__Umul8_16+1,w
  7423  12AF  00F7               	movwf	__Umul8_16@word_mpld+1
  7424  12B0                     i1l2144:
  7425  12B0  1C78               	btfss	__Umul8_16@multiplier,0
  7426  12B1  2AB3               	goto	u205_21
  7427  12B2  2AB4               	goto	u205_20
  7428  12B3                     u205_21:
  7429  12B3  2ABA               	goto	i1l736
  7430  12B4                     u205_20:
  7431  12B4                     i1l2146:
  7432  12B4  0876               	movf	__Umul8_16@word_mpld,w
  7433  12B5  07F4               	addwf	__Umul8_16@product,f
  7434  12B6  1803               	skipnc
  7435  12B7  0AF5               	incf	__Umul8_16@product+1,f
  7436  12B8  0877               	movf	__Umul8_16@word_mpld+1,w
  7437  12B9  07F5               	addwf	__Umul8_16@product+1,f
  7438  12BA                     i1l736:
  7439  12BA  3001               	movlw	1
  7440  12BB                     u206_25:
  7441  12BB  1003               	clrc
  7442  12BC  0DF6               	rlf	__Umul8_16@word_mpld,f
  7443  12BD  0DF7               	rlf	__Umul8_16@word_mpld+1,f
  7444  12BE  3EFF               	addlw	-1
  7445  12BF  1D03               	skipz
  7446  12C0  2ABB               	goto	u206_25
  7447  12C1  1003               	clrc
  7448  12C2  0CF8               	rrf	__Umul8_16@multiplier,f
  7449  12C3                     i1l2148:
  7450  12C3  0878               	movf	__Umul8_16@multiplier,w
  7451  12C4  1D03               	btfss	3,2
  7452  12C5  2AC7               	goto	u207_21
  7453  12C6  2AC8               	goto	u207_20
  7454  12C7                     u207_21:
  7455  12C7  2AB0               	goto	i1l2144
  7456  12C8                     u207_20:
  7457  12C8                     i1l2150:
  7458  12C8  0875               	movf	__Umul8_16@product+1,w
  7459  12C9  00F1               	movwf	?__Umul8_16+1
  7460  12CA  0874               	movf	__Umul8_16@product,w
  7461  12CB  00F0               	movwf	?__Umul8_16
  7462  12CC                     i1l738:
  7463  12CC  0008               	return
  7464  12CD                     __end_of__Umul8_16:
  7465                           
  7466                           	psect	text23
  7467  0A1C                     __ptext23:	
  7468 ;; *************** function ___xxtofl *****************
  7469 ;; Defined at:
  7470 ;;		line 10 in file "C:\Program Files\Microchip\xc8\v2.35\pic\sources\c90\common\xxtofl.c"
  7471 ;; Parameters:    Size  Location     Type
  7472 ;;  sign            1    wreg     unsigned char 
  7473 ;;  val             4    9[COMMON] long 
  7474 ;; Auto vars:     Size  Location     Type
  7475 ;;  sign            1    4[BANK0 ] unsigned char 
  7476 ;;  arg             4    6[BANK0 ] unsigned long 
  7477 ;;  exp             1    5[BANK0 ] unsigned char 
  7478 ;; Return value:  Size  Location     Type
  7479 ;;                  4    9[COMMON] unsigned char 
  7480 ;; Registers used:
  7481 ;;		wreg, status,2, status,0
  7482 ;; Tracked objects:
  7483 ;;		On entry : 0/0
  7484 ;;		On exit  : 0/0
  7485 ;;		Unchanged: 0/0
  7486 ;; Data sizes:     COMMON   BANK0   BANK1   BANK3   BANK2
  7487 ;;      Params:         4       0       0       0       0
  7488 ;;      Locals:         0       6       0       0       0
  7489 ;;      Temps:          0       4       0       0       0
  7490 ;;      Totals:         4      10       0       0       0
  7491 ;;Total ram usage:       14 bytes
  7492 ;; Hardware stack levels used: 1
  7493 ;; This function calls:
  7494 ;;		Nothing
  7495 ;; This function is called by:
  7496 ;;		_slave
  7497 ;;		_map
  7498 ;;		_log
  7499 ;; This function uses a non-reentrant model
  7500 ;;
  7501                           
  7502  0A1C                     ___xxtofl:	
  7503                           ;psect for function ___xxtofl
  7504                           
  7505                           
  7506                           ;incstack = 0
  7507                           ; Regs used in ___xxtofl: [wreg+status,2+status,0]
  7508                           ;___xxtofl@sign stored from wreg
  7509  0A1C  1283               	bcf	3,5	;RP0=0, select bank0
  7510  0A1D  1303               	bcf	3,6	;RP1=0, select bank0
  7511  0A1E  00A4               	movwf	___xxtofl@sign
  7512  0A1F                     i1l2800:
  7513  0A1F  0824               	movf	___xxtofl@sign,w
  7514  0A20  1903               	btfsc	3,2
  7515  0A21  2A23               	goto	u343_21
  7516  0A22  2A24               	goto	u343_20
  7517  0A23                     u343_21:
  7518  0A23  2A38               	goto	i1l2806
  7519  0A24                     u343_20:
  7520  0A24                     i1l2802:
  7521  0A24  1FFC               	btfss	___xxtofl@val+3,7
  7522  0A25  2A27               	goto	u344_21
  7523  0A26  2A28               	goto	u344_20
  7524  0A27                     u344_21:
  7525  0A27  2A38               	goto	i1l2806
  7526  0A28                     u344_20:
  7527  0A28                     i1l2804:
  7528  0A28  0979               	comf	___xxtofl@val,w
  7529  0A29  00A6               	movwf	___xxtofl@arg
  7530  0A2A  097A               	comf	___xxtofl@val+1,w
  7531  0A2B  00A7               	movwf	___xxtofl@arg+1
  7532  0A2C  097B               	comf	___xxtofl@val+2,w
  7533  0A2D  00A8               	movwf	___xxtofl@arg+2
  7534  0A2E  097C               	comf	___xxtofl@val+3,w
  7535  0A2F  00A9               	movwf	___xxtofl@arg+3
  7536  0A30  0AA6               	incf	___xxtofl@arg,f
  7537  0A31  1903               	skipnz
  7538  0A32  0AA7               	incf	___xxtofl@arg+1,f
  7539  0A33  1903               	skipnz
  7540  0A34  0AA8               	incf	___xxtofl@arg+2,f
  7541  0A35  1903               	skipnz
  7542  0A36  0AA9               	incf	___xxtofl@arg+3,f
  7543  0A37  2A40               	goto	i1l761
  7544  0A38                     i1l2806:
  7545  0A38  087C               	movf	___xxtofl@val+3,w
  7546  0A39  00A9               	movwf	___xxtofl@arg+3
  7547  0A3A  087B               	movf	___xxtofl@val+2,w
  7548  0A3B  00A8               	movwf	___xxtofl@arg+2
  7549  0A3C  087A               	movf	___xxtofl@val+1,w
  7550  0A3D  00A7               	movwf	___xxtofl@arg+1
  7551  0A3E  0879               	movf	___xxtofl@val,w
  7552  0A3F  00A6               	movwf	___xxtofl@arg
  7553  0A40                     i1l761:
  7554  0A40  087C               	movf	___xxtofl@val+3,w
  7555  0A41  047B               	iorwf	___xxtofl@val+2,w
  7556  0A42  047A               	iorwf	___xxtofl@val+1,w
  7557  0A43  0479               	iorwf	___xxtofl@val,w
  7558  0A44  1D03               	skipz
  7559  0A45  2A47               	goto	u345_21
  7560  0A46  2A48               	goto	u345_20
  7561  0A47                     u345_21:
  7562  0A47  2A51               	goto	i1l2812
  7563  0A48                     u345_20:
  7564  0A48                     i1l2808:
  7565  0A48  3000               	movlw	0
  7566  0A49  00FC               	movwf	?___xxtofl+3
  7567  0A4A  3000               	movlw	0
  7568  0A4B  00FB               	movwf	?___xxtofl+2
  7569  0A4C  3000               	movlw	0
  7570  0A4D  00FA               	movwf	?___xxtofl+1
  7571  0A4E  3000               	movlw	0
  7572  0A4F  00F9               	movwf	?___xxtofl
  7573  0A50  2AD7               	goto	i1l763
  7574  0A51                     i1l2812:
  7575  0A51  3096               	movlw	150
  7576  0A52  00A0               	movwf	??___xxtofl
  7577  0A53  0820               	movf	??___xxtofl,w
  7578  0A54  00A5               	movwf	___xxtofl@exp
  7579  0A55  2A63               	goto	i1l2816
  7580  0A56                     i1l2814:
  7581  0A56  3001               	movlw	1
  7582  0A57  00A0               	movwf	??___xxtofl
  7583  0A58  0820               	movf	??___xxtofl,w
  7584  0A59  07A5               	addwf	___xxtofl@exp,f
  7585  0A5A  3001               	movlw	1
  7586  0A5B                     u346_25:
  7587  0A5B  1003               	clrc
  7588  0A5C  0CA9               	rrf	___xxtofl@arg+3,f
  7589  0A5D  0CA8               	rrf	___xxtofl@arg+2,f
  7590  0A5E  0CA7               	rrf	___xxtofl@arg+1,f
  7591  0A5F  0CA6               	rrf	___xxtofl@arg,f
  7592  0A60  3EFF               	addlw	-1
  7593  0A61  1D03               	skipz
  7594  0A62  2A5B               	goto	u346_25
  7595  0A63                     i1l2816:
  7596  0A63  30FE               	movlw	254
  7597  0A64  0529               	andwf	___xxtofl@arg+3,w
  7598  0A65  1D03               	btfss	3,2
  7599  0A66  2A68               	goto	u347_21
  7600  0A67  2A69               	goto	u347_20
  7601  0A68                     u347_21:
  7602  0A68  2A56               	goto	i1l2814
  7603  0A69                     u347_20:
  7604  0A69  2A85               	goto	i1l767
  7605  0A6A                     i1l2818:
  7606  0A6A  3001               	movlw	1
  7607  0A6B  00A0               	movwf	??___xxtofl
  7608  0A6C  0820               	movf	??___xxtofl,w
  7609  0A6D  07A5               	addwf	___xxtofl@exp,f
  7610  0A6E                     i1l2820:
  7611  0A6E  3001               	movlw	1
  7612  0A6F  07A6               	addwf	___xxtofl@arg,f
  7613  0A70  3000               	movlw	0
  7614  0A71  1803               	skipnc
  7615  0A72  3001               	movlw	1
  7616  0A73  07A7               	addwf	___xxtofl@arg+1,f
  7617  0A74  3000               	movlw	0
  7618  0A75  1803               	skipnc
  7619  0A76  3001               	movlw	1
  7620  0A77  07A8               	addwf	___xxtofl@arg+2,f
  7621  0A78  3000               	movlw	0
  7622  0A79  1803               	skipnc
  7623  0A7A  3001               	movlw	1
  7624  0A7B  07A9               	addwf	___xxtofl@arg+3,f
  7625  0A7C                     i1l2822:
  7626  0A7C  3001               	movlw	1
  7627  0A7D                     u348_25:
  7628  0A7D  1003               	clrc
  7629  0A7E  0CA9               	rrf	___xxtofl@arg+3,f
  7630  0A7F  0CA8               	rrf	___xxtofl@arg+2,f
  7631  0A80  0CA7               	rrf	___xxtofl@arg+1,f
  7632  0A81  0CA6               	rrf	___xxtofl@arg,f
  7633  0A82  3EFF               	addlw	-1
  7634  0A83  1D03               	skipz
  7635  0A84  2A7D               	goto	u348_25
  7636  0A85                     i1l767:
  7637  0A85  30FF               	movlw	255
  7638  0A86  0529               	andwf	___xxtofl@arg+3,w
  7639  0A87  1D03               	btfss	3,2
  7640  0A88  2A8A               	goto	u349_21
  7641  0A89  2A8B               	goto	u349_20
  7642  0A8A                     u349_21:
  7643  0A8A  2A6A               	goto	i1l2818
  7644  0A8B                     u349_20:
  7645  0A8B  2A97               	goto	i1l2826
  7646  0A8C                     i1l2824:
  7647  0A8C  3001               	movlw	1
  7648  0A8D  02A5               	subwf	___xxtofl@exp,f
  7649  0A8E  3001               	movlw	1
  7650  0A8F  00A0               	movwf	??___xxtofl
  7651  0A90                     u350_25:
  7652  0A90  1003               	clrc
  7653  0A91  0DA6               	rlf	___xxtofl@arg,f
  7654  0A92  0DA7               	rlf	___xxtofl@arg+1,f
  7655  0A93  0DA8               	rlf	___xxtofl@arg+2,f
  7656  0A94  0DA9               	rlf	___xxtofl@arg+3,f
  7657  0A95  0BA0               	decfsz	??___xxtofl,f
  7658  0A96  2A90               	goto	u350_25
  7659  0A97                     i1l2826:
  7660  0A97  1BA8               	btfsc	___xxtofl@arg+2,7
  7661  0A98  2A9A               	goto	u351_21
  7662  0A99  2A9B               	goto	u351_20
  7663  0A9A                     u351_21:
  7664  0A9A  2AA1               	goto	i1l774
  7665  0A9B                     u351_20:
  7666  0A9B                     i1l2828:
  7667  0A9B  3002               	movlw	2
  7668  0A9C  0225               	subwf	___xxtofl@exp,w
  7669  0A9D  1803               	skipnc
  7670  0A9E  2AA0               	goto	u352_21
  7671  0A9F  2AA1               	goto	u352_20
  7672  0AA0                     u352_21:
  7673  0AA0  2A8C               	goto	i1l2824
  7674  0AA1                     u352_20:
  7675  0AA1                     i1l774:
  7676  0AA1  1825               	btfsc	___xxtofl@exp,0
  7677  0AA2  2AA4               	goto	u353_21
  7678  0AA3  2AA5               	goto	u353_20
  7679  0AA4                     u353_21:
  7680  0AA4  2AAD               	goto	i1l775
  7681  0AA5                     u353_20:
  7682  0AA5                     i1l2830:
  7683  0AA5  30FF               	movlw	255
  7684  0AA6  05A6               	andwf	___xxtofl@arg,f
  7685  0AA7  30FF               	movlw	255
  7686  0AA8  05A7               	andwf	___xxtofl@arg+1,f
  7687  0AA9  307F               	movlw	127
  7688  0AAA  05A8               	andwf	___xxtofl@arg+2,f
  7689  0AAB  30FF               	movlw	255
  7690  0AAC  05A9               	andwf	___xxtofl@arg+3,f
  7691  0AAD                     i1l775:
  7692  0AAD  1003               	clrc
  7693  0AAE  0CA5               	rrf	___xxtofl@exp,f
  7694  0AAF                     i1l2832:
  7695  0AAF  0825               	movf	___xxtofl@exp,w
  7696  0AB0  00A0               	movwf	??___xxtofl
  7697  0AB1  01A1               	clrf	??___xxtofl+1
  7698  0AB2  01A2               	clrf	??___xxtofl+2
  7699  0AB3  01A3               	clrf	??___xxtofl+3
  7700  0AB4  3018               	movlw	24
  7701  0AB5                     u354_25:
  7702  0AB5  1003               	clrc
  7703  0AB6  0DA0               	rlf	??___xxtofl,f
  7704  0AB7  0DA1               	rlf	??___xxtofl+1,f
  7705  0AB8  0DA2               	rlf	??___xxtofl+2,f
  7706  0AB9  0DA3               	rlf	??___xxtofl+3,f
  7707  0ABA                     u354_20:
  7708  0ABA  3EFF               	addlw	-1
  7709  0ABB  1D03               	skipz
  7710  0ABC  2AB5               	goto	u354_25
  7711  0ABD  0820               	movf	??___xxtofl,w
  7712  0ABE  04A6               	iorwf	___xxtofl@arg,f
  7713  0ABF  0821               	movf	??___xxtofl+1,w
  7714  0AC0  04A7               	iorwf	___xxtofl@arg+1,f
  7715  0AC1  0822               	movf	??___xxtofl+2,w
  7716  0AC2  04A8               	iorwf	___xxtofl@arg+2,f
  7717  0AC3  0823               	movf	??___xxtofl+3,w
  7718  0AC4  04A9               	iorwf	___xxtofl@arg+3,f
  7719  0AC5                     i1l2834:
  7720  0AC5  0824               	movf	___xxtofl@sign,w
  7721  0AC6  1903               	btfsc	3,2
  7722  0AC7  2AC9               	goto	u355_21
  7723  0AC8  2ACA               	goto	u355_20
  7724  0AC9                     u355_21:
  7725  0AC9  2ACF               	goto	i1l2840
  7726  0ACA                     u355_20:
  7727  0ACA                     i1l2836:
  7728  0ACA  1FFC               	btfss	___xxtofl@val+3,7
  7729  0ACB  2ACD               	goto	u356_21
  7730  0ACC  2ACE               	goto	u356_20
  7731  0ACD                     u356_21:
  7732  0ACD  2ACF               	goto	i1l2840
  7733  0ACE                     u356_20:
  7734  0ACE                     i1l2838:
  7735  0ACE  17A9               	bsf	___xxtofl@arg+3,7
  7736  0ACF                     i1l2840:
  7737  0ACF  0829               	movf	___xxtofl@arg+3,w
  7738  0AD0  00FC               	movwf	?___xxtofl+3
  7739  0AD1  0828               	movf	___xxtofl@arg+2,w
  7740  0AD2  00FB               	movwf	?___xxtofl+2
  7741  0AD3  0827               	movf	___xxtofl@arg+1,w
  7742  0AD4  00FA               	movwf	?___xxtofl+1
  7743  0AD5  0826               	movf	___xxtofl@arg,w
  7744  0AD6  00F9               	movwf	?___xxtofl
  7745  0AD7                     i1l763:
  7746  0AD7  0008               	return
  7747  0AD8                     __end_of___xxtofl:
  7748                           
  7749                           	psect	text24
  7750  080A                     __ptext24:	
  7751 ;; *************** function ___flge *****************
  7752 ;; Defined at:
  7753 ;;		line 4 in file "C:\Program Files\Microchip\xc8\v2.35\pic\sources\c90\common\flge.c"
  7754 ;; Parameters:    Size  Location     Type
  7755 ;;  ff1             4    0[COMMON] unsigned char 
  7756 ;;  ff2             4    4[COMMON] unsigned char 
  7757 ;; Auto vars:     Size  Location     Type
  7758 ;;		None
  7759 ;; Return value:  Size  Location     Type
  7760 ;;		None               void
  7761 ;; Registers used:
  7762 ;;		wreg, status,2, status,0
  7763 ;; Tracked objects:
  7764 ;;		On entry : 0/0
  7765 ;;		On exit  : 0/0
  7766 ;;		Unchanged: 0/0
  7767 ;; Data sizes:     COMMON   BANK0   BANK1   BANK3   BANK2
  7768 ;;      Params:         8       0       0       0       0
  7769 ;;      Locals:         0       0       0       0       0
  7770 ;;      Temps:          4       0       0       0       0
  7771 ;;      Totals:        12       0       0       0       0
  7772 ;;Total ram usage:       12 bytes
  7773 ;; Hardware stack levels used: 1
  7774 ;; This function calls:
  7775 ;;		Nothing
  7776 ;; This function is called by:
  7777 ;;		_log
  7778 ;; This function uses a non-reentrant model
  7779 ;;
  7780                           
  7781  080A                     ___flge:	
  7782                           ;psect for function ___flge
  7783                           
  7784  080A                     i1l2638:	
  7785                           ;incstack = 0
  7786                           ; Regs used in ___flge: [wreg+status,2+status,0]
  7787                           
  7788  080A  3000               	movlw	0
  7789  080B  0570               	andwf	___flge@ff1,w
  7790  080C  00F8               	movwf	??___flge
  7791  080D  3000               	movlw	0
  7792  080E  0571               	andwf	___flge@ff1+1,w
  7793  080F  00F9               	movwf	??___flge+1
  7794  0810  3080               	movlw	128
  7795  0811  0572               	andwf	___flge@ff1+2,w
  7796  0812  00FA               	movwf	??___flge+2
  7797  0813  307F               	movlw	127
  7798  0814  0573               	andwf	___flge@ff1+3,w
  7799  0815  00FB               	movwf	??___flge+3
  7800  0816  087B               	movf	??___flge+3,w
  7801  0817  047A               	iorwf	??___flge+2,w
  7802  0818  0479               	iorwf	??___flge+1,w
  7803  0819  0478               	iorwf	??___flge,w
  7804  081A  1D03               	skipz
  7805  081B  281D               	goto	u306_21
  7806  081C  281E               	goto	u306_20
  7807  081D                     u306_21:
  7808  081D  2826               	goto	i1l502
  7809  081E                     u306_20:
  7810  081E                     i1l2640:
  7811  081E  3000               	movlw	0
  7812  081F  00F3               	movwf	___flge@ff1+3
  7813  0820  3000               	movlw	0
  7814  0821  00F2               	movwf	___flge@ff1+2
  7815  0822  3000               	movlw	0
  7816  0823  00F1               	movwf	___flge@ff1+1
  7817  0824  3000               	movlw	0
  7818  0825  00F0               	movwf	___flge@ff1
  7819  0826                     i1l502:
  7820  0826  3000               	movlw	0
  7821  0827  0574               	andwf	___flge@ff2,w
  7822  0828  00F8               	movwf	??___flge
  7823  0829  3000               	movlw	0
  7824  082A  0575               	andwf	___flge@ff2+1,w
  7825  082B  00F9               	movwf	??___flge+1
  7826  082C  3080               	movlw	128
  7827  082D  0576               	andwf	___flge@ff2+2,w
  7828  082E  00FA               	movwf	??___flge+2
  7829  082F  307F               	movlw	127
  7830  0830  0577               	andwf	___flge@ff2+3,w
  7831  0831  00FB               	movwf	??___flge+3
  7832  0832  087B               	movf	??___flge+3,w
  7833  0833  047A               	iorwf	??___flge+2,w
  7834  0834  0479               	iorwf	??___flge+1,w
  7835  0835  0478               	iorwf	??___flge,w
  7836  0836  1D03               	skipz
  7837  0837  2839               	goto	u307_21
  7838  0838  283A               	goto	u307_20
  7839  0839                     u307_21:
  7840  0839  2842               	goto	i1l2644
  7841  083A                     u307_20:
  7842  083A                     i1l2642:
  7843  083A  3000               	movlw	0
  7844  083B  00F7               	movwf	___flge@ff2+3
  7845  083C  3000               	movlw	0
  7846  083D  00F6               	movwf	___flge@ff2+2
  7847  083E  3000               	movlw	0
  7848  083F  00F5               	movwf	___flge@ff2+1
  7849  0840  3000               	movlw	0
  7850  0841  00F4               	movwf	___flge@ff2
  7851  0842                     i1l2644:
  7852  0842  1FF3               	btfss	___flge@ff1+3,7
  7853  0843  2845               	goto	u308_21
  7854  0844  2846               	goto	u308_20
  7855  0845                     u308_21:
  7856  0845  286A               	goto	i1l2648
  7857  0846                     u308_20:
  7858  0846                     i1l2646:
  7859  0846  3000               	movlw	0
  7860  0847  00F8               	movwf	??___flge
  7861  0848  3000               	movlw	0
  7862  0849  00F9               	movwf	??___flge+1
  7863  084A  3000               	movlw	0
  7864  084B  00FA               	movwf	??___flge+2
  7865  084C  3080               	movlw	128
  7866  084D  00FB               	movwf	??___flge+3
  7867  084E  0870               	movf	___flge@ff1,w
  7868  084F  02F8               	subwf	??___flge,f
  7869  0850  0871               	movf	___flge@ff1+1,w
  7870  0851  1C03               	skipc
  7871  0852  0F71               	incfsz	___flge@ff1+1,w
  7872  0853  2855               	goto	u309_21
  7873  0854  2856               	goto	u309_22
  7874  0855                     u309_21:
  7875  0855  02F9               	subwf	??___flge+1,f
  7876  0856                     u309_22:
  7877  0856  0872               	movf	___flge@ff1+2,w
  7878  0857  1C03               	skipc
  7879  0858  0F72               	incfsz	___flge@ff1+2,w
  7880  0859  285B               	goto	u309_23
  7881  085A  285C               	goto	u309_24
  7882  085B                     u309_23:
  7883  085B  02FA               	subwf	??___flge+2,f
  7884  085C                     u309_24:
  7885  085C  0873               	movf	___flge@ff1+3,w
  7886  085D  1C03               	skipc
  7887  085E  0F73               	incfsz	___flge@ff1+3,w
  7888  085F  2861               	goto	u309_25
  7889  0860  2862               	goto	u309_26
  7890  0861                     u309_25:
  7891  0861  02FB               	subwf	??___flge+3,f
  7892  0862                     u309_26:
  7893  0862  087B               	movf	??___flge+3,w
  7894  0863  00F3               	movwf	___flge@ff1+3
  7895  0864  087A               	movf	??___flge+2,w
  7896  0865  00F2               	movwf	___flge@ff1+2
  7897  0866  0879               	movf	??___flge+1,w
  7898  0867  00F1               	movwf	___flge@ff1+1
  7899  0868  0878               	movf	??___flge,w
  7900  0869  00F0               	movwf	___flge@ff1
  7901  086A                     i1l2648:
  7902  086A  1FF7               	btfss	___flge@ff2+3,7
  7903  086B  286D               	goto	u310_21
  7904  086C  286E               	goto	u310_20
  7905  086D                     u310_21:
  7906  086D  2892               	goto	i1l505
  7907  086E                     u310_20:
  7908  086E                     i1l2650:
  7909  086E  3000               	movlw	0
  7910  086F  00F8               	movwf	??___flge
  7911  0870  3000               	movlw	0
  7912  0871  00F9               	movwf	??___flge+1
  7913  0872  3000               	movlw	0
  7914  0873  00FA               	movwf	??___flge+2
  7915  0874  3080               	movlw	128
  7916  0875  00FB               	movwf	??___flge+3
  7917  0876  0874               	movf	___flge@ff2,w
  7918  0877  02F8               	subwf	??___flge,f
  7919  0878  0875               	movf	___flge@ff2+1,w
  7920  0879  1C03               	skipc
  7921  087A  0F75               	incfsz	___flge@ff2+1,w
  7922  087B  287D               	goto	u311_21
  7923  087C  287E               	goto	u311_22
  7924  087D                     u311_21:
  7925  087D  02F9               	subwf	??___flge+1,f
  7926  087E                     u311_22:
  7927  087E  0876               	movf	___flge@ff2+2,w
  7928  087F  1C03               	skipc
  7929  0880  0F76               	incfsz	___flge@ff2+2,w
  7930  0881  2883               	goto	u311_23
  7931  0882  2884               	goto	u311_24
  7932  0883                     u311_23:
  7933  0883  02FA               	subwf	??___flge+2,f
  7934  0884                     u311_24:
  7935  0884  0877               	movf	___flge@ff2+3,w
  7936  0885  1C03               	skipc
  7937  0886  0F77               	incfsz	___flge@ff2+3,w
  7938  0887  2889               	goto	u311_25
  7939  0888  288A               	goto	u311_26
  7940  0889                     u311_25:
  7941  0889  02FB               	subwf	??___flge+3,f
  7942  088A                     u311_26:
  7943  088A  087B               	movf	??___flge+3,w
  7944  088B  00F7               	movwf	___flge@ff2+3
  7945  088C  087A               	movf	??___flge+2,w
  7946  088D  00F6               	movwf	___flge@ff2+2
  7947  088E  0879               	movf	??___flge+1,w
  7948  088F  00F5               	movwf	___flge@ff2+1
  7949  0890  0878               	movf	??___flge,w
  7950  0891  00F4               	movwf	___flge@ff2
  7951  0892                     i1l505:
  7952  0892  3080               	movlw	128
  7953  0893  06F3               	xorwf	___flge@ff1+3,f
  7954  0894  3080               	movlw	128
  7955  0895  06F7               	xorwf	___flge@ff2+3,f
  7956  0896  0877               	movf	___flge@ff2+3,w
  7957  0897  0273               	subwf	___flge@ff1+3,w
  7958  0898  1D03               	skipz
  7959  0899  28A4               	goto	u312_25
  7960  089A  0876               	movf	___flge@ff2+2,w
  7961  089B  0272               	subwf	___flge@ff1+2,w
  7962  089C  1D03               	skipz
  7963  089D  28A4               	goto	u312_25
  7964  089E  0875               	movf	___flge@ff2+1,w
  7965  089F  0271               	subwf	___flge@ff1+1,w
  7966  08A0  1D03               	skipz
  7967  08A1  28A4               	goto	u312_25
  7968  08A2  0874               	movf	___flge@ff2,w
  7969  08A3  0270               	subwf	___flge@ff1,w
  7970  08A4                     u312_25:
  7971  08A4  1803               	skipnc
  7972  08A5  28A7               	goto	u312_21
  7973  08A6  28A8               	goto	u312_20
  7974  08A7                     u312_21:
  7975  08A7  28AA               	goto	i1l2654
  7976  08A8                     u312_20:
  7977  08A8                     i1l2652:
  7978  08A8  1003               	clrc
  7979  08A9  28AB               	goto	i1l506
  7980  08AA                     i1l2654:
  7981  08AA  1403               	setc
  7982  08AB                     i1l506:
  7983  08AB  0008               	return
  7984  08AC                     __end_of___flge:
  7985                           
  7986                           	psect	text25
  7987  07F5                     __ptext25:	
  7988 ;; *************** function _adc_read *****************
  7989 ;; Defined at:
  7990 ;;		line 66 in file "adc.c"
  7991 ;; Parameters:    Size  Location     Type
  7992 ;;		None
  7993 ;; Auto vars:     Size  Location     Type
  7994 ;;		None
  7995 ;; Return value:  Size  Location     Type
  7996 ;;                  2    0[COMMON] unsigned int 
  7997 ;; Registers used:
  7998 ;;		wreg
  7999 ;; Tracked objects:
  8000 ;;		On entry : 0/0
  8001 ;;		On exit  : 0/0
  8002 ;;		Unchanged: 0/0
  8003 ;; Data sizes:     COMMON   BANK0   BANK1   BANK3   BANK2
  8004 ;;      Params:         2       0       0       0       0
  8005 ;;      Locals:         0       0       0       0       0
  8006 ;;      Temps:          0       0       0       0       0
  8007 ;;      Totals:         2       0       0       0       0
  8008 ;;Total ram usage:        2 bytes
  8009 ;; Hardware stack levels used: 1
  8010 ;; This function calls:
  8011 ;;		Nothing
  8012 ;; This function is called by:
  8013 ;;		_slave
  8014 ;; This function uses a non-reentrant model
  8015 ;;
  8016                           
  8017  07F5                     _adc_read:	
  8018                           ;psect for function _adc_read
  8019                           
  8020  07F5                     i1l2910:	
  8021                           ;incstack = 0
  8022                           ; Regs used in _adc_read: [wreg]
  8023                           
  8024                           
  8025                           ;adc.c: 67:     PIR1bits.ADIF = 0;
  8026  07F5  1283               	bcf	3,5	;RP0=0, select bank0
  8027  07F6  1303               	bcf	3,6	;RP1=0, select bank0
  8028  07F7  130C               	bcf	12,6	;volatile
  8029  07F8                     i1l2912:
  8030                           
  8031                           ;adc.c: 68:     return ((ADRESH << 8) + ADRESL);
  8032  07F8  081E               	movf	30,w	;volatile
  8033  07F9  00F1               	movwf	?_adc_read+1
  8034  07FA  1683               	bsf	3,5	;RP0=1, select bank1
  8035  07FB  1303               	bcf	3,6	;RP1=0, select bank1
  8036  07FC  081E               	movf	30,w	;volatile
  8037  07FD  00F0               	movwf	?_adc_read
  8038  07FE                     i1l190:
  8039  07FE  0008               	return
  8040  07FF                     __end_of_adc_read:
  8041                           
  8042                           	psect	text26
  8043  13C7                     __ptext26:	
  8044 ;; *************** function ___lwdiv *****************
  8045 ;; Defined at:
  8046 ;;		line 5 in file "C:\Program Files\Microchip\xc8\v2.35\pic\sources\c90\common\lwdiv.c"
  8047 ;; Parameters:    Size  Location     Type
  8048 ;;  divisor         2    0[COMMON] unsigned int 
  8049 ;;  dividend        2    2[COMMON] unsigned int 
  8050 ;; Auto vars:     Size  Location     Type
  8051 ;;  quotient        2    5[COMMON] unsigned int 
  8052 ;;  counter         1    7[COMMON] unsigned char 
  8053 ;; Return value:  Size  Location     Type
  8054 ;;                  2    0[COMMON] unsigned int 
  8055 ;; Registers used:
  8056 ;;		wreg, status,2, status,0
  8057 ;; Tracked objects:
  8058 ;;		On entry : 0/0
  8059 ;;		On exit  : 0/0
  8060 ;;		Unchanged: 0/0
  8061 ;; Data sizes:     COMMON   BANK0   BANK1   BANK3   BANK2
  8062 ;;      Params:         4       0       0       0       0
  8063 ;;      Locals:         3       0       0       0       0
  8064 ;;      Temps:          1       0       0       0       0
  8065 ;;      Totals:         8       0       0       0       0
  8066 ;;Total ram usage:        8 bytes
  8067 ;; Hardware stack levels used: 1
  8068 ;; This function calls:
  8069 ;;		Nothing
  8070 ;; This function is called by:
  8071 ;;		_slave
  8072 ;; This function uses a non-reentrant model
  8073 ;;
  8074                           
  8075  13C7                     ___lwdiv:	
  8076                           ;psect for function ___lwdiv
  8077                           
  8078  13C7                     i1l3102:	
  8079                           ;incstack = 0
  8080                           ; Regs used in ___lwdiv: [wreg+status,2+status,0]
  8081                           
  8082  13C7  01F5               	clrf	___lwdiv@quotient
  8083  13C8  01F6               	clrf	___lwdiv@quotient+1
  8084  13C9                     i1l3104:
  8085  13C9  0870               	movf	___lwdiv@divisor,w
  8086  13CA  0471               	iorwf	___lwdiv@divisor+1,w
  8087  13CB  1903               	btfsc	3,2
  8088  13CC  2BCE               	goto	u397_21
  8089  13CD  2BCF               	goto	u397_20
  8090  13CE                     u397_21:
  8091  13CE  2C06               	goto	i1l3124
  8092  13CF                     u397_20:
  8093  13CF                     i1l3106:
  8094  13CF  01F7               	clrf	___lwdiv@counter
  8095  13D0  0AF7               	incf	___lwdiv@counter,f
  8096  13D1  2BDD               	goto	i1l3112
  8097  13D2                     i1l3108:
  8098  13D2  3001               	movlw	1
  8099  13D3                     u398_25:
  8100  13D3  1003               	clrc
  8101  13D4  0DF0               	rlf	___lwdiv@divisor,f
  8102  13D5  0DF1               	rlf	___lwdiv@divisor+1,f
  8103  13D6  3EFF               	addlw	-1
  8104  13D7  1D03               	skipz
  8105  13D8  2BD3               	goto	u398_25
  8106  13D9                     i1l3110:
  8107  13D9  3001               	movlw	1
  8108  13DA  00F4               	movwf	??___lwdiv
  8109  13DB  0874               	movf	??___lwdiv,w
  8110  13DC  07F7               	addwf	___lwdiv@counter,f
  8111  13DD                     i1l3112:
  8112  13DD  1FF1               	btfss	___lwdiv@divisor+1,7
  8113  13DE  2BE0               	goto	u399_21
  8114  13DF  2BE1               	goto	u399_20
  8115  13E0                     u399_21:
  8116  13E0  2BD2               	goto	i1l3108
  8117  13E1                     u399_20:
  8118  13E1                     i1l3114:
  8119  13E1  3001               	movlw	1
  8120  13E2                     u400_25:
  8121  13E2  1003               	clrc
  8122  13E3  0DF5               	rlf	___lwdiv@quotient,f
  8123  13E4  0DF6               	rlf	___lwdiv@quotient+1,f
  8124  13E5  3EFF               	addlw	-1
  8125  13E6  1D03               	skipz
  8126  13E7  2BE2               	goto	u400_25
  8127  13E8  0871               	movf	___lwdiv@divisor+1,w
  8128  13E9  0273               	subwf	___lwdiv@dividend+1,w
  8129  13EA  1D03               	skipz
  8130  13EB  2BEE               	goto	u401_25
  8131  13EC  0870               	movf	___lwdiv@divisor,w
  8132  13ED  0272               	subwf	___lwdiv@dividend,w
  8133  13EE                     u401_25:
  8134  13EE  1C03               	skipc
  8135  13EF  2BF1               	goto	u401_21
  8136  13F0  2BF2               	goto	u401_20
  8137  13F1                     u401_21:
  8138  13F1  2BF9               	goto	i1l3120
  8139  13F2                     u401_20:
  8140  13F2                     i1l3116:
  8141  13F2  0870               	movf	___lwdiv@divisor,w
  8142  13F3  02F2               	subwf	___lwdiv@dividend,f
  8143  13F4  0871               	movf	___lwdiv@divisor+1,w
  8144  13F5  1C03               	skipc
  8145  13F6  03F3               	decf	___lwdiv@dividend+1,f
  8146  13F7  02F3               	subwf	___lwdiv@dividend+1,f
  8147  13F8                     i1l3118:
  8148  13F8  1475               	bsf	___lwdiv@quotient,0
  8149  13F9                     i1l3120:
  8150  13F9  3001               	movlw	1
  8151  13FA                     u402_25:
  8152  13FA  1003               	clrc
  8153  13FB  0CF1               	rrf	___lwdiv@divisor+1,f
  8154  13FC  0CF0               	rrf	___lwdiv@divisor,f
  8155  13FD  3EFF               	addlw	-1
  8156  13FE  1D03               	skipz
  8157  13FF  2BFA               	goto	u402_25
  8158  1400                     i1l3122:
  8159  1400  3001               	movlw	1
  8160  1401  02F7               	subwf	___lwdiv@counter,f
  8161  1402  1D03               	btfss	3,2
  8162  1403  2C05               	goto	u403_21
  8163  1404  2C06               	goto	u403_20
  8164  1405                     u403_21:
  8165  1405  2BE1               	goto	i1l3114
  8166  1406                     u403_20:
  8167  1406                     i1l3124:
  8168  1406  0876               	movf	___lwdiv@quotient+1,w
  8169  1407  00F1               	movwf	?___lwdiv+1
  8170  1408  0875               	movf	___lwdiv@quotient,w
  8171  1409  00F0               	movwf	?___lwdiv
  8172  140A                     i1l600:
  8173  140A  0008               	return
  8174  140B                     __end_of___lwdiv:
  8175                           
  8176                           	psect	text27
  8177  1282                     __ptext27:	
  8178 ;; *************** function ___flsub *****************
  8179 ;; Defined at:
  8180 ;;		line 242 in file "C:\Program Files\Microchip\xc8\v2.35\pic\sources\c90\common\sprcadd.c"
  8181 ;; Parameters:    Size  Location     Type
  8182 ;;  a               4   69[BANK0 ] unsigned int 
  8183 ;;  b               4   73[BANK0 ] unsigned int 
  8184 ;; Auto vars:     Size  Location     Type
  8185 ;;		None
  8186 ;; Return value:  Size  Location     Type
  8187 ;;                  4   69[BANK0 ] unsigned int 
  8188 ;; Registers used:
  8189 ;;		wreg, status,2, status,0, btemp+1, pclath, cstack
  8190 ;; Tracked objects:
  8191 ;;		On entry : 0/0
  8192 ;;		On exit  : 0/0
  8193 ;;		Unchanged: 0/0
  8194 ;; Data sizes:     COMMON   BANK0   BANK1   BANK3   BANK2
  8195 ;;      Params:         0       8       0       0       0
  8196 ;;      Locals:         0       0       0       0       0
  8197 ;;      Temps:          0       0       0       0       0
  8198 ;;      Totals:         0       8       0       0       0
  8199 ;;Total ram usage:        8 bytes
  8200 ;; Hardware stack levels used: 1
  8201 ;; Hardware stack levels required when called: 1
  8202 ;; This function calls:
  8203 ;;		___fladd
  8204 ;; This function is called by:
  8205 ;;		_slave
  8206 ;; This function uses a non-reentrant model
  8207 ;;
  8208                           
  8209  1282                     ___flsub:	
  8210                           ;psect for function ___flsub
  8211                           
  8212  1282                     i1l3128:	
  8213                           ;incstack = 0
  8214                           ; Regs used in ___flsub: [wreg+status,2+status,0+btemp+1+pclath+cstack]
  8215                           
  8216  1282  3080               	movlw	128
  8217  1283  1283               	bcf	3,5	;RP0=0, select bank0
  8218  1284  1303               	bcf	3,6	;RP1=0, select bank0
  8219  1285  06E8               	xorwf	___flsub@a+3,f
  8220  1286                     i1l3130:
  8221  1286  086C               	movf	___flsub@b+3,w
  8222  1287  00AD               	movwf	___fladd@b+3
  8223  1288  086B               	movf	___flsub@b+2,w
  8224  1289  00AC               	movwf	___fladd@b+2
  8225  128A  086A               	movf	___flsub@b+1,w
  8226  128B  00AB               	movwf	___fladd@b+1
  8227  128C  0869               	movf	___flsub@b,w
  8228  128D  00AA               	movwf	___fladd@b
  8229  128E  0868               	movf	___flsub@a+3,w
  8230  128F  00B1               	movwf	___fladd@a+3
  8231  1290  0867               	movf	___flsub@a+2,w
  8232  1291  00B0               	movwf	___fladd@a+2
  8233  1292  0866               	movf	___flsub@a+1,w
  8234  1293  00AF               	movwf	___fladd@a+1
  8235  1294  0865               	movf	___flsub@a,w
  8236  1295  00AE               	movwf	___fladd@a
  8237  1296  120A  158A  22D8  160A  118A  	fcall	___fladd
  8238  129B  1283               	bcf	3,5	;RP0=0, select bank0
  8239  129C  1303               	bcf	3,6	;RP1=0, select bank0
  8240  129D  082D               	movf	?___fladd+3,w
  8241  129E  00E8               	movwf	?___flsub+3
  8242  129F  082C               	movf	?___fladd+2,w
  8243  12A0  00E7               	movwf	?___flsub+2
  8244  12A1  082B               	movf	?___fladd+1,w
  8245  12A2  00E6               	movwf	?___flsub+1
  8246  12A3  082A               	movf	?___fladd,w
  8247  12A4  00E5               	movwf	?___flsub
  8248  12A5                     i1l667:
  8249  12A5  0008               	return
  8250  12A6                     __end_of___flsub:
  8251                           
  8252                           	psect	text28
  8253  0AD8                     __ptext28:	
  8254 ;; *************** function ___fladd *****************
  8255 ;; Defined at:
  8256 ;;		line 10 in file "C:\Program Files\Microchip\xc8\v2.35\pic\sources\c90\common\sprcadd.c"
  8257 ;; Parameters:    Size  Location     Type
  8258 ;;  b               4   10[BANK0 ] unsigned int 
  8259 ;;  a               4   14[BANK0 ] unsigned int 
  8260 ;; Auto vars:     Size  Location     Type
  8261 ;;  grs             1   29[BANK0 ] unsigned char 
  8262 ;;  bexp            1   28[BANK0 ] unsigned char 
  8263 ;;  aexp            1   27[BANK0 ] unsigned char 
  8264 ;;  signs           1   26[BANK0 ] unsigned char 
  8265 ;; Return value:  Size  Location     Type
  8266 ;;                  4   10[BANK0 ] unsigned char 
  8267 ;; Registers used:
  8268 ;;		wreg, status,2, status,0, btemp+1
  8269 ;; Tracked objects:
  8270 ;;		On entry : 0/0
  8271 ;;		On exit  : 0/0
  8272 ;;		Unchanged: 0/0
  8273 ;; Data sizes:     COMMON   BANK0   BANK1   BANK3   BANK2
  8274 ;;      Params:         0       8       0       0       0
  8275 ;;      Locals:         0       4       0       0       0
  8276 ;;      Temps:          0       8       0       0       0
  8277 ;;      Totals:         0      20       0       0       0
  8278 ;;Total ram usage:       20 bytes
  8279 ;; Hardware stack levels used: 1
  8280 ;; This function calls:
  8281 ;;		Nothing
  8282 ;; This function is called by:
  8283 ;;		_slave
  8284 ;;		_map
  8285 ;;		___flsub
  8286 ;;		_log
  8287 ;;		_eval_poly
  8288 ;; This function uses a non-reentrant model
  8289 ;;
  8290                           
  8291  0AD8                     ___fladd:	
  8292                           ;psect for function ___fladd
  8293                           
  8294  0AD8                     i1l2190:	
  8295                           ;incstack = 0
  8296                           ; Regs used in ___fladd: [wreg+status,2+status,0+btemp+1]
  8297                           
  8298  0AD8  1283               	bcf	3,5	;RP0=0, select bank0
  8299  0AD9  1303               	bcf	3,6	;RP1=0, select bank0
  8300  0ADA  082D               	movf	___fladd@b+3,w
  8301  0ADB  3980               	andlw	128
  8302  0ADC  00B2               	movwf	??___fladd
  8303  0ADD  0832               	movf	??___fladd,w
  8304  0ADE  00BA               	movwf	___fladd@signs
  8305  0ADF                     i1l2192:
  8306  0ADF  082D               	movf	___fladd@b+3,w
  8307  0AE0  00B2               	movwf	??___fladd
  8308  0AE1  0732               	addwf	??___fladd,w
  8309  0AE2  00B3               	movwf	??___fladd+1
  8310  0AE3  0833               	movf	??___fladd+1,w
  8311  0AE4  00BC               	movwf	___fladd@bexp
  8312  0AE5                     i1l2194:
  8313  0AE5  1FAC               	btfss	___fladd@b+2,7
  8314  0AE6  2AE8               	goto	u218_21
  8315  0AE7  2AE9               	goto	u218_20
  8316  0AE8                     u218_21:
  8317  0AE8  2AEA               	goto	i1l2198
  8318  0AE9                     u218_20:
  8319  0AE9                     i1l2196:
  8320  0AE9  143C               	bsf	___fladd@bexp,0
  8321  0AEA                     i1l2198:
  8322  0AEA  083C               	movf	___fladd@bexp,w
  8323  0AEB  1903               	btfsc	3,2
  8324  0AEC  2AEE               	goto	u219_21
  8325  0AED  2AEF               	goto	u219_20
  8326  0AEE                     u219_21:
  8327  0AEE  2AFF               	goto	i1l2208
  8328  0AEF                     u219_20:
  8329  0AEF                     i1l2200:
  8330  0AEF  0A3C               	incf	___fladd@bexp,w
  8331  0AF0  1D03               	btfss	3,2
  8332  0AF1  2AF3               	goto	u220_21
  8333  0AF2  2AF4               	goto	u220_20
  8334  0AF3                     u220_21:
  8335  0AF3  2AFC               	goto	i1l2204
  8336  0AF4                     u220_20:
  8337  0AF4                     i1l2202:
  8338  0AF4  3000               	movlw	0
  8339  0AF5  00AD               	movwf	___fladd@b+3
  8340  0AF6  3000               	movlw	0
  8341  0AF7  00AC               	movwf	___fladd@b+2
  8342  0AF8  3000               	movlw	0
  8343  0AF9  00AB               	movwf	___fladd@b+1
  8344  0AFA  3000               	movlw	0
  8345  0AFB  00AA               	movwf	___fladd@b
  8346  0AFC                     i1l2204:
  8347  0AFC  17AC               	bsf	___fladd@b+2,7
  8348  0AFD                     i1l2206:
  8349  0AFD  01AD               	clrf	___fladd@b+3
  8350  0AFE  2B07               	goto	i1l2210
  8351  0AFF                     i1l2208:
  8352  0AFF  3000               	movlw	0
  8353  0B00  00AD               	movwf	___fladd@b+3
  8354  0B01  3000               	movlw	0
  8355  0B02  00AC               	movwf	___fladd@b+2
  8356  0B03  3000               	movlw	0
  8357  0B04  00AB               	movwf	___fladd@b+1
  8358  0B05  3000               	movlw	0
  8359  0B06  00AA               	movwf	___fladd@b
  8360  0B07                     i1l2210:
  8361  0B07  0831               	movf	___fladd@a+3,w
  8362  0B08  3980               	andlw	128
  8363  0B09  00B2               	movwf	??___fladd
  8364  0B0A  0832               	movf	??___fladd,w
  8365  0B0B  00BB               	movwf	___fladd@aexp
  8366  0B0C                     i1l2212:
  8367  0B0C  083B               	movf	___fladd@aexp,w
  8368  0B0D  063A               	xorwf	___fladd@signs,w
  8369  0B0E  1903               	skipnz
  8370  0B0F  2B11               	goto	u221_21
  8371  0B10  2B12               	goto	u221_20
  8372  0B11                     u221_21:
  8373  0B11  2B13               	goto	i1l2216
  8374  0B12                     u221_20:
  8375  0B12                     i1l2214:
  8376  0B12  173A               	bsf	___fladd@signs,6
  8377  0B13                     i1l2216:
  8378  0B13  0831               	movf	___fladd@a+3,w
  8379  0B14  00B2               	movwf	??___fladd
  8380  0B15  0732               	addwf	??___fladd,w
  8381  0B16  00B3               	movwf	??___fladd+1
  8382  0B17  0833               	movf	??___fladd+1,w
  8383  0B18  00BB               	movwf	___fladd@aexp
  8384  0B19                     i1l2218:
  8385  0B19  1FB0               	btfss	___fladd@a+2,7
  8386  0B1A  2B1C               	goto	u222_21
  8387  0B1B  2B1D               	goto	u222_20
  8388  0B1C                     u222_21:
  8389  0B1C  2B1E               	goto	i1l2222
  8390  0B1D                     u222_20:
  8391  0B1D                     i1l2220:
  8392  0B1D  143B               	bsf	___fladd@aexp,0
  8393  0B1E                     i1l2222:
  8394  0B1E  083B               	movf	___fladd@aexp,w
  8395  0B1F  1903               	btfsc	3,2
  8396  0B20  2B22               	goto	u223_21
  8397  0B21  2B23               	goto	u223_20
  8398  0B22                     u223_21:
  8399  0B22  2B33               	goto	i1l2232
  8400  0B23                     u223_20:
  8401  0B23                     i1l2224:
  8402  0B23  0A3B               	incf	___fladd@aexp,w
  8403  0B24  1D03               	btfss	3,2
  8404  0B25  2B27               	goto	u224_21
  8405  0B26  2B28               	goto	u224_20
  8406  0B27                     u224_21:
  8407  0B27  2B30               	goto	i1l2228
  8408  0B28                     u224_20:
  8409  0B28                     i1l2226:
  8410  0B28  3000               	movlw	0
  8411  0B29  00B1               	movwf	___fladd@a+3
  8412  0B2A  3000               	movlw	0
  8413  0B2B  00B0               	movwf	___fladd@a+2
  8414  0B2C  3000               	movlw	0
  8415  0B2D  00AF               	movwf	___fladd@a+1
  8416  0B2E  3000               	movlw	0
  8417  0B2F  00AE               	movwf	___fladd@a
  8418  0B30                     i1l2228:
  8419  0B30  17B0               	bsf	___fladd@a+2,7
  8420  0B31                     i1l2230:
  8421  0B31  01B1               	clrf	___fladd@a+3
  8422  0B32  2B3B               	goto	i1l621
  8423  0B33                     i1l2232:
  8424  0B33  3000               	movlw	0
  8425  0B34  00B1               	movwf	___fladd@a+3
  8426  0B35  3000               	movlw	0
  8427  0B36  00B0               	movwf	___fladd@a+2
  8428  0B37  3000               	movlw	0
  8429  0B38  00AF               	movwf	___fladd@a+1
  8430  0B39  3000               	movlw	0
  8431  0B3A  00AE               	movwf	___fladd@a
  8432  0B3B                     i1l621:
  8433  0B3B  083C               	movf	___fladd@bexp,w
  8434  0B3C  023B               	subwf	___fladd@aexp,w
  8435  0B3D  1803               	skipnc
  8436  0B3E  2B40               	goto	u225_21
  8437  0B3F  2B41               	goto	u225_20
  8438  0B40                     u225_21:
  8439  0B40  2B85               	goto	i1l2268
  8440  0B41                     u225_20:
  8441  0B41                     i1l2234:
  8442  0B41  1F3A               	btfss	___fladd@signs,6
  8443  0B42  2B44               	goto	u226_21
  8444  0B43  2B45               	goto	u226_20
  8445  0B44                     u226_21:
  8446  0B44  2B49               	goto	i1l2238
  8447  0B45                     u226_20:
  8448  0B45                     i1l2236:
  8449  0B45  3080               	movlw	128
  8450  0B46  00B2               	movwf	??___fladd
  8451  0B47  0832               	movf	??___fladd,w
  8452  0B48  06BA               	xorwf	___fladd@signs,f
  8453  0B49                     i1l2238:
  8454  0B49  083C               	movf	___fladd@bexp,w
  8455  0B4A  00B2               	movwf	??___fladd
  8456  0B4B  0832               	movf	??___fladd,w
  8457  0B4C  00BD               	movwf	___fladd@grs
  8458  0B4D                     i1l2240:
  8459  0B4D  083B               	movf	___fladd@aexp,w
  8460  0B4E  00B2               	movwf	??___fladd
  8461  0B4F  0832               	movf	??___fladd,w
  8462  0B50  00BC               	movwf	___fladd@bexp
  8463  0B51                     i1l2242:
  8464  0B51  083D               	movf	___fladd@grs,w
  8465  0B52  00B2               	movwf	??___fladd
  8466  0B53  0832               	movf	??___fladd,w
  8467  0B54  00BB               	movwf	___fladd@aexp
  8468  0B55                     i1l2244:
  8469  0B55  082A               	movf	___fladd@b,w
  8470  0B56  00B2               	movwf	??___fladd
  8471  0B57  0832               	movf	??___fladd,w
  8472  0B58  00BD               	movwf	___fladd@grs
  8473  0B59                     i1l2246:
  8474  0B59  082E               	movf	___fladd@a,w
  8475  0B5A  00B2               	movwf	??___fladd
  8476  0B5B  0832               	movf	??___fladd,w
  8477  0B5C  00AA               	movwf	___fladd@b
  8478  0B5D                     i1l2248:
  8479  0B5D  083D               	movf	___fladd@grs,w
  8480  0B5E  00B2               	movwf	??___fladd
  8481  0B5F  0832               	movf	??___fladd,w
  8482  0B60  00AE               	movwf	___fladd@a
  8483  0B61                     i1l2250:
  8484  0B61  082B               	movf	___fladd@b+1,w
  8485  0B62  00B2               	movwf	??___fladd
  8486  0B63  0832               	movf	??___fladd,w
  8487  0B64  00BD               	movwf	___fladd@grs
  8488  0B65                     i1l2252:
  8489  0B65  082F               	movf	___fladd@a+1,w
  8490  0B66  00B2               	movwf	??___fladd
  8491  0B67  0832               	movf	??___fladd,w
  8492  0B68  00AB               	movwf	___fladd@b+1
  8493  0B69                     i1l2254:
  8494  0B69  083D               	movf	___fladd@grs,w
  8495  0B6A  00B2               	movwf	??___fladd
  8496  0B6B  0832               	movf	??___fladd,w
  8497  0B6C  00AF               	movwf	___fladd@a+1
  8498  0B6D                     i1l2256:
  8499  0B6D  082C               	movf	___fladd@b+2,w
  8500  0B6E  00B2               	movwf	??___fladd
  8501  0B6F  0832               	movf	??___fladd,w
  8502  0B70  00BD               	movwf	___fladd@grs
  8503  0B71                     i1l2258:
  8504  0B71  0830               	movf	___fladd@a+2,w
  8505  0B72  00B2               	movwf	??___fladd
  8506  0B73  0832               	movf	??___fladd,w
  8507  0B74  00AC               	movwf	___fladd@b+2
  8508  0B75                     i1l2260:
  8509  0B75  083D               	movf	___fladd@grs,w
  8510  0B76  00B2               	movwf	??___fladd
  8511  0B77  0832               	movf	??___fladd,w
  8512  0B78  00B0               	movwf	___fladd@a+2
  8513  0B79                     i1l2262:
  8514  0B79  082D               	movf	___fladd@b+3,w
  8515  0B7A  00B2               	movwf	??___fladd
  8516  0B7B  0832               	movf	??___fladd,w
  8517  0B7C  00BD               	movwf	___fladd@grs
  8518  0B7D                     i1l2264:
  8519  0B7D  0831               	movf	___fladd@a+3,w
  8520  0B7E  00B2               	movwf	??___fladd
  8521  0B7F  0832               	movf	??___fladd,w
  8522  0B80  00AD               	movwf	___fladd@b+3
  8523  0B81                     i1l2266:
  8524  0B81  083D               	movf	___fladd@grs,w
  8525  0B82  00B2               	movwf	??___fladd
  8526  0B83  0832               	movf	??___fladd,w
  8527  0B84  00B1               	movwf	___fladd@a+3
  8528  0B85                     i1l2268:
  8529  0B85  01BD               	clrf	___fladd@grs
  8530  0B86                     i1l2270:
  8531  0B86  083B               	movf	___fladd@aexp,w
  8532  0B87  00B2               	movwf	??___fladd
  8533  0B88  01B3               	clrf	??___fladd+1
  8534  0B89  0833               	movf	??___fladd+1,w
  8535  0B8A  00B5               	movwf	??___fladd+3
  8536  0B8B  083C               	movf	___fladd@bexp,w
  8537  0B8C  0232               	subwf	??___fladd,w
  8538  0B8D  00B4               	movwf	??___fladd+2
  8539  0B8E  1C03               	skipc
  8540  0B8F  03B5               	decf	??___fladd+3,f
  8541  0B90  0835               	movf	??___fladd+3,w
  8542  0B91  3A80               	xorlw	128
  8543  0B92  00FF               	movwf	btemp+1
  8544  0B93  3080               	movlw	128
  8545  0B94  027F               	subwf	btemp+1,w
  8546  0B95  1D03               	skipz
  8547  0B96  2B99               	goto	u227_25
  8548  0B97  301A               	movlw	26
  8549  0B98  0234               	subwf	??___fladd+2,w
  8550  0B99                     u227_25:
  8551  0B99  1C03               	skipc
  8552  0B9A  2B9C               	goto	u227_21
  8553  0B9B  2B9D               	goto	u227_20
  8554  0B9C                     u227_21:
  8555  0B9C  2BDA               	goto	i1l2286
  8556  0B9D                     u227_20:
  8557  0B9D                     i1l2272:
  8558  0B9D  1283               	bcf	3,5	;RP0=0, select bank0
  8559  0B9E  1303               	bcf	3,6	;RP1=0, select bank0
  8560  0B9F  082D               	movf	___fladd@b+3,w
  8561  0BA0  042C               	iorwf	___fladd@b+2,w
  8562  0BA1  042B               	iorwf	___fladd@b+1,w
  8563  0BA2  042A               	iorwf	___fladd@b,w
  8564  0BA3  1D03               	skipz
  8565  0BA4  2BA6               	goto	u228_21
  8566  0BA5  2BA8               	goto	u228_20
  8567  0BA6                     u228_21:
  8568  0BA6  3001               	movlw	1
  8569  0BA7  2BA9               	goto	u229_20
  8570  0BA8                     u228_20:
  8571  0BA8  3000               	movlw	0
  8572  0BA9                     u229_20:
  8573  0BA9  00B2               	movwf	??___fladd
  8574  0BAA  0832               	movf	??___fladd,w
  8575  0BAB  00BD               	movwf	___fladd@grs
  8576  0BAC  3000               	movlw	0
  8577  0BAD  00AD               	movwf	___fladd@b+3
  8578  0BAE  3000               	movlw	0
  8579  0BAF  00AC               	movwf	___fladd@b+2
  8580  0BB0  3000               	movlw	0
  8581  0BB1  00AB               	movwf	___fladd@b+1
  8582  0BB2  3000               	movlw	0
  8583  0BB3  00AA               	movwf	___fladd@b
  8584  0BB4  083B               	movf	___fladd@aexp,w
  8585  0BB5  00B2               	movwf	??___fladd
  8586  0BB6  0832               	movf	??___fladd,w
  8587  0BB7  00BC               	movwf	___fladd@bexp
  8588  0BB8  2BE2               	goto	i1l625
  8589  0BB9                     i1l627:
  8590  0BB9  1C3D               	btfss	___fladd@grs,0
  8591  0BBA  2BBC               	goto	u230_21
  8592  0BBB  2BBD               	goto	u230_20
  8593  0BBC                     u230_21:
  8594  0BBC  2BC6               	goto	i1l2276
  8595  0BBD                     u230_20:
  8596  0BBD                     i1l2274:
  8597  0BBD  083D               	movf	___fladd@grs,w
  8598  0BBE  00B2               	movwf	??___fladd
  8599  0BBF  1003               	clrc
  8600  0BC0  0C32               	rrf	??___fladd,w
  8601  0BC1  3801               	iorlw	1
  8602  0BC2  00B3               	movwf	??___fladd+1
  8603  0BC3  0833               	movf	??___fladd+1,w
  8604  0BC4  00BD               	movwf	___fladd@grs
  8605  0BC5  2BC8               	goto	i1l2278
  8606  0BC6                     i1l2276:
  8607  0BC6  1003               	clrc
  8608  0BC7  0CBD               	rrf	___fladd@grs,f
  8609  0BC8                     i1l2278:
  8610  0BC8  1C2A               	btfss	___fladd@b,0
  8611  0BC9  2BCB               	goto	u231_21
  8612  0BCA  2BCC               	goto	u231_20
  8613  0BCB                     u231_21:
  8614  0BCB  2BCD               	goto	i1l2282
  8615  0BCC                     u231_20:
  8616  0BCC                     i1l2280:
  8617  0BCC  17BD               	bsf	___fladd@grs,7
  8618  0BCD                     i1l2282:
  8619  0BCD  3001               	movlw	1
  8620  0BCE  00B2               	movwf	??___fladd
  8621  0BCF                     u232_25:
  8622  0BCF  0D2D               	rlf	___fladd@b+3,w
  8623  0BD0  0CAD               	rrf	___fladd@b+3,f
  8624  0BD1  0CAC               	rrf	___fladd@b+2,f
  8625  0BD2  0CAB               	rrf	___fladd@b+1,f
  8626  0BD3  0CAA               	rrf	___fladd@b,f
  8627  0BD4  0BB2               	decfsz	??___fladd& (0+127),f
  8628  0BD5  2BCF               	goto	u232_25
  8629  0BD6                     i1l2284:
  8630  0BD6  3001               	movlw	1
  8631  0BD7  00B2               	movwf	??___fladd
  8632  0BD8  0832               	movf	??___fladd,w
  8633  0BD9  07BC               	addwf	___fladd@bexp,f
  8634  0BDA                     i1l2286:
  8635  0BDA  1283               	bcf	3,5	;RP0=0, select bank0
  8636  0BDB  1303               	bcf	3,6	;RP1=0, select bank0
  8637  0BDC  083B               	movf	___fladd@aexp,w
  8638  0BDD  023C               	subwf	___fladd@bexp,w
  8639  0BDE  1C03               	skipc
  8640  0BDF  2BE1               	goto	u233_21
  8641  0BE0  2BE2               	goto	u233_20
  8642  0BE1                     u233_21:
  8643  0BE1  2BB9               	goto	i1l627
  8644  0BE2                     u233_20:
  8645  0BE2                     i1l625:
  8646  0BE2  1B3A               	btfsc	___fladd@signs,6
  8647  0BE3  2BE5               	goto	u234_21
  8648  0BE4  2BE6               	goto	u234_20
  8649  0BE5                     u234_21:
  8650  0BE5  2C31               	goto	i1l2312
  8651  0BE6                     u234_20:
  8652  0BE6                     i1l2288:
  8653  0BE6  083C               	movf	___fladd@bexp,w
  8654  0BE7  1D03               	btfss	3,2
  8655  0BE8  2BEA               	goto	u235_21
  8656  0BE9  2BEB               	goto	u235_20
  8657  0BEA                     u235_21:
  8658  0BEA  2BF4               	goto	i1l2294
  8659  0BEB                     u235_20:
  8660  0BEB                     i1l2290:
  8661  0BEB  3000               	movlw	0
  8662  0BEC  00AD               	movwf	?___fladd+3
  8663  0BED  3000               	movlw	0
  8664  0BEE  00AC               	movwf	?___fladd+2
  8665  0BEF  3000               	movlw	0
  8666  0BF0  00AB               	movwf	?___fladd+1
  8667  0BF1  3000               	movlw	0
  8668  0BF2  00AA               	movwf	?___fladd
  8669  0BF3  2D5F               	goto	i1l634
  8670  0BF4                     i1l2294:
  8671  0BF4  082E               	movf	___fladd@a,w
  8672  0BF5  07AA               	addwf	___fladd@b,f
  8673  0BF6  082F               	movf	___fladd@a+1,w
  8674  0BF7  1103               	clrz
  8675  0BF8  1803               	skipnc
  8676  0BF9  3E01               	addlw	1
  8677  0BFA  1903               	skipnz
  8678  0BFB  2BFD               	goto	u236_21
  8679  0BFC  07AB               	addwf	___fladd@b+1,f
  8680  0BFD                     u236_21:
  8681  0BFD  0830               	movf	___fladd@a+2,w
  8682  0BFE  1103               	clrz
  8683  0BFF  1803               	skipnc
  8684  0C00  3E01               	addlw	1
  8685  0C01  1903               	skipnz
  8686  0C02  2C04               	goto	u236_22
  8687  0C03  07AC               	addwf	___fladd@b+2,f
  8688  0C04                     u236_22:
  8689  0C04  0831               	movf	___fladd@a+3,w
  8690  0C05  1103               	clrz
  8691  0C06  1803               	skipnc
  8692  0C07  3E01               	addlw	1
  8693  0C08  1903               	skipnz
  8694  0C09  2C0B               	goto	u236_23
  8695  0C0A  07AD               	addwf	___fladd@b+3,f
  8696  0C0B                     u236_23:
  8697  0C0B                     i1l2296:
  8698  0C0B  1C2D               	btfss	___fladd@b+3,0
  8699  0C0C  2C0E               	goto	u237_21
  8700  0C0D  2C0F               	goto	u237_20
  8701  0C0E                     u237_21:
  8702  0C0E  2CE5               	goto	i1l2346
  8703  0C0F                     u237_20:
  8704  0C0F                     i1l2298:
  8705  0C0F  1C3D               	btfss	___fladd@grs,0
  8706  0C10  2C12               	goto	u238_21
  8707  0C11  2C13               	goto	u238_20
  8708  0C12                     u238_21:
  8709  0C12  2C1C               	goto	i1l2302
  8710  0C13                     u238_20:
  8711  0C13                     i1l2300:
  8712  0C13  083D               	movf	___fladd@grs,w
  8713  0C14  00B2               	movwf	??___fladd
  8714  0C15  1003               	clrc
  8715  0C16  0C32               	rrf	??___fladd,w
  8716  0C17  3801               	iorlw	1
  8717  0C18  00B3               	movwf	??___fladd+1
  8718  0C19  0833               	movf	??___fladd+1,w
  8719  0C1A  00BD               	movwf	___fladd@grs
  8720  0C1B  2C1E               	goto	i1l2304
  8721  0C1C                     i1l2302:
  8722  0C1C  1003               	clrc
  8723  0C1D  0CBD               	rrf	___fladd@grs,f
  8724  0C1E                     i1l2304:
  8725  0C1E  1C2A               	btfss	___fladd@b,0
  8726  0C1F  2C21               	goto	u239_21
  8727  0C20  2C22               	goto	u239_20
  8728  0C21                     u239_21:
  8729  0C21  2C23               	goto	i1l2308
  8730  0C22                     u239_20:
  8731  0C22                     i1l2306:
  8732  0C22  17BD               	bsf	___fladd@grs,7
  8733  0C23                     i1l2308:
  8734  0C23  3001               	movlw	1
  8735  0C24  00B2               	movwf	??___fladd
  8736  0C25                     u240_25:
  8737  0C25  0D2D               	rlf	___fladd@b+3,w
  8738  0C26  0CAD               	rrf	___fladd@b+3,f
  8739  0C27  0CAC               	rrf	___fladd@b+2,f
  8740  0C28  0CAB               	rrf	___fladd@b+1,f
  8741  0C29  0CAA               	rrf	___fladd@b,f
  8742  0C2A  0BB2               	decfsz	??___fladd& (0+127),f
  8743  0C2B  2C25               	goto	u240_25
  8744  0C2C                     i1l2310:
  8745  0C2C  3001               	movlw	1
  8746  0C2D  00B2               	movwf	??___fladd
  8747  0C2E  0832               	movf	??___fladd,w
  8748  0C2F  07BC               	addwf	___fladd@bexp,f
  8749  0C30  2CE5               	goto	i1l2346
  8750  0C31                     i1l2312:
  8751  0C31  082D               	movf	___fladd@b+3,w
  8752  0C32  3A80               	xorlw	128
  8753  0C33  00FF               	movwf	btemp+1
  8754  0C34  0831               	movf	___fladd@a+3,w
  8755  0C35  3A80               	xorlw	128
  8756  0C36  027F               	subwf	btemp+1,w
  8757  0C37  1D03               	skipz
  8758  0C38  2C43               	goto	u241_23
  8759  0C39  0830               	movf	___fladd@a+2,w
  8760  0C3A  022C               	subwf	___fladd@b+2,w
  8761  0C3B  1D03               	skipz
  8762  0C3C  2C43               	goto	u241_23
  8763  0C3D  082F               	movf	___fladd@a+1,w
  8764  0C3E  022B               	subwf	___fladd@b+1,w
  8765  0C3F  1D03               	skipz
  8766  0C40  2C43               	goto	u241_23
  8767  0C41  082E               	movf	___fladd@a,w
  8768  0C42  022A               	subwf	___fladd@b,w
  8769  0C43                     u241_23:
  8770  0C43  1803               	skipnc
  8771  0C44  2C46               	goto	u241_21
  8772  0C45  2C47               	goto	u241_20
  8773  0C46                     u241_21:
  8774  0C46  2C9F               	goto	i1l2322
  8775  0C47                     u241_20:
  8776  0C47                     i1l2314:
  8777  0C47  30FF               	movlw	255
  8778  0C48  00B2               	movwf	??___fladd
  8779  0C49  30FF               	movlw	255
  8780  0C4A  00B3               	movwf	??___fladd+1
  8781  0C4B  30FF               	movlw	255
  8782  0C4C  00B4               	movwf	??___fladd+2
  8783  0C4D  30FF               	movlw	255
  8784  0C4E  00B5               	movwf	??___fladd+3
  8785  0C4F  082E               	movf	___fladd@a,w
  8786  0C50  00B6               	movwf	??___fladd+4
  8787  0C51  082F               	movf	___fladd@a+1,w
  8788  0C52  00B7               	movwf	??___fladd+5
  8789  0C53  0830               	movf	___fladd@a+2,w
  8790  0C54  00B8               	movwf	??___fladd+6
  8791  0C55  0831               	movf	___fladd@a+3,w
  8792  0C56  00B9               	movwf	??___fladd+7
  8793  0C57  082A               	movf	___fladd@b,w
  8794  0C58  02B6               	subwf	??___fladd+4,f
  8795  0C59  082B               	movf	___fladd@b+1,w
  8796  0C5A  1C03               	skipc
  8797  0C5B  0F2B               	incfsz	___fladd@b+1,w
  8798  0C5C  2C5E               	goto	u242_21
  8799  0C5D  2C5F               	goto	u242_22
  8800  0C5E                     u242_21:
  8801  0C5E  02B7               	subwf	??___fladd+5,f
  8802  0C5F                     u242_22:
  8803  0C5F  082C               	movf	___fladd@b+2,w
  8804  0C60  1C03               	skipc
  8805  0C61  0F2C               	incfsz	___fladd@b+2,w
  8806  0C62  2C64               	goto	u242_23
  8807  0C63  2C65               	goto	u242_24
  8808  0C64                     u242_23:
  8809  0C64  02B8               	subwf	??___fladd+6,f
  8810  0C65                     u242_24:
  8811  0C65  082D               	movf	___fladd@b+3,w
  8812  0C66  1C03               	skipc
  8813  0C67  0F2D               	incfsz	___fladd@b+3,w
  8814  0C68  2C6A               	goto	u242_25
  8815  0C69  2C6B               	goto	u242_26
  8816  0C6A                     u242_25:
  8817  0C6A  02B9               	subwf	??___fladd+7,f
  8818  0C6B                     u242_26:
  8819  0C6B  0836               	movf	??___fladd+4,w
  8820  0C6C  07B2               	addwf	??___fladd,f
  8821  0C6D  0837               	movf	??___fladd+5,w
  8822  0C6E  1803               	skipnc
  8823  0C6F  0F37               	incfsz	??___fladd+5,w
  8824  0C70  2C72               	goto	u243_20
  8825  0C71  2C73               	goto	u243_21
  8826  0C72                     u243_20:
  8827  0C72  07B3               	addwf	??___fladd+1,f
  8828  0C73                     u243_21:
  8829  0C73  0838               	movf	??___fladd+6,w
  8830  0C74  1803               	skipnc
  8831  0C75  0F38               	incfsz	??___fladd+6,w
  8832  0C76  2C78               	goto	u243_22
  8833  0C77  2C79               	goto	u243_23
  8834  0C78                     u243_22:
  8835  0C78  07B4               	addwf	??___fladd+2,f
  8836  0C79                     u243_23:
  8837  0C79  0839               	movf	??___fladd+7,w
  8838  0C7A  1803               	skipnc
  8839  0C7B  0A39               	incf	??___fladd+7,w
  8840  0C7C  07B5               	addwf	??___fladd+3,f
  8841  0C7D  0835               	movf	??___fladd+3,w
  8842  0C7E  00AD               	movwf	___fladd@b+3
  8843  0C7F  0834               	movf	??___fladd+2,w
  8844  0C80  00AC               	movwf	___fladd@b+2
  8845  0C81  0833               	movf	??___fladd+1,w
  8846  0C82  00AB               	movwf	___fladd@b+1
  8847  0C83  0832               	movf	??___fladd,w
  8848  0C84  00AA               	movwf	___fladd@b
  8849  0C85                     i1l2316:
  8850  0C85  3080               	movlw	128
  8851  0C86  00B2               	movwf	??___fladd
  8852  0C87  0832               	movf	??___fladd,w
  8853  0C88  06BA               	xorwf	___fladd@signs,f
  8854  0C89  09BD               	comf	___fladd@grs,f
  8855  0C8A  0ABD               	incf	___fladd@grs,f
  8856  0C8B                     i1l2318:
  8857  0C8B  083D               	movf	___fladd@grs,w
  8858  0C8C  1D03               	btfss	3,2
  8859  0C8D  2C8F               	goto	u244_21
  8860  0C8E  2C90               	goto	u244_20
  8861  0C8F                     u244_21:
  8862  0C8F  2CAD               	goto	i1l642
  8863  0C90                     u244_20:
  8864  0C90                     i1l2320:
  8865  0C90  3001               	movlw	1
  8866  0C91  07AA               	addwf	___fladd@b,f
  8867  0C92  3000               	movlw	0
  8868  0C93  1803               	skipnc
  8869  0C94  3001               	movlw	1
  8870  0C95  07AB               	addwf	___fladd@b+1,f
  8871  0C96  3000               	movlw	0
  8872  0C97  1803               	skipnc
  8873  0C98  3001               	movlw	1
  8874  0C99  07AC               	addwf	___fladd@b+2,f
  8875  0C9A  3000               	movlw	0
  8876  0C9B  1803               	skipnc
  8877  0C9C  3001               	movlw	1
  8878  0C9D  07AD               	addwf	___fladd@b+3,f
  8879  0C9E  2CAD               	goto	i1l642
  8880  0C9F                     i1l2322:
  8881  0C9F  082E               	movf	___fladd@a,w
  8882  0CA0  02AA               	subwf	___fladd@b,f
  8883  0CA1  082F               	movf	___fladd@a+1,w
  8884  0CA2  1C03               	skipc
  8885  0CA3  0F2F               	incfsz	___fladd@a+1,w
  8886  0CA4  02AB               	subwf	___fladd@b+1,f
  8887  0CA5  0830               	movf	___fladd@a+2,w
  8888  0CA6  1C03               	skipc
  8889  0CA7  0F30               	incfsz	___fladd@a+2,w
  8890  0CA8  02AC               	subwf	___fladd@b+2,f
  8891  0CA9  0831               	movf	___fladd@a+3,w
  8892  0CAA  1C03               	skipc
  8893  0CAB  0F31               	incfsz	___fladd@a+3,w
  8894  0CAC  02AD               	subwf	___fladd@b+3,f
  8895  0CAD                     i1l642:
  8896  0CAD  082D               	movf	___fladd@b+3,w
  8897  0CAE  042C               	iorwf	___fladd@b+2,w
  8898  0CAF  042B               	iorwf	___fladd@b+1,w
  8899  0CB0  042A               	iorwf	___fladd@b,w
  8900  0CB1  1D03               	skipz
  8901  0CB2  2CB4               	goto	u245_21
  8902  0CB3  2CB5               	goto	u245_20
  8903  0CB4                     u245_21:
  8904  0CB4  2CE1               	goto	i1l2344
  8905  0CB5                     u245_20:
  8906  0CB5                     i1l2324:
  8907  0CB5  083D               	movf	___fladd@grs,w
  8908  0CB6  1D03               	btfss	3,2
  8909  0CB7  2CB9               	goto	u246_21
  8910  0CB8  2CBA               	goto	u246_20
  8911  0CB9                     u246_21:
  8912  0CB9  2CE1               	goto	i1l2344
  8913  0CBA                     u246_20:
  8914  0CBA                     i1l2326:
  8915  0CBA  3000               	movlw	0
  8916  0CBB  00AD               	movwf	?___fladd+3
  8917  0CBC  3000               	movlw	0
  8918  0CBD  00AC               	movwf	?___fladd+2
  8919  0CBE  3000               	movlw	0
  8920  0CBF  00AB               	movwf	?___fladd+1
  8921  0CC0  3000               	movlw	0
  8922  0CC1  00AA               	movwf	?___fladd
  8923  0CC2  2D5F               	goto	i1l634
  8924  0CC3                     i1l2330:
  8925  0CC3  3001               	movlw	1
  8926  0CC4  00B2               	movwf	??___fladd
  8927  0CC5                     u247_25:
  8928  0CC5  1003               	clrc
  8929  0CC6  0DAA               	rlf	___fladd@b,f
  8930  0CC7  0DAB               	rlf	___fladd@b+1,f
  8931  0CC8  0DAC               	rlf	___fladd@b+2,f
  8932  0CC9  0DAD               	rlf	___fladd@b+3,f
  8933  0CCA  0BB2               	decfsz	??___fladd,f
  8934  0CCB  2CC5               	goto	u247_25
  8935  0CCC                     i1l2332:
  8936  0CCC  1FBD               	btfss	___fladd@grs,7
  8937  0CCD  2CCF               	goto	u248_21
  8938  0CCE  2CD0               	goto	u248_20
  8939  0CCF                     u248_21:
  8940  0CCF  2CD1               	goto	i1l646
  8941  0CD0                     u248_20:
  8942  0CD0                     i1l2334:
  8943  0CD0  142A               	bsf	___fladd@b,0
  8944  0CD1                     i1l646:
  8945  0CD1  1C3D               	btfss	___fladd@grs,0
  8946  0CD2  2CD4               	goto	u249_21
  8947  0CD3  2CD5               	goto	u249_20
  8948  0CD4                     u249_21:
  8949  0CD4  2CD8               	goto	i1l2338
  8950  0CD5                     u249_20:
  8951  0CD5                     i1l2336:
  8952  0CD5  1403               	setc
  8953  0CD6  0DBD               	rlf	___fladd@grs,f
  8954  0CD7  2CDA               	goto	i1l2340
  8955  0CD8                     i1l2338:
  8956  0CD8  1003               	clrc
  8957  0CD9  0DBD               	rlf	___fladd@grs,f
  8958  0CDA                     i1l2340:
  8959  0CDA  083C               	movf	___fladd@bexp,w
  8960  0CDB  1903               	btfsc	3,2
  8961  0CDC  2CDE               	goto	u250_21
  8962  0CDD  2CDF               	goto	u250_20
  8963  0CDE                     u250_21:
  8964  0CDE  2CE1               	goto	i1l2344
  8965  0CDF                     u250_20:
  8966  0CDF                     i1l2342:
  8967  0CDF  3001               	movlw	1
  8968  0CE0  02BC               	subwf	___fladd@bexp,f
  8969  0CE1                     i1l2344:
  8970  0CE1  1FAC               	btfss	___fladd@b+2,7
  8971  0CE2  2CE4               	goto	u251_21
  8972  0CE3  2CE5               	goto	u251_20
  8973  0CE4                     u251_21:
  8974  0CE4  2CC3               	goto	i1l2330
  8975  0CE5                     u251_20:
  8976  0CE5                     i1l2346:
  8977  0CE5  01BB               	clrf	___fladd@aexp
  8978  0CE6                     i1l2348:
  8979  0CE6  1FBD               	btfss	___fladd@grs,7
  8980  0CE7  2CE9               	goto	u252_21
  8981  0CE8  2CEA               	goto	u252_20
  8982  0CE9                     u252_21:
  8983  0CE9  2CF8               	goto	i1l2356
  8984  0CEA                     u252_20:
  8985  0CEA                     i1l2350:
  8986  0CEA  083D               	movf	___fladd@grs,w
  8987  0CEB  397F               	andlw	127
  8988  0CEC  1903               	btfsc	3,2
  8989  0CED  2CEF               	goto	u253_21
  8990  0CEE  2CF0               	goto	u253_20
  8991  0CEF                     u253_21:
  8992  0CEF  2CF3               	goto	i1l652
  8993  0CF0                     u253_20:
  8994  0CF0                     i1l2352:
  8995  0CF0  01BB               	clrf	___fladd@aexp
  8996  0CF1  0ABB               	incf	___fladd@aexp,f
  8997  0CF2  2CF8               	goto	i1l2356
  8998  0CF3                     i1l652:
  8999  0CF3  1C2A               	btfss	___fladd@b,0
  9000  0CF4  2CF6               	goto	u254_21
  9001  0CF5  2CF7               	goto	u254_20
  9002  0CF6                     u254_21:
  9003  0CF6  2CF8               	goto	i1l2356
  9004  0CF7                     u254_20:
  9005  0CF7  2CF0               	goto	i1l2352
  9006  0CF8                     i1l2356:
  9007  0CF8  083B               	movf	___fladd@aexp,w
  9008  0CF9  1903               	btfsc	3,2
  9009  0CFA  2CFC               	goto	u255_21
  9010  0CFB  2CFD               	goto	u255_20
  9011  0CFC                     u255_21:
  9012  0CFC  2D31               	goto	i1l655
  9013  0CFD                     u255_20:
  9014  0CFD                     i1l2358:
  9015  0CFD  3001               	movlw	1
  9016  0CFE  07AA               	addwf	___fladd@b,f
  9017  0CFF  3000               	movlw	0
  9018  0D00  1803               	skipnc
  9019  0D01  3001               	movlw	1
  9020  0D02  07AB               	addwf	___fladd@b+1,f
  9021  0D03  3000               	movlw	0
  9022  0D04  1803               	skipnc
  9023  0D05  3001               	movlw	1
  9024  0D06  07AC               	addwf	___fladd@b+2,f
  9025  0D07  3000               	movlw	0
  9026  0D08  1803               	skipnc
  9027  0D09  3001               	movlw	1
  9028  0D0A  07AD               	addwf	___fladd@b+3,f
  9029  0D0B                     i1l2360:
  9030  0D0B  1C2D               	btfss	___fladd@b+3,0
  9031  0D0C  2D0E               	goto	u256_21
  9032  0D0D  2D0F               	goto	u256_20
  9033  0D0E                     u256_21:
  9034  0D0E  2D31               	goto	i1l655
  9035  0D0F                     u256_20:
  9036  0D0F                     i1l2362:
  9037  0D0F  082A               	movf	___fladd@b,w
  9038  0D10  00B2               	movwf	??___fladd
  9039  0D11  082B               	movf	___fladd@b+1,w
  9040  0D12  00B3               	movwf	??___fladd+1
  9041  0D13  082C               	movf	___fladd@b+2,w
  9042  0D14  00B4               	movwf	??___fladd+2
  9043  0D15  082D               	movf	___fladd@b+3,w
  9044  0D16  00B5               	movwf	??___fladd+3
  9045  0D17  3001               	movlw	1
  9046  0D18  00B6               	movwf	??___fladd+4
  9047  0D19                     u257_25:
  9048  0D19  0D35               	rlf	??___fladd+3,w
  9049  0D1A  0CB5               	rrf	??___fladd+3,f
  9050  0D1B  0CB4               	rrf	??___fladd+2,f
  9051  0D1C  0CB3               	rrf	??___fladd+1,f
  9052  0D1D  0CB2               	rrf	??___fladd,f
  9053  0D1E                     u257_20:
  9054  0D1E  0BB6               	decfsz	??___fladd+4,f
  9055  0D1F  2D19               	goto	u257_25
  9056  0D20  0835               	movf	??___fladd+3,w
  9057  0D21  00AD               	movwf	___fladd@b+3
  9058  0D22  0834               	movf	??___fladd+2,w
  9059  0D23  00AC               	movwf	___fladd@b+2
  9060  0D24  0833               	movf	??___fladd+1,w
  9061  0D25  00AB               	movwf	___fladd@b+1
  9062  0D26  0832               	movf	??___fladd,w
  9063  0D27  00AA               	movwf	___fladd@b
  9064  0D28  0A3C               	incf	___fladd@bexp,w
  9065  0D29  1903               	btfsc	3,2
  9066  0D2A  2D2C               	goto	u258_21
  9067  0D2B  2D2D               	goto	u258_20
  9068  0D2C                     u258_21:
  9069  0D2C  2D31               	goto	i1l655
  9070  0D2D                     u258_20:
  9071  0D2D                     i1l2364:
  9072  0D2D  3001               	movlw	1
  9073  0D2E  00B2               	movwf	??___fladd
  9074  0D2F  0832               	movf	??___fladd,w
  9075  0D30  07BC               	addwf	___fladd@bexp,f
  9076  0D31                     i1l655:
  9077  0D31  0A3C               	incf	___fladd@bexp,w
  9078  0D32  1903               	btfsc	3,2
  9079  0D33  2D35               	goto	u259_21
  9080  0D34  2D36               	goto	u259_20
  9081  0D35                     u259_21:
  9082  0D35  2D3B               	goto	i1l2368
  9083  0D36                     u259_20:
  9084  0D36                     i1l2366:
  9085  0D36  083C               	movf	___fladd@bexp,w
  9086  0D37  1D03               	btfss	3,2
  9087  0D38  2D3A               	goto	u260_21
  9088  0D39  2D3B               	goto	u260_20
  9089  0D3A                     u260_21:
  9090  0D3A  2D49               	goto	i1l2374
  9091  0D3B                     u260_20:
  9092  0D3B                     i1l2368:
  9093  0D3B  3000               	movlw	0
  9094  0D3C  00AD               	movwf	___fladd@b+3
  9095  0D3D  3000               	movlw	0
  9096  0D3E  00AC               	movwf	___fladd@b+2
  9097  0D3F  3000               	movlw	0
  9098  0D40  00AB               	movwf	___fladd@b+1
  9099  0D41  3000               	movlw	0
  9100  0D42  00AA               	movwf	___fladd@b
  9101  0D43                     i1l2370:
  9102  0D43  083C               	movf	___fladd@bexp,w
  9103  0D44  1D03               	btfss	3,2
  9104  0D45  2D47               	goto	u261_21
  9105  0D46  2D48               	goto	u261_20
  9106  0D47                     u261_21:
  9107  0D47  2D49               	goto	i1l2374
  9108  0D48                     u261_20:
  9109  0D48                     i1l2372:
  9110  0D48  01BA               	clrf	___fladd@signs
  9111  0D49                     i1l2374:
  9112  0D49  1C3C               	btfss	___fladd@bexp,0
  9113  0D4A  2D4C               	goto	u262_21
  9114  0D4B  2D4D               	goto	u262_20
  9115  0D4C                     u262_21:
  9116  0D4C  2D4F               	goto	i1l2378
  9117  0D4D                     u262_20:
  9118  0D4D                     i1l2376:
  9119  0D4D  17AC               	bsf	___fladd@b+2,7
  9120  0D4E  2D53               	goto	i1l663
  9121  0D4F                     i1l2378:
  9122  0D4F  307F               	movlw	127
  9123  0D50  00B2               	movwf	??___fladd
  9124  0D51  0832               	movf	??___fladd,w
  9125  0D52  05AC               	andwf	___fladd@b+2,f
  9126  0D53                     i1l663:
  9127  0D53  083C               	movf	___fladd@bexp,w
  9128  0D54  00B2               	movwf	??___fladd
  9129  0D55  1003               	clrc
  9130  0D56  0C32               	rrf	??___fladd,w
  9131  0D57  00B3               	movwf	??___fladd+1
  9132  0D58  0833               	movf	??___fladd+1,w
  9133  0D59  00AD               	movwf	___fladd@b+3
  9134  0D5A                     i1l2380:
  9135  0D5A  1FBA               	btfss	___fladd@signs,7
  9136  0D5B  2D5D               	goto	u263_21
  9137  0D5C  2D5E               	goto	u263_20
  9138  0D5D                     u263_21:
  9139  0D5D  2D5F               	goto	i1l664
  9140  0D5E                     u263_20:
  9141  0D5E                     i1l2382:
  9142  0D5E  17AD               	bsf	___fladd@b+3,7
  9143  0D5F                     i1l664:
  9144  0D5F                     i1l634:
  9145  0D5F  0008               	return
  9146  0D60                     __end_of___fladd:
  9147  007E                     btemp	set	126	;btemp
  9148  007E                     wtemp0	set	126
  9149                           
  9150                           	psect	idloc
  9151                           
  9152                           ;Config register IDLOC0 @ 0x2000
  9153                           ;	unspecified, using default values
  9154  2000                     	org	8192
  9155  2000  3FFF               	dw	16383
  9156                           
  9157                           ;Config register IDLOC1 @ 0x2001
  9158                           ;	unspecified, using default values
  9159  2001                     	org	8193
  9160  2001  3FFF               	dw	16383
  9161                           
  9162                           ;Config register IDLOC2 @ 0x2002
  9163                           ;	unspecified, using default values
  9164  2002                     	org	8194
  9165  2002  3FFF               	dw	16383
  9166                           
  9167                           ;Config register IDLOC3 @ 0x2003
  9168                           ;	unspecified, using default values
  9169  2003                     	org	8195
  9170  2003  3FFF               	dw	16383
  9171                           
  9172                           	psect	config
  9173                           
  9174                           ;Config register CONFIG1 @ 0x2007
  9175                           ;	Oscillator Selection bits
  9176                           ;	FOSC = INTRC_NOCLKOUT, INTOSCIO oscillator: I/O function on RA6/OSC2/CLKOUT pin, I/O f
      +                          unction on RA7/OSC1/CLKIN
  9177                           ;	Watchdog Timer Enable bit
  9178                           ;	WDTE = OFF, WDT disabled and can be enabled by SWDTEN bit of the WDTCON register
  9179                           ;	Power-up Timer Enable bit
  9180                           ;	PWRTE = OFF, PWRT disabled
  9181                           ;	RE3/MCLR pin function select bit
  9182                           ;	MCLRE = OFF, RE3/MCLR pin function is digital input, MCLR internally tied to VDD
  9183                           ;	Code Protection bit
  9184                           ;	CP = OFF, Program memory code protection is disabled
  9185                           ;	Data Code Protection bit
  9186                           ;	CPD = OFF, Data memory code protection is disabled
  9187                           ;	Brown Out Reset Selection bits
  9188                           ;	BOREN = OFF, BOR disabled
  9189                           ;	Internal External Switchover bit
  9190                           ;	IESO = OFF, Internal/External Switchover mode is disabled
  9191                           ;	Fail-Safe Clock Monitor Enabled bit
  9192                           ;	FCMEN = OFF, Fail-Safe Clock Monitor is disabled
  9193                           ;	Low Voltage Programming Enable bit
  9194                           ;	LVP = OFF, RB3 pin has digital I/O, HV on MCLR must be used for programming
  9195                           ;	In-Circuit Debugger Mode bit
  9196                           ;	DEBUG = 0x1, unprogrammed default
  9197  2007                     	org	8199
  9198  2007  20D4               	dw	8404
  9199                           
  9200                           ;Config register CONFIG2 @ 0x2008
  9201                           ;	Brown-out Reset Selection bit
  9202                           ;	BOR4V = BOR21V, Brown-out Reset set to 2.1V
  9203                           ;	Flash Program Memory Self Write Enable bits
  9204                           ;	WRT = OFF, Write protection off
  9205  2008                     	org	8200
  9206  2008  3EFF               	dw	16127

Data Sizes:
    Strings     0
    Constant    36
    Data        20
    BSS         18
    Persistent  0
    Stack       0

Auto Spaces:
    Space          Size  Autos    Used
    COMMON           14     14      14
    BANK0            80     79      79
    BANK1            80     56      80
    BANK3            96     30      44
    BANK2            96      0       0

Pointer List with Targets:

    frexp@eptr	PTR int  size(1) Largest target is 2
		 -> log@exponent(BANK0[2]), 

    eval_poly@d	PTR const  size(1) Largest target is 36
		 -> log@coeff(CODE[36]), 


Critical Paths under _main in COMMON

    None.

Critical Paths under _slave in COMMON

    _log->_frexp
    _frexp->___fleq
    ___flmul->_frexp
    ___xxtofl->__Umul8_16
    ___fladd->_frexp

Critical Paths under _main in BANK0

    None.

Critical Paths under _slave in BANK0

    _slave->_log
    _slave->i1___fltol
    _map->i1___fltol
    i1___fltol->___flsub
    ___fldiv->___flmul
    _log->_eval_poly
    _eval_poly->___flmul
    ___flmul->___fladd
    ___flsub->___fldiv
    ___fladd->___xxtofl

Critical Paths under _main in BANK1

    None.

Critical Paths under _slave in BANK1

    _slave->_map
    _map->i1___fltol
    i1___fltol->___fldiv
    ___flsub->___fldiv

Critical Paths under _main in BANK3

    _setup->_USART_set
    _USART_set->___lldiv
    _servo->_pwm_duty_cycle
    _motor_dc->___fltol

Critical Paths under _slave in BANK3

    None.

Critical Paths under _main in BANK2

    None.

Critical Paths under _slave in BANK2

    None.

Call Graph Tables:

 ---------------------------------------------------------------------------------
 (Depth) Function   	        Calls       Base Space   Used Autos Params    Refs
 ---------------------------------------------------------------------------------
 (0) _main                                                 0     0      0    1741
                            ___fltol
                      _adc_ch_switch
                           _motor_dc
                              _servo
                              _setup
 ---------------------------------------------------------------------------------
 (1) _setup                                                0     0      0     696
                          _USART_set
                           _adc_init
                        _int_osc_MHz
                           _pwm_init
 ---------------------------------------------------------------------------------
 (2) _pwm_init                                             3     3      0      22
                                              0 BANK3      3     3      0
 ---------------------------------------------------------------------------------
 (2) _int_osc_MHz                                          3     3      0      22
                                              0 BANK3      3     3      0
 ---------------------------------------------------------------------------------
 (2) _adc_init                                             5     3      2     218
                                              0 BANK3      5     3      2
 ---------------------------------------------------------------------------------
 (2) _USART_set                                           16    12      4     434
                                             14 BANK3     16    12      4
                            ___lldiv
 ---------------------------------------------------------------------------------
 (3) ___lldiv                                             14     6      8     314
                                              0 BANK3     14     6      8
 ---------------------------------------------------------------------------------
 (1) _servo                                                2     0      2     382
                                              4 BANK3      2     0      2
                         _USART_send
                     _pwm_duty_cycle
 ---------------------------------------------------------------------------------
 (2) _pwm_duty_cycle                                       4     2      2     196
                                              0 BANK3      4     2      2
 ---------------------------------------------------------------------------------
 (1) _motor_dc                                             2     0      2     186
                                             11 BANK3      2     0      2
                         _USART_send
                            ___fltol (ARG)
 ---------------------------------------------------------------------------------
 (2) _USART_send                                           1     1      0      22
                                              0 BANK3      1     1      0
 ---------------------------------------------------------------------------------
 (1) _adc_ch_switch                                        3     3      0      22
                                              0 BANK3      3     3      0
 ---------------------------------------------------------------------------------
 (1) ___fltol                                             11     7      4     455
                                              0 BANK3     11     7      4
 ---------------------------------------------------------------------------------
 Estimated maximum stack depth 3
 ---------------------------------------------------------------------------------
 (Depth) Function   	        Calls       Base Space   Used Autos Params    Refs
 ---------------------------------------------------------------------------------
 (4) _slave                                               24    24      0   40785
                                             32 BANK1     24    24      0
                            ___fladd
                            ___fldiv
                            ___flmul
                            ___flsub
                            ___lwdiv
                           ___xxtofl
                           _adc_read
                                _log
                                _map
                          i1___fltol
 ---------------------------------------------------------------------------------
 (5) _map                                                 10     0     10   10079
                                             22 BANK1     10     0     10
                            ___fladd
                            ___fldiv
                            ___flmul
                           ___xxtofl
                           _adc_read (ARG)
                          i1___fltol
 ---------------------------------------------------------------------------------
 (5) i1___fltol                                           11     7      4     307
                                             77 BANK0      2     2      0
                                             13 BANK1      9     5      4
                            ___fladd (ARG)
                            ___fldiv (ARG)
                            ___flmul (ARG)
                            ___flsub (ARG)
                           ___xxtofl (ARG)
 ---------------------------------------------------------------------------------
 (6) ___fldiv                                             26    18      8    1425
                                             56 BANK0     13     5      8
                                              0 BANK1     13    13      0
                            ___fladd (ARG)
                            ___flmul (ARG)
                           ___xxtofl (ARG)
 ---------------------------------------------------------------------------------
 (5) _log                                                  7     3      4   17358
                                             72 BANK0      7     3      4
                            ___fladd
                             ___fleq
                             ___flge
                            ___flmul
                           ___xxtofl
                          _eval_poly
                              _frexp
 ---------------------------------------------------------------------------------
 (6) _frexp                                                7     2      5     896
                                             12 COMMON     2     2      0
                                              0 BANK0      5     0      5
                             ___fleq
 ---------------------------------------------------------------------------------
 (7) ___fleq                                              12     4      8     520
                                              0 COMMON    12     4      8
 ---------------------------------------------------------------------------------
 (6) _eval_poly                                           16     9      7    7365
                                             56 BANK0     16     9      7
                            ___fladd
                            ___flmul
 ---------------------------------------------------------------------------------
 (6) ___flmul                                             26    18      8    3759
                                             30 BANK0     26    18      8
                          __Umul8_16
                            ___fladd (ARG)
                            ___lwdiv (ARG)
                           ___xxtofl (ARG)
                              _frexp (ARG)
 ---------------------------------------------------------------------------------
 (7) __Umul8_16                                            9     7      2     799
                                              0 COMMON     9     7      2
 ---------------------------------------------------------------------------------
 (6) ___xxtofl                                            14    10      4     854
                                              9 COMMON     4     0      4
                                              0 BANK0     10    10      0
                          __Umul8_16 (ARG)
                            ___lwdiv (ARG)
 ---------------------------------------------------------------------------------
 (6) ___flge                                              12     4      8     460
                                              0 COMMON    12     4      8
 ---------------------------------------------------------------------------------
 (5) _adc_read                                             2     0      2       0
                                              0 COMMON     2     0      2
 ---------------------------------------------------------------------------------
 (5) ___lwdiv                                              8     4      4     314
                                              0 COMMON     8     4      4
 ---------------------------------------------------------------------------------
 (5) ___flsub                                              8     0      8    3397
                                             69 BANK0      8     0      8
                            ___fladd
                            ___fldiv (ARG)
                            ___flmul (ARG)
                           ___xxtofl (ARG)
 ---------------------------------------------------------------------------------
 (6) ___fladd                                             20    12      8    3200
                                             10 BANK0     20    12      8
                          __Umul8_16 (ARG)
                            ___lwdiv (ARG)
                           ___xxtofl (ARG)
                              _frexp (ARG)
 ---------------------------------------------------------------------------------
 Estimated maximum stack depth 7
 ---------------------------------------------------------------------------------

 Call Graph Graphs:

 _main (ROOT)
   ___fltol
   _adc_ch_switch
   _motor_dc
     _USART_send
     ___fltol (ARG)
   _servo
     _USART_send
     _pwm_duty_cycle
   _setup
     _USART_set
       ___lldiv
     _adc_init
     _int_osc_MHz
     _pwm_init

 _slave (ROOT)
   ___fladd
     __Umul8_16 (ARG)
     ___lwdiv (ARG)
     ___xxtofl (ARG)
       __Umul8_16 (ARG)
       ___lwdiv (ARG)
     _frexp (ARG)
       ___fleq
   ___fldiv
     ___fladd (ARG)
     ___flmul (ARG)
       __Umul8_16
       ___fladd (ARG)
       ___lwdiv (ARG)
       ___xxtofl (ARG)
       _frexp (ARG)
     ___xxtofl (ARG)
   ___flmul
   ___flsub
     ___fladd
     ___fldiv (ARG)
     ___flmul (ARG)
     ___xxtofl (ARG)
   ___lwdiv
   ___xxtofl
   _adc_read
   _log
     ___fladd
     ___fleq
     ___flge
     ___flmul
     ___xxtofl
     _eval_poly
       ___fladd
       ___flmul
     _frexp
   _map
     ___fladd
     ___fldiv
     ___flmul
     ___xxtofl
     _adc_read (ARG)
     i1___fltol (ARG)
       ___fladd (ARG)
       ___fldiv (ARG)
       ___flmul (ARG)
       ___flsub (ARG)
       ___xxtofl (ARG)
   i1___fltol

 Address spaces:
Name               Size   Autos  Total    Cost      Usage
BANK3               60     1E      2C       9       45.8%
BITBANK3            60      0       0       8        0.0%
SFR3                 0      0       0       4        0.0%
BITSFR3              0      0       0       4        0.0%
BANK2               60      0       0      11        0.0%
BITBANK2            60      0       0      10        0.0%
SFR2                 0      0       0       5        0.0%
BITSFR2              0      0       0       5        0.0%
BANK1               50     38      50       7      100.0%
BITBANK1            50      0       0       6        0.0%
SFR1                 0      0       0       2        0.0%
BITSFR1              0      0       0       2        0.0%
BANK0               50     4F      4F       5       98.8%
BITBANK0            50      0       0       4        0.0%
SFR0                 0      0       0       1        0.0%
BITSFR0              0      0       0       1        0.0%
COMMON               E      E       E       1      100.0%
BITCOMMON            E      0       0       0        0.0%
CODE                 0      0       0       0        0.0%
DATA                 0      0      D9      12        0.0%
ABS                  0      0      D9       3        0.0%
NULL                 0      0       0       0        0.0%
STACK                0      0       0       2        0.0%
EEDATA             100      0       0       0        0.0%


Microchip Technology PIC Macro Assembler V2.35 build 20211206165544 
Symbol Table                                                                                   Thu Sep 15 18:58:39 2022

                       _A 00E8                         _B 01B6                         _C 01AE  
            ___fldiv@aexp 00AC              ___fldiv@bexp 00AB                         pc 0002  
            ___fldiv@sign 00A4                        _R1 00EC                        _R2 00DC  
                      l89 138A                        l98 07DB                        _TC 00D8  
                      fsr 0004       __Umul8_16@word_mpld 0076                       l101 07F4  
                     l110 1454                       l202 08FF                       l210 0962  
                     l122 1343                       l107 1306                       l140 1241  
                     l117 1342                       l143 124C                       l232 1348  
                     l137 15D3                       l242 1281                       l234 1355  
                     l180 16C5                       l236 137C                       l181 16AB  
                     l182 16AF                       l174 1689                       l238 1380  
                     l183 16CF                       l239 1384                       l176 168D  
                     l521 163A                       l177 1691                       l514 164F  
                     l194 08B0                       l179 16A7                       l524 164F  
                     l364 1566                       l197 08C3                       _PR2 0092  
                     _map 0963                       _log 06B8                       fsr0 0004  
                     indf 0000              i1___fltol@f1 00AD              ___flmul@aexp 0050  
            ___flmul@bexp 0051              ___flmul@sign 004B              ___flmul@temp 0056  
            ___flmul@prod 0052              ___fltol@exp1 019A                      l3000 08EF  
                    l3010 0910                      l3100 1644                      l3020 0932  
                    l3012 0916                      l3004 08F4                      l3022 093F  
                    l3014 091E                      l3006 08FB                      l3016 092B  
                    l3008 0905                      l3032 094F                      l3040 07C8  
                    l2160 1521     adc_ch_switch@channels 0192                      l3026 0944  
                    l3042 07D7                      l2170 154F                      l2162 1525  
                    l2154 14FF                      l3028 094B                      l3044 07DE  
                    l3060 12F4                      l3052 12CD                      l2172 1558  
                    l2164 152E                      l2156 1511                      l3046 07EA  
                    l3062 12F8                      l3054 12D5                      l2166 1540  
                    l2158 1514                      l2174 155E                      l3080 160A  
                    l3072 15EA                      l3048 07EE                      l3056 12DF  
                    l2168 154E                      l2600 1659                      l3082 160E  
                    l3090 1628                      l3074 15FF                      l3066 15D4  
                    l3058 12E8                      l2602 1660                      l2610 1673  
                    l2530 130A                      l3170 1390                      l3076 1600  
                    l3068 15E1                      l2524 1241                      l2604 1667  
                    l2540 1325                      l2532 130B                      l3172 13B8  
                    l3078 1608                      l2526 1246                      l2606 166C  
                    l2614 1695                      l2534 1312                      l3096 162F  
                    l3088 1616                      l2528 1260                      l2536 1319  
                    l2544 132C                      l2560 1358                      l2552 1347  
                    l3168 1385                      l3098 163F                      l3370 16BD  
                    l2618 16B3                      l2538 1320                      l2570 1374  
                    l3362 1368                      l2562 135B                      l2554 134B  
                    l3372 0957                      l3364 1334                      l2572 1378  
                    l2556 134E                      l2590 15CC                      l2582 1567  
                    l3366 167B                      l2574 137B                      l2558 1350  
                    l2566 1360                      l2592 15CF                      l2584 156D  
                    l3368 169F                      l2568 1370                      l2594 15D2  
                    l2586 1570                      l2588 15CB                      l2596 1653  
                    l2598 1654                      l2950 1419                      l2942 140B  
                    ?_map 00B6                      l2960 1426                      l2952 141A  
                    l2944 1411                      l2970 144A                      l2962 1428  
                    l2954 141D                      l2946 1415                      l2980 1453  
                    l2972 144D                      l2964 142E                      l2956 1420  
                    l2948 1416                      l2990 08BF                      l2974 144E  
                    l2966 143D                      l2958 1423                      l2992 08C9  
                    l2984 08AF                      l2976 144F                      l2968 1447  
                    l2994 08D4                      l2986 08B6                      l2978 1450  
                    l2996 08DA                      l2988 08B8                      ?_log 0068  
                    l2998 08E2                      u2100 1525                      u2101 1524  
                    u2120 1540                      u2121 153F                      u3010 1246  
                    u3011 1245                      u2115 1527                      u2140 155E  
                    u3020 1380                      u2141 155D                      u2125 153C  
                    u3021 137F                      u3030 1580                      u2135 1550  
                    u2080 1511                      u3040 1599                      u2081 1510  
                    u3051 15AB                      u3035 157B                      u3052 15AC  
                    u3053 15B1                      u3045 1594                      u3054 15B2  
                    u2095 1516                      u3055 15B7                      u3056 15B8  
                    u4107 08DE                      u4117 08F8                      u4127 091A  
                    u4137 0948                      u3800 093F                      u3801 093E  
                    u4097 08BC                      u3730 08B6                      u3810 07D7  
                    u3731 08B5                      u3811 07D6                      u3900 1615  
                    u3740 08C9                      u3820 07EA                      u3901 1614  
                    u3741 08C8                      u3821 07E9                      u3750 08D4  
                    u3830 12D5                      u3751 08D3                      u3815 07D3  
                    u3831 12D4                      u3920 1627                      u3760 08EF  
                    u3840 12F4                      u3921 1626                      u3761 08EE  
                    u3825 07E6                      u3841 12F3                      u3930 162E  
                    u3770 0905                      u3850 12FF                      u3931 162D  
                    u3915 1617                      u3771 0904                      u3851 12FD  
                    u3780 0910                      u3860 1300                      u3781 090F  
                    u3845 12F0                      u3950 163F                      u3870 15E1  
                    u3790 092B                      u3951 163E                      u3871 15E0  
                    u3791 092A                      u3960 1644                      u3880 15F8  
                    u3961 1643                      u3945 1631                      u3890 160E  
                    u3891 160D                      i1l84 06AB                      u3885 15F3  
                    i1l95 0A1B                      _main 1385                      map@x 00B6  
                    btemp 007E                      log@x 0068                      start 0012  
         ___fldiv@new_exp 00A5            _pwm_duty_cycle 1260                     ??_map 007E  
                   ??_log 006C             ___fltol@sign1 0199           __end_of___fladd 0D60  
                   ?_main 0070           __end_of___fldiv 1000           __end_of___flmul 03A2  
         __end_of___flsub 12A6           __end_of___fltol 1650                     _ANSEL 0188  
         __end_of___lldiv 1567           __end_of___lwdiv 140B                     i1l190 07FE  
                   i1l502 0826                     i1l600 140A                     i1l505 0892  
                   i1l521 174A                     i1l506 08AB                     i1l514 1761  
                   i1l524 1761                     i1l621 0B3B                     i1l701 0FEB  
                   i1l800 17FF                     i1l625 0BE2                     i1l642 0CAD  
                   i1l634 0D5F                     i1l627 0BB9                     i1l723 030D  
                   i1l652 0CF3                     i1l717 03A1                     i1l646 0CD1  
                   i1l806 14FE                     i1l663 0D53                     i1l655 0D31  
                   i1l664 0D5F                     i1l736 12BA                     i1l761 0A40  
                   i1l729 0395                     i1l497 1471                     i1l738 12CC  
                   i1l498 148D                     i1l667 12A5                     i1l763 0AD7  
                   i1l499 14A2                     i1l693 0F53                     i1l677 0DDE  
                   i1l774 0AA1                     i1l775 0AAD                     i1l767 0A85  
                   i1l679 0FFF                     i1l699 0FD3                     i1l788 07C7  
                   _SPBRG 0099                     _PORTD 0008                     _TRISD 0088  
                   _TXREG 0019        adc_init@vref_minus 0191           int_osc_MHz@freq 0192  
                   _logR2 00E0                     _frexp 14A3                     _errno 00E4  
                   _slave 03A2                     map@x0 00B8                     map@x1 00BA  
                   map@y0 00BC                     map@y1 00BE                     _servo 12CD  
                   _setup 140B              ?_int_osc_MHz 0070                     pclath 000A  
          i1___fltol@exp1 006E                     status 0003                     wtemp0 007E  
  __end_of_pwm_duty_cycle 1282           __initialization 0015               ?_USART_send 0070  
             log@exponent 006D              __end_of_main 13C7              _switch_servo 01BA  
                  ??_main 01AE             _adc_ch_switch 08AC                    ?_frexp 0020  
                  _ADRESH 001E                    _ADRESL 009E                    _CCPR1L 0015  
                  ?_slave 0070                    ?_servo 0194                    ?_setup 0070  
                  _ANSELH 0189          __end_of_adc_init 16D0          __end_of_adc_read 07FF  
                  i1l2200 0AEF                    i1l2210 0B07                    i1l2202 0AF4  
                  i1l2300 0C13                    i1l2220 0B1D                    i1l2212 0B0C  
                  i1l2204 0AFC                    i1l2140 12A7                    i1l2310 0C2C  
                  i1l2302 0C1C                    i1l2230 0B31                    i1l2222 0B1E  
                  i1l2214 0B12                    i1l2206 0AFD                    i1l3110 13D9  
                  i1l3102 13C7                    i1l2150 12C8                    i1l2142 12A9  
                  i1l2320 0C90                    i1l2304 0C1E                    i1l2312 0C31  
                  i1l2240 0B4D                    i1l2224 0B23                    i1l2232 0B33  
                  i1l2216 0B13                    i1l2208 0AFF                    i1l3120 13F9  
                  i1l3112 13DD                    i1l3104 13C9                    i1l2144 12B0  
                  i1l2400 0067                    i1l2330 0CC3                    i1l2314 0C47  
                  i1l2322 0C9F                    i1l2306 0C22                    i1l2250 0B61  
                  i1l2242 0B51                    i1l2234 0B41                    i1l2226 0B28  
                  i1l2218 0B19                    i1l3130 1286                    i1l3122 1400  
                  i1l3114 13E1                    i1l3106 13CF                    i1l2146 12B4  
                  i1l2410 007F                    i1l2402 006F                    i1l2340 0CDA  
                  i1l2332 0CCC                    i1l2324 0CB5                    i1l2316 0C85  
                  i1l2308 0C23                    i1l2260 0B75                    i1l2252 0B65  
                  i1l2244 0B55                    i1l2236 0B45                    i1l2228 0B30  
                  i1l3116 13F2                    i1l3108 13D2                    i1l3124 1406  
                  i1l2148 12C3                    i1l2500 0342                    i1l2420 009B  
                  i1l2412 0084                    i1l2404 0074                    i1l2180 1469  
                  i1l3140 03B3                    i1l2350 0CEA                    i1l2342 0CDF  
                  i1l2334 0CD0                    i1l2326 0CBA                    i1l2318 0C8B  
                  i1l2270 0B86                    i1l2262 0B79                    i1l2254 0B69  
                  i1l2246 0B59                    i1l2238 0B49                    i1l2190 0AD8  
                  i1l3118 13F8                    i1l2510 0379                    i1l2502 0348  
                  i1l2430 00BE                    i1l2422 00A0                    i1l2414 0089  
                  i1l2406 007A                    i1l2182 1485                    i1l3150 0467  
                  i1l3142 03B7                    i1l3134 03A2                    i1l2360 0D0B  
                  i1l2352 0CF0                    i1l2336 0CD5                    i1l2344 0CE1  
                  i1l2280 0BCC                    i1l2272 0B9D                    i1l2264 0B7D  
                  i1l2256 0B6D                    i1l2248 0B5D                    i1l2192 0ADF  
                  i1l3128 1282                    i1l2520 0399                    i1l2512 037B  
                  i1l2504 0355                    i1l2440 014C                    i1l2432 00CB  
                  i1l2424 00A5                    i1l2416 0091                    i1l2408 007E  
                  i1l2184 149F                    i1l3160 0633                    i1l3152 049A  
                  i1l3136 03A6                    i1l3144 03B8                    i1l2370 0D43  
                  i1l2362 0D0F                    i1l2338 0CD8                    i1l2346 0CE5  
                  i1l2290 0BEB                    i1l2282 0BCD                    i1l2274 0BBD  
                  i1l2266 0B81                    i1l2258 0B71                    i1l2194 0AE5  
                  i1l2514 0389                    i1l2506 0360                    i1l2450 01AE  
                  i1l2442 0168                    i1l2434 00E8                    i1l2418 0093  
                  i1l2186 14A1                    i1l2178 1455                    i1l3162 0696  
                  i1l3154 04E7                    i1l3146 03BE                    i1l3138 03AC  
                  i1l2380 0D5A                    i1l2372 0D48                    i1l2364 0D2D  
                  i1l2356 0CF8                    i1l2348 0CE6                    i1l2284 0BD6  
                  i1l2276 0BC6                    i1l2268 0B85                    i1l2196 0AE9  
                  i1l2516 038D                    i1l2508 036F                    i1l2460 023E  
                  i1l2452 01CB                    i1l2444 0171                    i1l2436 0104  
                  i1l2428 00AE                    i1l2700 0DF2                    i1l3156 0532  
                  i1l3148 03C9                    i1l3164 06A9                    i1l2382 0D5E  
                  i1l2374 0D49                    i1l2366 0D36                    i1l2358 0CFD  
                  i1l2294 0BF4                    i1l2278 0BC8                    i1l2286 0BDA  
                  i1l2198 0AEA                    i1l2518 038E                    i1l2470 02D0  
                  i1l2462 026B                    i1l2454 01E4                    i1l2446 0181  
                  i1l2438 0130                    i1l2390 0052                    i1l2702 0DFA  
                  i1l3158 05A6                    i1l2376 0D4D                    i1l2368 0D3B  
                  i1l2296 0C0B                    i1l2288 0BE6                    i1l2640 081E  
                  i1l2800 0A1F                    i1l2472 02D9                    i1l2480 02ED  
                  i1l2464 0291                    i1l2456 0201                    i1l2448 019E  
                  i1l2392 0053                    i1l2384 0041                    i1l2720 0E5F  
                  i1l2712 0E15                    i1l2378 0D4F                    i1l2298 0C0F  
                  i1l2650 086E                    i1l2642 083A                    i1l2802 0A24  
                  i1l2482 02F1                    i1l2474 02DD                    i1l2466 02B9  
                  i1l2458 022E                    i1l2394 0058                    i1l2386 0048  
                  i1l2730 0E87                    i1l2722 0E61                    i1l2714 0E33  
                  i1l2706 0E03                    i1l2652 08A8                    i1l2644 0842  
                  i1l2820 0A6E                    i1l2812 0A51                    i1l2804 0A28  
                  i1l2492 0312                    i1l2484 02F2                    i1l2476 02DE  
                  i1l2468 02C2                    i1l2396 005D                    i1l2388 004E  
                  i1l2724 0E66                    i1l2732 0E95                    i1l2740 0EE7  
                  i1l2716 0E4B                    i1l2708 0E0A                    i1l2660 0D69  
                  i1l2910 07F5                    i1l2654 08AA                    i1l2646 0846  
                  i1l2638 080A                    i1l2830 0AA5                    i1l2822 0A7C  
                  i1l2814 0A56                    i1l2806 0A38                    i1l2494 0317  
                  i1l2486 02F6                    i1l2478 02E7                    i1l2398 0065  
                  i1l2750 0F06                    i1l2742 0EED                    i1l2734 0EB6  
                  i1l2726 0E7E                    i1l2718 0E55                    i1l2670 0D88  
                  i1l2662 0D73                    i1l2912 07F8                    i1l2648 086A  
                  i1l2840 0ACF                    i1l2832 0AAF                    i1l2824 0A8C  
                  i1l2816 0A63                    i1l2808 0A48                    i1l2496 0325  
                  i1l2488 030A                    i1l2920 06B8                    i1l2760 0F28  
                  i1l2752 0F09                    i1l2744 0EF5                    i1l2736 0EB7  
                  i1l2728 0E84                    i1l2680 0DA7                    i1l2672 0D92  
                  i1l2664 0D79                    i1l2904 173B                    i1l2834 0AC5  
                  i1l2826 0A97                    i1l2818 0A6A                    i1l2498 0329  
                  i1l2922 06D3                    i1l2770 0F5F                    i1l2762 0F2C  
                  i1l2754 0F17                    i1l2746 0EF7                    i1l2738 0EDF  
                  i1l2690 0DC6                    i1l2682 0DB1                    i1l2674 0D94  
                  i1l2666 0D7C                    i1l2658 0D60                    i1l2906 174F  
                  i1l2836 0ACA                    i1l2828 0A9B                    i1l2860 14FE  
                  i1l2852 14CF                    i1l2844 14A3                    i1l2932 0710  
                  i1l2780 0FA3                    i1l2772 0F6F                    i1l2764 0F4E  
                  i1l2748 0F00                    i1l2756 0F1F                    i1l2692 0DD0  
                  i1l2684 0DB7                    i1l2668 0D83                    i1l2676 0D96  
                  i1l2908 1754                    i1l2916 0963                    i1l2838 0ACE  
                  i1l2870 17F7                    i1l2854 14EC                    i1l2846 14BE  
                  i1l2934 075B                    i1l2926 06E4                    i1l2790 0FDD  
                  i1l2782 0FB3                    i1l2774 0F73                    i1l2758 0F25  
                  i1l2694 0DD2                    i1l2686 0DBA                    i1l2678 0DA0  
                  u220_20 0AF4                    u300_20 038D                    i1l2864 1762  
                  i1l2856 14F9                    i1l2848 14C6                    i1l2936 0761  
                  i1l2928 06FF                    i1l2792 0FE1                    i1l2784 0FC2  
                  i1l2776 0F8C                    i1l2768 0F58                    i1l2688 0DC1  
                  i1l2696 0DD4                    i1l2880 16EA                    u220_21 0AF3  
                  u300_21 038C                    i1l2866 1791                    i1l2858 14FD  
                  i1l2938 0780                    i1l2794 0FE5                    i1l2786 0FC6  
                  i1l2778 0F94                    i1l2698 0DE6                    i1l2890 1716  
                  i1l2882 1703                    i1l2874 16D0                    i1l2868 17F1  
                  i1l2788 0FD0                    i1l2884 1706                    i1l2876 16DF  
                  i1l2886 170E                    u221_20 0B12                    u205_20 12B4  
                  i1l2896 171E                    i1l2888 1712                    u221_21 0B11  
                  u205_21 12B3                    i1l2898 1734                    u230_20 0BBD  
                  u222_20 0B1D                    u310_20 086E                    u230_21 0BBC  
                  u222_21 0B1C                    u310_21 086D                    u206_25 12BB  
                  u231_20 0BCC                    u223_20 0B23                    u207_20 12C8  
                  u215_20 1469                    u231_21 0BCB                    u223_21 0B22  
                  u311_21 087D                    u207_21 12C7                    u215_21 1468  
                  u311_22 087E                    u311_23 0883                    u311_24 0884  
                  u311_25 0889                    u311_26 088A                    u224_20 0B28  
                  u312_20 08A8                    u216_20 1485                    u320_20 0E0A  
                  u224_21 0B27                    u312_21 08A7                    u216_21 1484  
                  u320_21 0E09                    u240_25 0C25                    u232_25 0BCF  
                  u400_25 13E2                    u312_25 08A4                    u241_20 0C47  
                  u233_20 0BE2                    u225_20 0B41                    u401_20 13F2  
                  u217_20 149F                    u321_20 0E66                    u313_20 0D79  
                  u241_21 0C46                    u233_21 0BE1                    u225_21 0B40  
                  u401_21 13F1                    u217_21 149E                    u321_21 0E65  
                  u313_21 0D78                    u241_23 0C43                    u401_25 13EE  
                  u217_25 149B                    u250_20 0CDF                    u234_20 0BE6  
                  u226_20 0B45                    u218_20 0AE9                    u306_20 081E  
                  u314_20 0D83                    u250_21 0CDE                    u242_21 0C5E  
                  u234_21 0BE5                    u226_21 0B44                    u218_21 0AE8  
                  u306_21 081D                    u314_21 0D82                    u242_22 0C5F  
                  u242_23 0C64                    u242_24 0C65                    u242_25 0C6A  
                  u402_25 13FA                    u330_25 0EF9                    u322_25 0E6A  
                  u242_26 0C6B                    u251_20 0CE5                    u243_20 0C72  
                  u235_20 0BEB                    u227_20 0B9D                    u219_20 0AEF  
                  u403_20 1406                    u307_20 083A                    u331_20 0F06  
                  u315_20 0D88                    u251_21 0CE4                    u243_21 0C73  
                  u235_21 0BEA                    u227_21 0B9C                    u219_21 0AEE  
                  u403_21 1405                    u307_21 0839                    u331_21 0F05  
                  u315_21 0D87                    u243_22 0C78                    u243_23 0C79  
                  u227_25 0B99                    u323_25 0E77                    u260_20 0D3B  
                  u252_20 0CEA                    u244_20 0C90                    u228_20 0BA8  
                  u308_20 0846                    u340_20 0FA3                    u324_20 0E84  
                  u316_20 0DB7                    u404_20 03A6                    u260_21 0D3A  
                  u252_21 0CE9                    u244_21 0C8F                    u236_21 0BFD  
                  u228_21 0BA6                    u308_21 0845                    u340_21 0FA2  
                  u324_21 0E83                    u316_21 0DB6                    u404_21 03A5  
                  u236_22 0C04                    u236_23 0C0B                    u340_25 0F9F  
                  u332_25 0F0C                    u261_20 0D48                    u253_20 0CF0  
                  u245_20 0CB5                    u237_20 0C0F                    u229_20 0BA9  
                  u341_20 0FC2                    u333_20 0F25                    u317_20 0DC1  
                  u405_20 03AC                    u261_21 0D47                    u253_21 0CEF  
                  u245_21 0CB4                    u237_21 0C0E                    u309_21 0855  
                  u341_21 0FC1                    u333_21 0F24                    u317_21 0DC0  
                  u405_21 03AB                    u309_22 0856                    u309_23 085B  
                  u309_24 085C                    u309_25 0861                    u341_25 0FBE  
                  u325_25 0E8A                    u309_26 0862                    u262_20 0D4D  
                  u254_20 0CF7                    u246_20 0CBA                    u238_20 0C13  
                  u270_20 00A0                    u342_20 0FE1                    u334_20 0F2C  
                  u326_20 0EB6                    u318_20 0DC6                    u406_20 03BE  
                  u262_21 0D4C                    u254_21 0CF6                    u246_21 0CB9  
                  u238_21 0C12                    u270_21 009F                    u342_21 0FE0  
                  u334_21 0F2B                    u326_21 0EB5                    u318_21 0DC5  
                  u406_21 03BD                    u350_25 0A90                    u326_25 0EB2  
                  u263_20 0D5E                    u255_20 0CFD                    u239_20 0C22  
                  u351_20 0A9B                    u343_20 0A24                    u271_20 00A5  
                  u335_20 0F4E                    u327_20 0EDB                    u319_20 0DE6  
                  u407_20 03C9                    u263_21 0D5D                    u255_21 0CFC  
                  u239_21 0C21                    u351_21 0A9A                    u343_21 0A23  
                  u271_21 00A4                    u335_21 0F4D                    u319_21 0DE5  
                  u407_21 03C8                    u247_25 0CC5                    u327_25 0EC4  
                  u327_26 0EC7                    u327_27 0ECE                    u256_20 0D0F  
                  u248_20 0CD0                    u352_20 0AA1                    u344_20 0A28  
                  u264_20 0052                    u360_20 17F7                    u336_20 0F57  
                  u328_20 0EED                    u327_28 0ED1                    u256_21 0D0E  
                  u248_21 0CCF                    u352_21 0AA0                    u344_21 0A27  
                  u280_21 01F3                    u272_21 00F6                    u264_21 0051  
                  u360_21 17F6                    u336_21 0F56                    u328_21 0EEC  
                  u327_29 0ED8                    u280_22 01FA                    u272_22 00FD  
                  u280_23 0201                    u272_23 0104                    u257_20 0D1E  
                  u249_20 0CD5                    u353_20 0AA5                    u345_20 0A48  
                  u265_20 0058                    u337_20 0F5F                    u329_20 0EF5  
                  u361_20 16DF                    u249_21 0CD4                    u353_21 0AA4  
                  u345_21 0A47                    u281_21 0220                    u273_21 0112  
                  u265_21 0057                    u337_21 0F5E                    u329_21 0EF4  
                  u361_21 16DE                    u281_22 0227                    u273_22 0119  
                  u281_23 022E                    u273_23 0120                    u257_25 0D19  
                  u258_20 0D2D                    u354_20 0ABA                    u266_20 005D  
                  u338_20 0F73                    u370_20 1754                    u362_20 16FA  
                  u258_21 0D2C                    u282_21 024D                    u274_21 013E  
                  u266_21 005C                    u338_21 0F72                    u370_21 1753  
                  u282_22 0254                    u274_22 0145                    u282_23 025B  
                  u274_23 014C                    u354_25 0AB5                    u346_25 0A5B  
                  u290_25 02E0                    u362_25 16F5                    u259_20 0D36  
                  u355_20 0ACA                    u347_20 0A69                    u291_20 02F1  
                  u283_20 0277                    u267_20 007E                    u371_20 06D3  
                  u339_20 0F82                    u363_20 1716                    u259_21 0D35  
                  u355_21 0AC9                    u347_21 0A68                    u291_21 02F0  
                  u275_21 015A                    u267_21 007D                    u371_21 06D2  
                  u363_21 1715                    u275_22 0161                    u275_23 0168  
                  u283_25 0272                    u339_25 0F7D                    u356_20 0ACE  
                  u292_20 02F6                    u268_20 0084                    u372_20 06FF  
                  u364_20 171D                    u356_21 0ACD                    u292_21 02F5  
                  u284_21 0283                    u268_21 0083                    u372_21 06FE  
                  u364_21 171C                    u284_22 028A                    u284_23 0291  
                  u348_25 0A7D                    u276_25 016A                    u349_20 0A8B  
                  u293_20 030A                    u285_20 029F                    u269_20 0089  
                  u357_20 14BE                    u349_21 0A8A                    u293_21 0309  
                  u277_21 0190                    u269_21 0088                    u357_21 14BD  
                  u277_22 0197                    u277_23 019E                    u285_25 029A  
                  u365_25 171F                    u294_20 0311                    u366_20 1733  
                  u294_21 0310                    u286_21 02AB                    u278_21 01BD  
                  u366_21 1732                    u286_22 02B2                    u278_22 01C4  
                  u286_23 02B9                    u278_23 01CB                    u358_25 1767  
                  u295_20 0317                    u367_20 173A                    u295_21 0316  
                  u367_21 1739                    u287_25 02BB                    u279_25 01CD  
                  u359_25 179A                    u296_20 0329                    u296_21 0328  
                  u288_25 02D2                    u368_25 173F                    u297_20 0338  
                  u289_20 02DD                    u369_20 174F                    u289_21 02DC  
                  u369_21 174E                    u297_25 0333                    u298_20 0355  
                  u298_21 0354                    u298_25 0351                    u299_20 036F  
                  u299_21 036E                    u299_25 036B                    u397_20 13CF  
                  u397_21 13CE                    u398_25 13D3                    u399_20 13E1  
                  u399_21 13E0                    _SPBRGH 009A          __end_of___xxtofl 0AD8  
         ?_pwm_duty_cycle 0190                    ___flge 080A                    ___fleq 1455  
               ??___fladd 0032                 ??___fldiv 0060                 ??___flmul 0046  
               ??___flsub 007E                 ??___fltol 0194                 ??___lldiv 0198  
               ??___lwdiv 0074            ?_adc_ch_switch 0070         __end_of_USART_set 15D4  
       __end_ofi1___fltol 1762          __end_of_motor_dc 07F5                    saved_w 007E  
         i1___fltol@sign1 006D          __end_of_pwm_init 1385           pwm_init@channel 0192  
              ___flge@ff1 0070                ___flge@ff2 0074              ___xxtofl@arg 0026  
            ___xxtofl@exp 0025              ___xxtofl@val 0079                ___fleq@ff1 0070  
              ___fleq@ff2 0074          __end_oflog@coeff 102A   __end_of__initialization 003D  
            eval_poly@res 0064                ___fltol@f1 0190            __pcstackCOMMON 0070  
            __pidataBANK1 0802              __pidataBANK3 1232             __end_of_frexp 14FF  
           __end_of_slave 06B8             __end_of_servo 1307             __end_of_setup 1455  
          _OPTION_REGbits 0081            adc_init@adc_cs 0194                   ??_frexp 007C  
                 ??_slave 00C0                   ??_servo 0196                   ??_setup 01AE  
              __pbssBANK1 00D8                __pbssBANK3 01BA         __end_of__Umul8_16 12CD  
              __pmaintext 1385                   ?___flge 0070                   ?___fleq 0070  
              __pintentry 0004                   _CCP1CON 0017                   _CCP2CON 001D  
         ??_adc_ch_switch 0190                 ?_adc_init 0190                 ?_adc_read 0070  
               ?___xxtofl 0079                __stringtab 1000              ??_USART_send 0190  
               ?_motor_dc 019B                   ___fladd 0AD8                   ___fldiv 0D60  
                 ___flmul 0041                   ___flsub 1282                   ___fltol 15D4  
                 ___lldiv 14FF                 ?_pwm_init 0070                   ___lwdiv 13C7  
       __end_of_eval_poly 1800                ??_adc_init 0192                ??_adc_read 0072  
                 __ptext1 140B                   __ptext2 1344                   __ptext3 1307  
                 __ptext4 1650                   __ptext5 1567                   __ptext6 14FF  
                 __ptext7 12CD                   __ptext8 1260                   __ptext9 07C8  
               _T2CONbits 0012                ??___xxtofl 0020                   clrloop0 122B  
      __end_of_USART_send 124D      end_of_initialization 003D                _slave$1495 00C8  
              _slave$1496 00CC                _slave$1497 00D0                _slave$1498 00D4  
        ??_pwm_duty_cycle 0192           ___lldiv@divisor 0190           ___lldiv@counter 019D  
              ??_motor_dc 019D                 _RCSTAbits 0018                ??_pwm_init 0190  
               _PORTBbits 0006               ___fladd@grs 003D             ___xxtofl@sign 0024  
               _TRISAbits 0085                 _TRISBbits 0086                 _TRISCbits 0087  
               _USART_set 1567               ___fldiv@grs 00A7                 i1___fltol 16D0  
             ___fldiv@rem 00A0               ___flmul@grs 004C               _CCP1CONbits 0017  
             _CCP2CONbits 001D                 _TXSTAbits 0098            __end_of___flge 08AC  
          __end_of___fleq 14A3         adc_init@vref_plus 0190               _BAUDCTLbits 0187  
     start_initialization 0015                eval_poly@d 005C                eval_poly@n 005D  
              eval_poly@x 0058                ?_USART_set 019E               __end_of_map 0A1C  
             __end_of_log 07C8                ?i1___fltol 00AD            USART_send@data 0190  
              frexp@value 0020         USART_set@baudrate 019E                  ??___flge 0078  
                ??___fleq 0078                init_fetch0 124D                 __Umul8_16 12A6  
             __pdataBANK1 00E8               __pdataBANK3 01AE                 ___fladd@a 002E  
               ___fladd@b 002A                 ___fldiv@a 0058                 ___fldiv@b 005C  
               ___flmul@a 0042                 ___flmul@b 003E                 ___flsub@a 0065  
               ___flsub@b 0069                 ___latbits 0002             __pcstackBANK0 0020  
           __pcstackBANK1 00A0             __pcstackBANK3 0190             ??_int_osc_MHz 0190  
        ___lwdiv@dividend 0072  pwm_duty_cycle@duty_cycle 0190                  ?___fladd 002A  
                ?___fldiv 0058                  ?___flmul 003E                  ?___flsub 0065  
                ?___fltol 0190                  ?___lldiv 0190                ?__Umul8_16 0070  
                ?___lwdiv 0070                 __pstrings 1000     __end_of_adc_ch_switch 0963  
               _eval_poly 1762               ??_USART_set 01A2               ??i1___fltol 00B1  
        ___lwdiv@quotient 0075         interrupt_function 0004                  _IOCBbits 0096  
               clear_ram0 122A                  _PIE1bits 008C       __end_of_int_osc_MHz 1344  
                _OLD_TEMP 01B2                  _PIR1bits 000C                  _TEMP_POT 00E6  
              _ADCON0bits 001F               __stringbase 1005                _ADCON1bits 009F  
                _WPUBbits 0095                ?_eval_poly 0058                 frexp@eptr 0024  
             ??__Umul8_16 0072        __end_of__stringtab 1006                  _adc_init 1650  
                _adc_read 07F5                  ___xxtofl 0A1C           ___lwdiv@divisor 0070  
         ___lwdiv@counter 0077                  __ptext10 123E                  __ptext11 08AC  
                __ptext20 1762                  __ptext12 15D4                  __ptext21 0041  
                __ptext13 03A2                  __ptext22 12A6                  __ptext14 0963  
                __ptext23 0A1C                  __ptext15 16D0                  __ptext24 080A  
                __ptext16 0D60                  __ptext25 07F5                  __ptext17 06B8  
                __ptext26 13C7                  __ptext18 14A3                  __ptext27 1282  
                __ptext19 1455                  __ptext28 0AD8               _int_osc_MHz 1307  
                _last_mov 01B4                  _motor_dc 07C8                  _pwm_init 1344  
                log@coeff 1006                _INTCONbits 000B               ??_eval_poly 005F  
                init_ram0 1251                  intlevel1 0000          ___lldiv@dividend 0194  
               stringcode 1000              motor_dc@temp 019B                _OSCCONbits 008F  
                servo@mov 0194    __Umul8_16@multiplicand 0070          ___lldiv@quotient 0199  
                stringdir 1000                  stringtab 1000             ___fladd@signs 003A  
            ___fladd@aexp 003B              ___fladd@bexp 003C      __Umul8_16@multiplier 0078  
       __Umul8_16@product 0074                _USART_send 123E  
