

Microchip MPLAB XC8 Assembler V2.35 build 20211206165544 
                                                                                               Mon Sep 19 12:06:27 2022

Microchip MPLAB XC8 C Compiler v2.35 (Free license) build 20211206165544 Og1 
     1                           	processor	16F887
     2                           	pagewidth 120
     3                           	opt	flic
     4                           	psect	idataBANK1,global,class=CODE,delta=2,noexec
     5                           	psect	idataBANK3,global,class=CODE,delta=2,noexec
     6                           	psect	strings,global,class=STRING,delta=2,noexec
     7                           	psect	cinit,global,class=CODE,merge=1,delta=2
     8                           	psect	bssBANK1,global,class=BANK1,space=1,delta=1,noexec
     9                           	psect	dataBANK1,global,class=BANK1,space=1,delta=1,noexec
    10                           	psect	bssBANK3,global,class=BANK3,space=1,delta=1,noexec
    11                           	psect	dataBANK3,global,class=BANK3,space=1,delta=1,noexec
    12                           	psect	inittext,global,class=CODE,delta=2
    13                           	psect	cstackBANK3,global,class=BANK3,space=1,delta=1,noexec
    14                           	psect	cstackBANK1,global,class=BANK1,space=1,delta=1,noexec
    15                           	psect	cstackCOMMON,global,class=COMMON,space=1,delta=1,noexec
    16                           	psect	cstackBANK0,global,class=BANK0,space=1,delta=1,noexec
    17                           	psect	maintext,global,class=CODE,split=1,delta=2
    18                           	psect	text1,local,class=CODE,merge=1,delta=2
    19                           	psect	text2,local,class=CODE,merge=1,delta=2
    20                           	psect	text3,local,class=CODE,merge=1,delta=2
    21                           	psect	text4,local,class=CODE,merge=1,delta=2
    22                           	psect	text5,local,class=CODE,merge=1,delta=2
    23                           	psect	text6,local,class=CODE,merge=1,delta=2
    24                           	psect	text7,local,class=CODE,merge=1,delta=2,group=1
    25                           	psect	text8,local,class=CODE,merge=1,delta=2
    26                           	psect	text9,local,class=CODE,merge=1,delta=2
    27                           	psect	text10,local,class=CODE,merge=1,delta=2
    28                           	psect	text11,local,class=CODE,merge=1,delta=2
    29                           	psect	text12,local,class=CODE,merge=1,delta=2,group=1
    30                           	psect	text13,local,class=CODE,merge=1,delta=2
    31                           	psect	text14,local,class=CODE,merge=1,delta=2
    32                           	psect	text15,local,class=CODE,merge=1,delta=2,group=1
    33                           	psect	text16,local,class=CODE,merge=1,delta=2
    34                           	psect	text17,local,class=CODE,merge=1,delta=2
    35                           	psect	text18,local,class=CODE,merge=1,delta=2
    36                           	psect	text19,local,class=CODE,merge=1,delta=2
    37                           	psect	text20,local,class=CODE,merge=1,delta=2
    38                           	psect	text21,local,class=CODE,merge=1,delta=2
    39                           	psect	text22,local,class=CODE,merge=1,delta=2
    40                           	psect	text23,local,class=CODE,merge=1,delta=2
    41                           	psect	intentry,global,class=CODE,delta=2
    42                           	psect	text24,local,class=CODE,merge=1,delta=2
    43                           	psect	text25,local,class=CODE,merge=1,delta=2
    44                           	psect	text26,local,class=CODE,merge=1,delta=2,group=1
    45                           	psect	text27,local,class=CODE,merge=1,delta=2,group=2
    46                           	psect	text28,local,class=CODE,merge=1,delta=2,group=2
    47                           	psect	text29,local,class=CODE,merge=1,delta=2,group=1
    48                           	psect	text30,local,class=CODE,merge=1,delta=2,group=2
    49                           	psect	text31,local,class=CODE,merge=1,delta=2,group=1
    50                           	psect	text32,local,class=CODE,merge=1,delta=2,group=1
    51                           	psect	text33,local,class=CODE,merge=1,delta=2,group=1
    52                           	psect	text34,local,class=CODE,merge=1,delta=2,group=1
    53                           	psect	text35,local,class=CODE,merge=1,delta=2
    54                           	psect	text36,local,class=CODE,merge=1,delta=2,group=1
    55                           	psect	text37,local,class=CODE,merge=1,delta=2,group=1
    56                           	psect	text38,local,class=CODE,merge=1,delta=2,group=1
    57                           	psect	idloc,global,abs,ovrld,class=IDLOC,space=5,delta=2,noexec
    58                           	psect	config,global,abs,ovrld,class=CONFIG,space=4,delta=2,noexec
    59                           	dabs	1,0x7E,2
    60  0000                     
    61                           ; Version 2.40
    62                           ; Generated 17/11/2021 GMT
    63                           ; 
    64                           ; Copyright © 2021, Microchip Technology Inc. and its subsidiaries ("Microchip")
    65                           ; All rights reserved.
    66                           ; 
    67                           ; This software is developed by Microchip Technology Inc. and its subsidiaries ("Microch
      +                          ip").
    68                           ; 
    69                           ; Redistribution and use in source and binary forms, with or without modification, are
    70                           ; permitted provided that the following conditions are met:
    71                           ; 
    72                           ;     1. Redistributions of source code must retain the above copyright notice, this lis
      +                          t of
    73                           ;        conditions and the following disclaimer.
    74                           ; 
    75                           ;     2. Redistributions in binary form must reproduce the above copyright notice, this 
      +                          list
    76                           ;        of conditions and the following disclaimer in the documentation and/or other
    77                           ;        materials provided with the distribution. Publication is not required when
    78                           ;        this file is used in an embedded application.
    79                           ; 
    80                           ;     3. Microchip's name may not be used to endorse or promote products derived from th
      +                          is
    81                           ;        software without specific prior written permission.
    82                           ; 
    83                           ; THIS SOFTWARE IS PROVIDED BY MICROCHIP "AS IS" AND ANY EXPRESS OR IMPLIED WARRANTIES,
    84                           ; INCLUDING, BUT NOT LIMITED TO, THE IMPLIED WARRANTIES OF MERCHANTABILITY AND FITNESS F
      +                          OR
    85                           ; PURPOSE ARE DISCLAIMED.  IN NO EVENT SHALL MICROCHIP BE LIABLE FOR ANY DIRECT, INDIREC
      +                          T,
    86                           ; INCIDENTAL, SPECIAL, EXEMPLARY, OR CONSEQUENTIAL DAMAGES (INCLUDING BUT NOT LIMITED TO
    87                           ; PROCUREMENT OF SUBSTITUTE GOODS OR SERVICES; LOSS OF USE, DATA OR PROFITS; OR BUSINESS
    88                           ; INTERRUPTION) HOWSOEVER CAUSED AND ON ANY THEORY OF LIABILITY, WHETHER IN CONTRACT, ST
      +                          RICT
    89                           ; LIABILITY, OR TORT (INCLUDING NEGLIGENCE OR OTHERWISE) ARISING IN ANY WAY OUT OF THE U
      +                          SE OF
    90                           ; THIS SOFTWARE, EVEN IF ADVISED OF THE POSSIBILITY OF SUCH DAMAGE.
    91                           ; 
    92                           ; 
    93                           ; Code-generator required, PIC16F887 Definitions
    94                           ; 
    95                           ; SFR Addresses
    96  0000                     	;# 
    97  0001                     	;# 
    98  0002                     	;# 
    99  0003                     	;# 
   100  0004                     	;# 
   101  0005                     	;# 
   102  0006                     	;# 
   103  0007                     	;# 
   104  0008                     	;# 
   105  0009                     	;# 
   106  000A                     	;# 
   107  000B                     	;# 
   108  000C                     	;# 
   109  000D                     	;# 
   110  000E                     	;# 
   111  000E                     	;# 
   112  000F                     	;# 
   113  0010                     	;# 
   114  0011                     	;# 
   115  0012                     	;# 
   116  0013                     	;# 
   117  0014                     	;# 
   118  0015                     	;# 
   119  0015                     	;# 
   120  0016                     	;# 
   121  0017                     	;# 
   122  0018                     	;# 
   123  0019                     	;# 
   124  001A                     	;# 
   125  001B                     	;# 
   126  001B                     	;# 
   127  001C                     	;# 
   128  001D                     	;# 
   129  001E                     	;# 
   130  001F                     	;# 
   131  0081                     	;# 
   132  0085                     	;# 
   133  0086                     	;# 
   134  0087                     	;# 
   135  0088                     	;# 
   136  0089                     	;# 
   137  008C                     	;# 
   138  008D                     	;# 
   139  008E                     	;# 
   140  008F                     	;# 
   141  0090                     	;# 
   142  0091                     	;# 
   143  0092                     	;# 
   144  0093                     	;# 
   145  0093                     	;# 
   146  0093                     	;# 
   147  0094                     	;# 
   148  0095                     	;# 
   149  0096                     	;# 
   150  0097                     	;# 
   151  0098                     	;# 
   152  0099                     	;# 
   153  009A                     	;# 
   154  009B                     	;# 
   155  009C                     	;# 
   156  009D                     	;# 
   157  009E                     	;# 
   158  009F                     	;# 
   159  0105                     	;# 
   160  0107                     	;# 
   161  0108                     	;# 
   162  0109                     	;# 
   163  010C                     	;# 
   164  010C                     	;# 
   165  010D                     	;# 
   166  010E                     	;# 
   167  010F                     	;# 
   168  0185                     	;# 
   169  0187                     	;# 
   170  0188                     	;# 
   171  0189                     	;# 
   172  018C                     	;# 
   173  018D                     	;# 
   174  0000                     	;# 
   175  0001                     	;# 
   176  0002                     	;# 
   177  0003                     	;# 
   178  0004                     	;# 
   179  0005                     	;# 
   180  0006                     	;# 
   181  0007                     	;# 
   182  0008                     	;# 
   183  0009                     	;# 
   184  000A                     	;# 
   185  000B                     	;# 
   186  000C                     	;# 
   187  000D                     	;# 
   188  000E                     	;# 
   189  000E                     	;# 
   190  000F                     	;# 
   191  0010                     	;# 
   192  0011                     	;# 
   193  0012                     	;# 
   194  0013                     	;# 
   195  0014                     	;# 
   196  0015                     	;# 
   197  0015                     	;# 
   198  0016                     	;# 
   199  0017                     	;# 
   200  0018                     	;# 
   201  0019                     	;# 
   202  001A                     	;# 
   203  001B                     	;# 
   204  001B                     	;# 
   205  001C                     	;# 
   206  001D                     	;# 
   207  001E                     	;# 
   208  001F                     	;# 
   209  0081                     	;# 
   210  0085                     	;# 
   211  0086                     	;# 
   212  0087                     	;# 
   213  0088                     	;# 
   214  0089                     	;# 
   215  008C                     	;# 
   216  008D                     	;# 
   217  008E                     	;# 
   218  008F                     	;# 
   219  0090                     	;# 
   220  0091                     	;# 
   221  0092                     	;# 
   222  0093                     	;# 
   223  0093                     	;# 
   224  0093                     	;# 
   225  0094                     	;# 
   226  0095                     	;# 
   227  0096                     	;# 
   228  0097                     	;# 
   229  0098                     	;# 
   230  0099                     	;# 
   231  009A                     	;# 
   232  009B                     	;# 
   233  009C                     	;# 
   234  009D                     	;# 
   235  009E                     	;# 
   236  009F                     	;# 
   237  0105                     	;# 
   238  0107                     	;# 
   239  0108                     	;# 
   240  0109                     	;# 
   241  010C                     	;# 
   242  010C                     	;# 
   243  010D                     	;# 
   244  010E                     	;# 
   245  010F                     	;# 
   246  0185                     	;# 
   247  0187                     	;# 
   248  0188                     	;# 
   249  0189                     	;# 
   250  018C                     	;# 
   251  018D                     	;# 
   252  0000                     	;# 
   253  0001                     	;# 
   254  0002                     	;# 
   255  0003                     	;# 
   256  0004                     	;# 
   257  0005                     	;# 
   258  0006                     	;# 
   259  0007                     	;# 
   260  0008                     	;# 
   261  0009                     	;# 
   262  000A                     	;# 
   263  000B                     	;# 
   264  000C                     	;# 
   265  000D                     	;# 
   266  000E                     	;# 
   267  000E                     	;# 
   268  000F                     	;# 
   269  0010                     	;# 
   270  0011                     	;# 
   271  0012                     	;# 
   272  0013                     	;# 
   273  0014                     	;# 
   274  0015                     	;# 
   275  0015                     	;# 
   276  0016                     	;# 
   277  0017                     	;# 
   278  0018                     	;# 
   279  0019                     	;# 
   280  001A                     	;# 
   281  001B                     	;# 
   282  001B                     	;# 
   283  001C                     	;# 
   284  001D                     	;# 
   285  001E                     	;# 
   286  001F                     	;# 
   287  0081                     	;# 
   288  0085                     	;# 
   289  0086                     	;# 
   290  0087                     	;# 
   291  0088                     	;# 
   292  0089                     	;# 
   293  008C                     	;# 
   294  008D                     	;# 
   295  008E                     	;# 
   296  008F                     	;# 
   297  0090                     	;# 
   298  0091                     	;# 
   299  0092                     	;# 
   300  0093                     	;# 
   301  0093                     	;# 
   302  0093                     	;# 
   303  0094                     	;# 
   304  0095                     	;# 
   305  0096                     	;# 
   306  0097                     	;# 
   307  0098                     	;# 
   308  0099                     	;# 
   309  009A                     	;# 
   310  009B                     	;# 
   311  009C                     	;# 
   312  009D                     	;# 
   313  009E                     	;# 
   314  009F                     	;# 
   315  0105                     	;# 
   316  0107                     	;# 
   317  0108                     	;# 
   318  0109                     	;# 
   319  010C                     	;# 
   320  010C                     	;# 
   321  010D                     	;# 
   322  010E                     	;# 
   323  010F                     	;# 
   324  0185                     	;# 
   325  0187                     	;# 
   326  0188                     	;# 
   327  0189                     	;# 
   328  018C                     	;# 
   329  018D                     	;# 
   330  0000                     	;# 
   331  0001                     	;# 
   332  0002                     	;# 
   333  0003                     	;# 
   334  0004                     	;# 
   335  0005                     	;# 
   336  0006                     	;# 
   337  0007                     	;# 
   338  0008                     	;# 
   339  0009                     	;# 
   340  000A                     	;# 
   341  000B                     	;# 
   342  000C                     	;# 
   343  000D                     	;# 
   344  000E                     	;# 
   345  000E                     	;# 
   346  000F                     	;# 
   347  0010                     	;# 
   348  0011                     	;# 
   349  0012                     	;# 
   350  0013                     	;# 
   351  0014                     	;# 
   352  0015                     	;# 
   353  0015                     	;# 
   354  0016                     	;# 
   355  0017                     	;# 
   356  0018                     	;# 
   357  0019                     	;# 
   358  001A                     	;# 
   359  001B                     	;# 
   360  001B                     	;# 
   361  001C                     	;# 
   362  001D                     	;# 
   363  001E                     	;# 
   364  001F                     	;# 
   365  0081                     	;# 
   366  0085                     	;# 
   367  0086                     	;# 
   368  0087                     	;# 
   369  0088                     	;# 
   370  0089                     	;# 
   371  008C                     	;# 
   372  008D                     	;# 
   373  008E                     	;# 
   374  008F                     	;# 
   375  0090                     	;# 
   376  0091                     	;# 
   377  0092                     	;# 
   378  0093                     	;# 
   379  0093                     	;# 
   380  0093                     	;# 
   381  0094                     	;# 
   382  0095                     	;# 
   383  0096                     	;# 
   384  0097                     	;# 
   385  0098                     	;# 
   386  0099                     	;# 
   387  009A                     	;# 
   388  009B                     	;# 
   389  009C                     	;# 
   390  009D                     	;# 
   391  009E                     	;# 
   392  009F                     	;# 
   393  0105                     	;# 
   394  0107                     	;# 
   395  0108                     	;# 
   396  0109                     	;# 
   397  010C                     	;# 
   398  010C                     	;# 
   399  010D                     	;# 
   400  010E                     	;# 
   401  010F                     	;# 
   402  0185                     	;# 
   403  0187                     	;# 
   404  0188                     	;# 
   405  0189                     	;# 
   406  018C                     	;# 
   407  018D                     	;# 
   408  0000                     	;# 
   409  0001                     	;# 
   410  0002                     	;# 
   411  0003                     	;# 
   412  0004                     	;# 
   413  0005                     	;# 
   414  0006                     	;# 
   415  0007                     	;# 
   416  0008                     	;# 
   417  0009                     	;# 
   418  000A                     	;# 
   419  000B                     	;# 
   420  000C                     	;# 
   421  000D                     	;# 
   422  000E                     	;# 
   423  000E                     	;# 
   424  000F                     	;# 
   425  0010                     	;# 
   426  0011                     	;# 
   427  0012                     	;# 
   428  0013                     	;# 
   429  0014                     	;# 
   430  0015                     	;# 
   431  0015                     	;# 
   432  0016                     	;# 
   433  0017                     	;# 
   434  0018                     	;# 
   435  0019                     	;# 
   436  001A                     	;# 
   437  001B                     	;# 
   438  001B                     	;# 
   439  001C                     	;# 
   440  001D                     	;# 
   441  001E                     	;# 
   442  001F                     	;# 
   443  0081                     	;# 
   444  0085                     	;# 
   445  0086                     	;# 
   446  0087                     	;# 
   447  0088                     	;# 
   448  0089                     	;# 
   449  008C                     	;# 
   450  008D                     	;# 
   451  008E                     	;# 
   452  008F                     	;# 
   453  0090                     	;# 
   454  0091                     	;# 
   455  0092                     	;# 
   456  0093                     	;# 
   457  0093                     	;# 
   458  0093                     	;# 
   459  0094                     	;# 
   460  0095                     	;# 
   461  0096                     	;# 
   462  0097                     	;# 
   463  0098                     	;# 
   464  0099                     	;# 
   465  009A                     	;# 
   466  009B                     	;# 
   467  009C                     	;# 
   468  009D                     	;# 
   469  009E                     	;# 
   470  009F                     	;# 
   471  0105                     	;# 
   472  0107                     	;# 
   473  0108                     	;# 
   474  0109                     	;# 
   475  010C                     	;# 
   476  010C                     	;# 
   477  010D                     	;# 
   478  010E                     	;# 
   479  010F                     	;# 
   480  0185                     	;# 
   481  0187                     	;# 
   482  0188                     	;# 
   483  0189                     	;# 
   484  018C                     	;# 
   485  018D                     	;# 
   486  0000                     	;# 
   487  0001                     	;# 
   488  0002                     	;# 
   489  0003                     	;# 
   490  0004                     	;# 
   491  0005                     	;# 
   492  0006                     	;# 
   493  0007                     	;# 
   494  0008                     	;# 
   495  0009                     	;# 
   496  000A                     	;# 
   497  000B                     	;# 
   498  000C                     	;# 
   499  000D                     	;# 
   500  000E                     	;# 
   501  000E                     	;# 
   502  000F                     	;# 
   503  0010                     	;# 
   504  0011                     	;# 
   505  0012                     	;# 
   506  0013                     	;# 
   507  0014                     	;# 
   508  0015                     	;# 
   509  0015                     	;# 
   510  0016                     	;# 
   511  0017                     	;# 
   512  0018                     	;# 
   513  0019                     	;# 
   514  001A                     	;# 
   515  001B                     	;# 
   516  001B                     	;# 
   517  001C                     	;# 
   518  001D                     	;# 
   519  001E                     	;# 
   520  001F                     	;# 
   521  0081                     	;# 
   522  0085                     	;# 
   523  0086                     	;# 
   524  0087                     	;# 
   525  0088                     	;# 
   526  0089                     	;# 
   527  008C                     	;# 
   528  008D                     	;# 
   529  008E                     	;# 
   530  008F                     	;# 
   531  0090                     	;# 
   532  0091                     	;# 
   533  0092                     	;# 
   534  0093                     	;# 
   535  0093                     	;# 
   536  0093                     	;# 
   537  0094                     	;# 
   538  0095                     	;# 
   539  0096                     	;# 
   540  0097                     	;# 
   541  0098                     	;# 
   542  0099                     	;# 
   543  009A                     	;# 
   544  009B                     	;# 
   545  009C                     	;# 
   546  009D                     	;# 
   547  009E                     	;# 
   548  009F                     	;# 
   549  0105                     	;# 
   550  0107                     	;# 
   551  0108                     	;# 
   552  0109                     	;# 
   553  010C                     	;# 
   554  010C                     	;# 
   555  010D                     	;# 
   556  010E                     	;# 
   557  010F                     	;# 
   558  0185                     	;# 
   559  0187                     	;# 
   560  0188                     	;# 
   561  0189                     	;# 
   562  018C                     	;# 
   563  018D                     	;# 
   564  0000                     	;# 
   565  0001                     	;# 
   566  0002                     	;# 
   567  0003                     	;# 
   568  0004                     	;# 
   569  0005                     	;# 
   570  0006                     	;# 
   571  0007                     	;# 
   572  0008                     	;# 
   573  0009                     	;# 
   574  000A                     	;# 
   575  000B                     	;# 
   576  000C                     	;# 
   577  000D                     	;# 
   578  000E                     	;# 
   579  000E                     	;# 
   580  000F                     	;# 
   581  0010                     	;# 
   582  0011                     	;# 
   583  0012                     	;# 
   584  0013                     	;# 
   585  0014                     	;# 
   586  0015                     	;# 
   587  0015                     	;# 
   588  0016                     	;# 
   589  0017                     	;# 
   590  0018                     	;# 
   591  0019                     	;# 
   592  001A                     	;# 
   593  001B                     	;# 
   594  001B                     	;# 
   595  001C                     	;# 
   596  001D                     	;# 
   597  001E                     	;# 
   598  001F                     	;# 
   599  0081                     	;# 
   600  0085                     	;# 
   601  0086                     	;# 
   602  0087                     	;# 
   603  0088                     	;# 
   604  0089                     	;# 
   605  008C                     	;# 
   606  008D                     	;# 
   607  008E                     	;# 
   608  008F                     	;# 
   609  0090                     	;# 
   610  0091                     	;# 
   611  0092                     	;# 
   612  0093                     	;# 
   613  0093                     	;# 
   614  0093                     	;# 
   615  0094                     	;# 
   616  0095                     	;# 
   617  0096                     	;# 
   618  0097                     	;# 
   619  0098                     	;# 
   620  0099                     	;# 
   621  009A                     	;# 
   622  009B                     	;# 
   623  009C                     	;# 
   624  009D                     	;# 
   625  009E                     	;# 
   626  009F                     	;# 
   627  0105                     	;# 
   628  0107                     	;# 
   629  0108                     	;# 
   630  0109                     	;# 
   631  010C                     	;# 
   632  010C                     	;# 
   633  010D                     	;# 
   634  010E                     	;# 
   635  010F                     	;# 
   636  0185                     	;# 
   637  0187                     	;# 
   638  0188                     	;# 
   639  0189                     	;# 
   640  018C                     	;# 
   641  018D                     	;# 
   642                           
   643                           	psect	idataBANK1
   644  10F4                     __pidataBANK1:
   645                           
   646                           ;initializer for _A
   647  10F4  34EB               	retlw	235
   648  10F5  34FF               	retlw	255
   649  10F6  3493               	retlw	147
   650  10F7  343A               	retlw	58
   651                           
   652                           ;initializer for _R1
   653  10F8  3400               	retlw	0
   654  10F9  3440               	retlw	64
   655  10FA  341C               	retlw	28
   656  10FB  3446               	retlw	70
   657                           
   658                           ;initializer for _B
   659  10FC  3473               	retlw	115
   660  10FD  347F               	retlw	127
   661  10FE  3475               	retlw	117
   662  10FF  3439               	retlw	57
   663                           
   664                           	psect	idataBANK3
   665  0800                     __pidataBANK3:	
   666                           ;initializer for _C
   667                           
   668  0800  3459               	retlw	89
   669  0801  3447               	retlw	71
   670  0802  34BC               	retlw	188
   671  0803  3433               	retlw	51
   672                           
   673                           ;initializer for _OLD_TEMP
   674  0804  3496               	retlw	150
   675  0805  3400               	retlw	0
   676                           
   677                           ;initializer for _last_mov
   678  0806  3405               	retlw	5
   679  0807  3400               	retlw	0
   680                           
   681                           ;initializer for _last_hrs
   682  0808  341E               	retlw	30
   683                           
   684                           ;initializer for _last_min
   685  0809  343D               	retlw	61
   686                           
   687                           	psect	strings
   688  1000                     __pstrings:
   689  1000                     stringtab:
   690  1000                     __stringtab:
   691  1000                     stringcode:	
   692                           ;	String table - string pointers are 1 byte each
   693                           
   694  1000                     stringdir:
   695  1000  3010               	movlw	high stringdir
   696  1001  008A               	movwf	10
   697  1002  0804               	movf	4,w
   698  1003  0A84               	incf	4,f
   699  1004  0782               	addwf	2,f
   700  1005                     __stringbase:
   701  1005  3400               	retlw	0
   702  1006                     __end_of__stringtab:
   703  1006                     log@coeff:
   704  1006  3400               	retlw	0
   705  1007  3400               	retlw	0
   706  1008  3400               	retlw	0
   707  1009  3400               	retlw	0
   708  100A  34C4               	retlw	196
   709  100B  34FF               	retlw	255
   710  100C  347F               	retlw	127
   711  100D  343F               	retlw	63
   712  100E  3480               	retlw	128
   713  100F  34EF               	retlw	239
   714  1010  34FF               	retlw	255
   715  1011  34BE               	retlw	190
   716  1012  3490               	retlw	144
   717  1013  34E1               	retlw	225
   718  1014  34A9               	retlw	169
   719  1015  343E               	retlw	62
   720  1016  34EC               	retlw	236
   721  1017  3482               	retlw	130
   722  1018  3476               	retlw	118
   723  1019  34BE               	retlw	190
   724  101A  3482               	retlw	130
   725  101B  34AD               	retlw	173
   726  101C  342B               	retlw	43
   727  101D  343E               	retlw	62
   728  101E  340E               	retlw	14
   729  101F  343C               	retlw	60
   730  1020  34C3               	retlw	195
   731  1021  34BD               	retlw	189
   732  1022  3487               	retlw	135
   733  1023  34D1               	retlw	209
   734  1024  3413               	retlw	19
   735  1025  343D               	retlw	61
   736  1026  3441               	retlw	65
   737  1027  3478               	retlw	120
   738  1028  34D3               	retlw	211
   739  1029  34BB               	retlw	187
   740  102A                     __end_oflog@coeff:
   741  0013                     _SSPBUF	set	19
   742  0014                     _SSPCON	set	20
   743  0015                     _CCPR1L	set	21
   744  0012                     _T2CONbits	set	18
   745  001D                     _CCP2CONbits	set	29
   746  001D                     _CCP2CON	set	29
   747  0017                     _CCP1CONbits	set	23
   748  0017                     _CCP1CON	set	23
   749  001E                     _ADRESH	set	30
   750  0019                     _TXREG	set	25
   751  0018                     _RCSTAbits	set	24
   752  0008                     _PORTD	set	8
   753  001F                     _ADCON0bits	set	31
   754  000C                     _PIR1bits	set	12
   755  0006                     _PORTBbits	set	6
   756  000B                     _INTCONbits	set	11
   757  0091                     _SSPCON2bits	set	145
   758  0094                     _SSPSTAT	set	148
   759  0093                     _SSPADD	set	147
   760  0091                     _SSPCON2	set	145
   761  0092                     _PR2	set	146
   762  0087                     _TRISCbits	set	135
   763  009E                     _ADRESL	set	158
   764  008C                     _PIE1bits	set	140
   765  009F                     _ADCON1bits	set	159
   766  0099                     _SPBRG	set	153
   767  009A                     _SPBRGH	set	154
   768  0098                     _TXSTAbits	set	152
   769  008F                     _OSCCONbits	set	143
   770  0096                     _IOCBbits	set	150
   771  0088                     _TRISD	set	136
   772  0095                     _WPUBbits	set	149
   773  0081                     _OPTION_REGbits	set	129
   774  0086                     _TRISBbits	set	134
   775  0085                     _TRISAbits	set	133
   776  0187                     _BAUDCTLbits	set	391
   777  0189                     _ANSELH	set	393
   778  0188                     _ANSEL	set	392
   779                           
   780                           	psect	cinit
   781  0015                     start_initialization:	
   782                           ; #config settings
   783                           
   784  0015                     __initialization:
   785                           
   786                           ; Initialize objects allocated to BANK3
   787  0015  1783               	bsf	3,7	;select IRP bank2
   788  0016  30B8               	movlw	low (__pdataBANK3+10)
   789  0017  00FD               	movwf	btemp+-1
   790  0018  3008               	movlw	high __pidataBANK3
   791  0019  00FE               	movwf	btemp
   792  001A  3000               	movlw	low __pidataBANK3
   793  001B  00FF               	movwf	btemp+1
   794  001C  30AE               	movlw	low __pdataBANK3
   795  001D  0084               	movwf	4
   796  001E  160A  118A  2120  120A  118A  	fcall	init_ram0
   797                           
   798                           ; Initialize objects allocated to BANK1
   799  0023  1383               	bcf	3,7	;select IRP bank0
   800  0024  30F0               	movlw	low (__pdataBANK1+12)
   801  0025  00FD               	movwf	btemp+-1
   802  0026  3010               	movlw	high __pidataBANK1
   803  0027  00FE               	movwf	btemp
   804  0028  30F4               	movlw	low __pidataBANK1
   805  0029  00FF               	movwf	btemp+1
   806  002A  30E4               	movlw	low __pdataBANK1
   807  002B  0084               	movwf	4
   808  002C  160A  118A  2120  120A  118A  	fcall	init_ram0
   809                           
   810                           ; Clear objects allocated to BANK3
   811  0031  1683               	bsf	3,5	;RP0=1, select bank3
   812  0032  1703               	bsf	3,6	;RP1=1, select bank3
   813  0033  01B8               	clrf	__pbssBANK3& (0+127)
   814  0034  01B9               	clrf	(__pbssBANK3+1)& (0+127)
   815  0035  01BA               	clrf	(__pbssBANK3+2)& (0+127)
   816  0036  01BB               	clrf	(__pbssBANK3+3)& (0+127)
   817  0037  01BC               	clrf	(__pbssBANK3+4)& (0+127)
   818  0038  01BD               	clrf	(__pbssBANK3+5)& (0+127)
   819  0039  01BE               	clrf	(__pbssBANK3+6)& (0+127)
   820  003A  01BF               	clrf	(__pbssBANK3+7)& (0+127)
   821                           
   822                           ; Clear objects allocated to BANK1
   823  003B  1683               	bsf	3,5	;RP0=1, select bank1
   824  003C  1303               	bcf	3,6	;RP1=0, select bank1
   825  003D  01D8               	clrf	__pbssBANK1& (0+127)
   826  003E  01D9               	clrf	(__pbssBANK1+1)& (0+127)
   827  003F  01DA               	clrf	(__pbssBANK1+2)& (0+127)
   828  0040  01DB               	clrf	(__pbssBANK1+3)& (0+127)
   829  0041  01DC               	clrf	(__pbssBANK1+4)& (0+127)
   830  0042  01DD               	clrf	(__pbssBANK1+5)& (0+127)
   831  0043  01DE               	clrf	(__pbssBANK1+6)& (0+127)
   832  0044  01DF               	clrf	(__pbssBANK1+7)& (0+127)
   833  0045  01E0               	clrf	(__pbssBANK1+8)& (0+127)
   834  0046  01E1               	clrf	(__pbssBANK1+9)& (0+127)
   835  0047  01E2               	clrf	(__pbssBANK1+10)& (0+127)
   836  0048  01E3               	clrf	(__pbssBANK1+11)& (0+127)
   837  0049                     end_of_initialization:	
   838                           ;End of C runtime variable initialization code
   839                           
   840  0049                     __end_of__initialization:
   841  0049  0183               	clrf	3
   842  004A  160A  118A  2A32   	ljmp	_main	;jump to C main() function
   843                           
   844                           	psect	bssBANK1
   845  00D8                     __pbssBANK1:
   846  00D8                     _R2:
   847  00D8                     	ds	4
   848  00DC                     _logR2:
   849  00DC                     	ds	4
   850  00E0                     _errno:
   851  00E0                     	ds	2
   852  00E2                     _TEMP_POT:
   853  00E2                     	ds	2
   854                           
   855                           	psect	dataBANK1
   856  00E4                     __pdataBANK1:
   857  00E4                     _A:
   858  00E4                     	ds	4
   859  00E8                     _R1:
   860  00E8                     	ds	4
   861  00EC                     _B:
   862  00EC                     	ds	4
   863                           
   864                           	psect	bssBANK3
   865  01B8                     __pbssBANK3:
   866  01B8                     _TC:
   867  01B8                     	ds	4
   868  01BC                     _switch_servo:
   869  01BC                     	ds	2
   870  01BE                     _hrs:
   871  01BE                     	ds	1
   872  01BF                     _min:
   873  01BF                     	ds	1
   874                           
   875                           	psect	dataBANK3
   876  01AE                     __pdataBANK3:
   877  01AE                     _C:
   878  01AE                     	ds	4
   879  01B2                     _OLD_TEMP:
   880  01B2                     	ds	2
   881  01B4                     _last_mov:
   882  01B4                     	ds	2
   883  01B6                     _last_hrs:
   884  01B6                     	ds	1
   885  01B7                     _last_min:
   886  01B7                     	ds	1
   887                           
   888                           	psect	inittext
   889  111C                     init_fetch0:	
   890                           ;	Called with low address in FSR and high address in W
   891                           
   892  111C  087E               	movf	btemp,w
   893  111D  008A               	movwf	10
   894  111E  087F               	movf	btemp+1,w
   895  111F  0082               	movwf	2
   896  1120                     init_ram0:	
   897                           ;Called with:
   898                           ;	high address of idata address in btemp 
   899                           ;	low address of idata address in btemp+1 
   900                           ;	low address of data in FSR
   901                           ;	high address + 1 of data in btemp-1
   902                           
   903  1120  160A  118A  211C  160A  118A  	fcall	init_fetch0
   904  1125  0080               	movwf	0
   905  1126  0A84               	incf	4,f
   906  1127  0804               	movf	4,w
   907  1128  067D               	xorwf	btemp+-1,w
   908  1129  1903               	btfsc	3,2
   909  112A  3400               	retlw	0
   910  112B  0AFF               	incf	btemp+1,f
   911  112C  1903               	btfsc	3,2
   912  112D  0AFE               	incf	btemp,f
   913  112E  2920               	goto	init_ram0
   914                           
   915                           	psect	cstackBANK3
   916  0190                     __pcstackBANK3:
   917  0190                     ??_adc_ch_switch:
   918  0190                     ??_USART_send:	
   919                           ; 1 bytes @ 0x0
   920                           
   921  0190                     ?_pwm_duty_cycle:	
   922                           ; 1 bytes @ 0x0
   923                           
   924  0190                     ??_I2C_Master_Start:	
   925                           ; 1 bytes @ 0x0
   926                           
   927  0190                     ?_I2C_Master_Write:	
   928                           ; 1 bytes @ 0x0
   929                           
   930  0190                     ??_I2C_Master_RepeatedStart:	
   931                           ; 1 bytes @ 0x0
   932                           
   933  0190                     ??_I2C_Master_Stop:	
   934                           ; 1 bytes @ 0x0
   935                           
   936  0190                     ??_int_osc_MHz:	
   937                           ; 1 bytes @ 0x0
   938                           
   939  0190                     ??_pwm_init:	
   940                           ; 1 bytes @ 0x0
   941                           
   942  0190                     ?_adc_init:	
   943                           ; 1 bytes @ 0x0
   944                           
   945  0190                     ??_I2C_Master_Wait:	
   946                           ; 1 bytes @ 0x0
   947                           
   948  0190                     ?___bmul:	
   949                           ; 1 bytes @ 0x0
   950                           
   951  0190                     ?_I2C_Master_Read:	
   952                           ; 1 bytes @ 0x0
   953                           
   954  0190                     ?___lldiv:	
   955                           ; 2 bytes @ 0x0
   956                           
   957  0190                     ?___fltol:	
   958                           ; 4 bytes @ 0x0
   959                           
   960  0190                     USART_send@data:	
   961                           ; 4 bytes @ 0x0
   962                           
   963  0190                     adc_init@vref_plus:	
   964                           ; 1 bytes @ 0x0
   965                           
   966  0190                     ___bmul@multiplicand:	
   967                           ; 1 bytes @ 0x0
   968                           
   969  0190                     pwm_duty_cycle@duty_cycle:	
   970                           ; 1 bytes @ 0x0
   971                           
   972  0190                     I2C_Master_Write@d:	
   973                           ; 2 bytes @ 0x0
   974                           
   975  0190                     I2C_Master_Read@a:	
   976                           ; 2 bytes @ 0x0
   977                           
   978  0190                     ___lldiv@divisor:	
   979                           ; 2 bytes @ 0x0
   980                           
   981  0190                     ___fltol@f1:	
   982                           ; 4 bytes @ 0x0
   983                           
   984                           
   985                           ; 4 bytes @ 0x0
   986  0190                     	ds	1
   987  0191                     ??___bmul:
   988  0191                     adc_init@vref_minus:	
   989                           ; 1 bytes @ 0x1
   990                           
   991                           
   992                           ; 1 bytes @ 0x1
   993  0191                     	ds	1
   994  0192                     ??_pwm_duty_cycle:
   995  0192                     ??_I2C_Master_Write:	
   996                           ; 1 bytes @ 0x2
   997                           
   998  0192                     ??_I2C_Master_Read:	
   999                           ; 1 bytes @ 0x2
  1000                           
  1001  0192                     ??_adc_init:	
  1002                           ; 1 bytes @ 0x2
  1003                           
  1004  0192                     int_osc_MHz@freq:	
  1005                           ; 1 bytes @ 0x2
  1006                           
  1007  0192                     adc_ch_switch@channels:	
  1008                           ; 1 bytes @ 0x2
  1009                           
  1010  0192                     pwm_init@channel:	
  1011                           ; 1 bytes @ 0x2
  1012                           
  1013  0192                     ___bmul@product:	
  1014                           ; 1 bytes @ 0x2
  1015                           
  1016                           
  1017                           ; 1 bytes @ 0x2
  1018  0192                     	ds	1
  1019  0193                     ___bmul@multiplier:
  1020                           
  1021                           ; 1 bytes @ 0x3
  1022  0193                     	ds	1
  1023  0194                     ?_servo:
  1024  0194                     ??_bcd_dec:	
  1025                           ; 1 bytes @ 0x4
  1026                           
  1027  0194                     ??___fltol:	
  1028                           ; 1 bytes @ 0x4
  1029                           
  1030  0194                     adc_init@adc_cs:	
  1031                           ; 1 bytes @ 0x4
  1032                           
  1033  0194                     servo@mov:	
  1034                           ; 1 bytes @ 0x4
  1035                           
  1036  0194                     I2C_Master_Read@temp:	
  1037                           ; 2 bytes @ 0x4
  1038                           
  1039  0194                     ___lldiv@dividend:	
  1040                           ; 2 bytes @ 0x4
  1041                           
  1042                           
  1043                           ; 4 bytes @ 0x4
  1044  0194                     	ds	2
  1045  0196                     ??_servo:
  1046                           
  1047                           ; 1 bytes @ 0x6
  1048  0196                     	ds	1
  1049  0197                     bcd_dec@no:
  1050                           
  1051                           ; 1 bytes @ 0x7
  1052  0197                     	ds	1
  1053  0198                     ??_RTC_read:
  1054  0198                     ??___lldiv:	
  1055                           ; 1 bytes @ 0x8
  1056                           
  1057                           
  1058                           ; 1 bytes @ 0x8
  1059  0198                     	ds	1
  1060  0199                     ___fltol@sign1:
  1061  0199                     ___lldiv@quotient:	
  1062                           ; 1 bytes @ 0x9
  1063                           
  1064                           
  1065                           ; 4 bytes @ 0x9
  1066  0199                     	ds	1
  1067  019A                     ___fltol@exp1:
  1068                           
  1069                           ; 1 bytes @ 0xA
  1070  019A                     	ds	1
  1071  019B                     ?_motor_dc:
  1072  019B                     motor_dc@temp:	
  1073                           ; 1 bytes @ 0xB
  1074                           
  1075                           
  1076                           ; 2 bytes @ 0xB
  1077  019B                     	ds	2
  1078  019D                     ??_motor_dc:
  1079  019D                     ___lldiv@counter:	
  1080                           ; 1 bytes @ 0xD
  1081                           
  1082                           
  1083                           ; 1 bytes @ 0xD
  1084  019D                     	ds	1
  1085  019E                     ?_USART_set:
  1086  019E                     ?_I2C_Master_Init:	
  1087                           ; 1 bytes @ 0xE
  1088                           
  1089  019E                     USART_set@baudrate:	
  1090                           ; 1 bytes @ 0xE
  1091                           
  1092  019E                     I2C_Master_Init@c:	
  1093                           ; 4 bytes @ 0xE
  1094                           
  1095                           
  1096                           ; 4 bytes @ 0xE
  1097  019E                     	ds	4
  1098  01A2                     ??_USART_set:
  1099  01A2                     ??_I2C_Master_Init:	
  1100                           ; 1 bytes @ 0x12
  1101                           
  1102                           
  1103                           ; 1 bytes @ 0x12
  1104  01A2                     	ds	12
  1105  01AE                     ??_setup:
  1106  01AE                     ??_main:	
  1107                           ; 1 bytes @ 0x1E
  1108                           
  1109                           
  1110                           	psect	cstackBANK1
  1111  00A0                     __pcstackBANK1:	
  1112                           ; 1 bytes @ 0x1E
  1113                           
  1114  00A0                     ___fldiv@rem:
  1115                           
  1116                           ; 4 bytes @ 0x0
  1117  00A0                     	ds	4
  1118  00A4                     ___fldiv@sign:
  1119                           
  1120                           ; 1 bytes @ 0x4
  1121  00A4                     	ds	1
  1122  00A5                     ___fldiv@new_exp:
  1123                           
  1124                           ; 2 bytes @ 0x5
  1125  00A5                     	ds	2
  1126  00A7                     ___fldiv@grs:
  1127                           
  1128                           ; 4 bytes @ 0x7
  1129  00A7                     	ds	4
  1130  00AB                     ___fldiv@bexp:
  1131                           
  1132                           ; 1 bytes @ 0xB
  1133  00AB                     	ds	1
  1134  00AC                     ___fldiv@aexp:
  1135                           
  1136                           ; 1 bytes @ 0xC
  1137  00AC                     	ds	1
  1138  00AD                     ?i1___fltol:
  1139  00AD                     i1___fltol@f1:	
  1140                           ; 4 bytes @ 0xD
  1141                           
  1142                           
  1143                           ; 4 bytes @ 0xD
  1144  00AD                     	ds	4
  1145  00B1                     ??i1___fltol:
  1146                           
  1147                           ; 1 bytes @ 0x11
  1148  00B1                     	ds	5
  1149  00B6                     ?_map:
  1150  00B6                     map@x:	
  1151                           ; 2 bytes @ 0x16
  1152                           
  1153                           
  1154                           ; 2 bytes @ 0x16
  1155  00B6                     	ds	2
  1156  00B8                     map@x0:
  1157                           
  1158                           ; 2 bytes @ 0x18
  1159  00B8                     	ds	2
  1160  00BA                     map@x1:
  1161                           
  1162                           ; 2 bytes @ 0x1A
  1163  00BA                     	ds	2
  1164  00BC                     map@y0:
  1165                           
  1166                           ; 2 bytes @ 0x1C
  1167  00BC                     	ds	2
  1168  00BE                     map@y1:
  1169                           
  1170                           ; 2 bytes @ 0x1E
  1171  00BE                     	ds	2
  1172  00C0                     ??_slave:
  1173                           
  1174                           ; 1 bytes @ 0x20
  1175  00C0                     	ds	8
  1176  00C8                     _slave$1600:
  1177                           
  1178                           ; 4 bytes @ 0x28
  1179  00C8                     	ds	4
  1180  00CC                     _slave$1601:
  1181                           
  1182                           ; 4 bytes @ 0x2C
  1183  00CC                     	ds	4
  1184  00D0                     _slave$1602:
  1185                           
  1186                           ; 4 bytes @ 0x30
  1187  00D0                     	ds	4
  1188  00D4                     _slave$1603:
  1189                           
  1190                           ; 4 bytes @ 0x34
  1191  00D4                     	ds	4
  1192                           
  1193                           	psect	cstackCOMMON
  1194  0070                     __pcstackCOMMON:
  1195  0070                     ?___fleq:
  1196  0070                     ?___flge:	
  1197                           ; 1 bit 
  1198                           
  1199  0070                     ?_setup:	
  1200                           ; 1 bit 
  1201                           
  1202  0070                     ?_adc_ch_switch:	
  1203                           ; 1 bytes @ 0x0
  1204                           
  1205  0070                     ?_RTC_read:	
  1206                           ; 1 bytes @ 0x0
  1207                           
  1208  0070                     ?_USART_send:	
  1209                           ; 1 bytes @ 0x0
  1210                           
  1211  0070                     ?_I2C_Master_Start:	
  1212                           ; 1 bytes @ 0x0
  1213                           
  1214  0070                     ?_I2C_Master_RepeatedStart:	
  1215                           ; 1 bytes @ 0x0
  1216                           
  1217  0070                     ?_bcd_dec:	
  1218                           ; 1 bytes @ 0x0
  1219                           
  1220  0070                     ?_I2C_Master_Stop:	
  1221                           ; 1 bytes @ 0x0
  1222                           
  1223  0070                     ?_int_osc_MHz:	
  1224                           ; 1 bytes @ 0x0
  1225                           
  1226  0070                     ?_pwm_init:	
  1227                           ; 1 bytes @ 0x0
  1228                           
  1229  0070                     ?_slave:	
  1230                           ; 1 bytes @ 0x0
  1231                           
  1232  0070                     ?_main:	
  1233                           ; 1 bytes @ 0x0
  1234                           
  1235  0070                     ?_I2C_Master_Wait:	
  1236                           ; 1 bytes @ 0x0
  1237                           
  1238  0070                     ?_adc_read:	
  1239                           ; 1 bytes @ 0x0
  1240                           
  1241  0070                     ?__Umul8_16:	
  1242                           ; 2 bytes @ 0x0
  1243                           
  1244  0070                     ?___lwdiv:	
  1245                           ; 2 bytes @ 0x0
  1246                           
  1247  0070                     __Umul8_16@multiplicand:	
  1248                           ; 2 bytes @ 0x0
  1249                           
  1250  0070                     ___lwdiv@divisor:	
  1251                           ; 1 bytes @ 0x0
  1252                           
  1253  0070                     ___fleq@ff1:	
  1254                           ; 2 bytes @ 0x0
  1255                           
  1256  0070                     ___flge@ff1:	
  1257                           ; 4 bytes @ 0x0
  1258                           
  1259                           
  1260                           ; 4 bytes @ 0x0
  1261  0070                     	ds	2
  1262  0072                     ??_adc_read:
  1263  0072                     ??__Umul8_16:	
  1264                           ; 1 bytes @ 0x2
  1265                           
  1266  0072                     ___lwdiv@dividend:	
  1267                           ; 1 bytes @ 0x2
  1268                           
  1269                           
  1270                           ; 2 bytes @ 0x2
  1271  0072                     	ds	2
  1272  0074                     ??___lwdiv:
  1273  0074                     __Umul8_16@product:	
  1274                           ; 1 bytes @ 0x4
  1275                           
  1276  0074                     ___fleq@ff2:	
  1277                           ; 2 bytes @ 0x4
  1278                           
  1279  0074                     ___flge@ff2:	
  1280                           ; 4 bytes @ 0x4
  1281                           
  1282                           
  1283                           ; 4 bytes @ 0x4
  1284  0074                     	ds	1
  1285  0075                     ___lwdiv@quotient:
  1286                           
  1287                           ; 2 bytes @ 0x5
  1288  0075                     	ds	1
  1289  0076                     __Umul8_16@word_mpld:
  1290                           
  1291                           ; 2 bytes @ 0x6
  1292  0076                     	ds	1
  1293  0077                     ___lwdiv@counter:
  1294                           
  1295                           ; 1 bytes @ 0x7
  1296  0077                     	ds	1
  1297  0078                     ??___fleq:
  1298  0078                     ??___flge:	
  1299                           ; 1 bytes @ 0x8
  1300                           
  1301  0078                     __Umul8_16@multiplier:	
  1302                           ; 1 bytes @ 0x8
  1303                           
  1304                           
  1305                           ; 1 bytes @ 0x8
  1306  0078                     	ds	1
  1307  0079                     ?___xxtofl:
  1308  0079                     ___xxtofl@val:	
  1309                           ; 4 bytes @ 0x9
  1310                           
  1311                           
  1312                           ; 4 bytes @ 0x9
  1313  0079                     	ds	3
  1314  007C                     ??_frexp:
  1315                           
  1316                           ; 1 bytes @ 0xC
  1317  007C                     	ds	2
  1318  007E                     ??_map:
  1319  007E                     ??___flsub:	
  1320                           ; 1 bytes @ 0xE
  1321                           
  1322                           
  1323                           	psect	cstackBANK0
  1324  0020                     __pcstackBANK0:	
  1325                           ; 1 bytes @ 0xE
  1326                           
  1327  0020                     ??___xxtofl:
  1328  0020                     ?_frexp:	
  1329                           ; 1 bytes @ 0x0
  1330                           
  1331  0020                     frexp@value:	
  1332                           ; 4 bytes @ 0x0
  1333                           
  1334                           
  1335                           ; 4 bytes @ 0x0
  1336  0020                     	ds	4
  1337  0024                     ___xxtofl@sign:
  1338  0024                     frexp@eptr:	
  1339                           ; 1 bytes @ 0x4
  1340                           
  1341                           
  1342                           ; 1 bytes @ 0x4
  1343  0024                     	ds	1
  1344  0025                     ___xxtofl@exp:
  1345                           
  1346                           ; 1 bytes @ 0x5
  1347  0025                     	ds	1
  1348  0026                     ___xxtofl@arg:
  1349                           
  1350                           ; 4 bytes @ 0x6
  1351  0026                     	ds	4
  1352  002A                     ?___fladd:
  1353  002A                     ___fladd@b:	
  1354                           ; 4 bytes @ 0xA
  1355                           
  1356                           
  1357                           ; 4 bytes @ 0xA
  1358  002A                     	ds	4
  1359  002E                     ___fladd@a:
  1360                           
  1361                           ; 4 bytes @ 0xE
  1362  002E                     	ds	4
  1363  0032                     ??___fladd:
  1364                           
  1365                           ; 1 bytes @ 0x12
  1366  0032                     	ds	8
  1367  003A                     ___fladd@signs:
  1368                           
  1369                           ; 1 bytes @ 0x1A
  1370  003A                     	ds	1
  1371  003B                     ___fladd@aexp:
  1372                           
  1373                           ; 1 bytes @ 0x1B
  1374  003B                     	ds	1
  1375  003C                     ___fladd@bexp:
  1376                           
  1377                           ; 1 bytes @ 0x1C
  1378  003C                     	ds	1
  1379  003D                     ___fladd@grs:
  1380                           
  1381                           ; 1 bytes @ 0x1D
  1382  003D                     	ds	1
  1383  003E                     ?___flmul:
  1384  003E                     ___flmul@b:	
  1385                           ; 4 bytes @ 0x1E
  1386                           
  1387                           
  1388                           ; 4 bytes @ 0x1E
  1389  003E                     	ds	4
  1390  0042                     ___flmul@a:
  1391                           
  1392                           ; 4 bytes @ 0x22
  1393  0042                     	ds	4
  1394  0046                     ??___flmul:
  1395                           
  1396                           ; 1 bytes @ 0x26
  1397  0046                     	ds	5
  1398  004B                     ___flmul@sign:
  1399                           
  1400                           ; 1 bytes @ 0x2B
  1401  004B                     	ds	1
  1402  004C                     ___flmul@grs:
  1403                           
  1404                           ; 4 bytes @ 0x2C
  1405  004C                     	ds	4
  1406  0050                     ___flmul@aexp:
  1407                           
  1408                           ; 1 bytes @ 0x30
  1409  0050                     	ds	1
  1410  0051                     ___flmul@bexp:
  1411                           
  1412                           ; 1 bytes @ 0x31
  1413  0051                     	ds	1
  1414  0052                     ___flmul@prod:
  1415                           
  1416                           ; 4 bytes @ 0x32
  1417  0052                     	ds	4
  1418  0056                     ___flmul@temp:
  1419                           
  1420                           ; 2 bytes @ 0x36
  1421  0056                     	ds	2
  1422  0058                     ?_eval_poly:
  1423  0058                     ?___fldiv:	
  1424                           ; 4 bytes @ 0x38
  1425                           
  1426  0058                     ___fldiv@a:	
  1427                           ; 4 bytes @ 0x38
  1428                           
  1429  0058                     eval_poly@x:	
  1430                           ; 4 bytes @ 0x38
  1431                           
  1432                           
  1433                           ; 4 bytes @ 0x38
  1434  0058                     	ds	4
  1435  005C                     eval_poly@d:
  1436  005C                     ___fldiv@b:	
  1437                           ; 1 bytes @ 0x3C
  1438                           
  1439                           
  1440                           ; 4 bytes @ 0x3C
  1441  005C                     	ds	1
  1442  005D                     eval_poly@n:
  1443                           
  1444                           ; 2 bytes @ 0x3D
  1445  005D                     	ds	2
  1446  005F                     ??_eval_poly:
  1447                           
  1448                           ; 1 bytes @ 0x3F
  1449  005F                     	ds	1
  1450  0060                     ??___fldiv:
  1451                           
  1452                           ; 1 bytes @ 0x40
  1453  0060                     	ds	4
  1454  0064                     eval_poly@res:
  1455                           
  1456                           ; 4 bytes @ 0x44
  1457  0064                     	ds	1
  1458  0065                     ?___flsub:
  1459  0065                     ___flsub@a:	
  1460                           ; 4 bytes @ 0x45
  1461                           
  1462                           
  1463                           ; 4 bytes @ 0x45
  1464  0065                     	ds	3
  1465  0068                     ?_log:
  1466  0068                     log@x:	
  1467                           ; 4 bytes @ 0x48
  1468                           
  1469                           
  1470                           ; 4 bytes @ 0x48
  1471  0068                     	ds	1
  1472  0069                     ___flsub@b:
  1473                           
  1474                           ; 4 bytes @ 0x49
  1475  0069                     	ds	3
  1476  006C                     ??_log:
  1477                           
  1478                           ; 1 bytes @ 0x4C
  1479  006C                     	ds	1
  1480  006D                     i1___fltol@sign1:
  1481  006D                     log@exponent:	
  1482                           ; 1 bytes @ 0x4D
  1483                           
  1484                           
  1485                           ; 2 bytes @ 0x4D
  1486  006D                     	ds	1
  1487  006E                     i1___fltol@exp1:
  1488                           
  1489                           ; 1 bytes @ 0x4E
  1490  006E                     	ds	1
  1491                           
  1492                           	psect	maintext
  1493  1232                     __pmaintext:	
  1494 ;;
  1495 ;;Main: autosize = 0, tempsize = 0, incstack = 0, save=0
  1496 ;;
  1497 ;; *************** function _main *****************
  1498 ;; Defined at:
  1499 ;;		line 105 in file "main_slave_p1.c"
  1500 ;; Parameters:    Size  Location     Type
  1501 ;;		None
  1502 ;; Auto vars:     Size  Location     Type
  1503 ;;		None
  1504 ;; Return value:  Size  Location     Type
  1505 ;;                  1    wreg      void 
  1506 ;; Registers used:
  1507 ;;		wreg, fsr0l, fsr0h, status,2, status,0, btemp+1, pclath, cstack
  1508 ;; Tracked objects:
  1509 ;;		On entry : B00/0
  1510 ;;		On exit  : 0/0
  1511 ;;		Unchanged: 0/0
  1512 ;; Data sizes:     COMMON   BANK0   BANK1   BANK3   BANK2
  1513 ;;      Params:         0       0       0       0       0
  1514 ;;      Locals:         0       0       0       0       0
  1515 ;;      Temps:          0       0       0       0       0
  1516 ;;      Totals:         0       0       0       0       0
  1517 ;;Total ram usage:        0 bytes
  1518 ;; Hardware stack levels required when called: 8
  1519 ;; This function calls:
  1520 ;;		_RTC_read
  1521 ;;		___fltol
  1522 ;;		_adc_ch_switch
  1523 ;;		_motor_dc
  1524 ;;		_servo
  1525 ;;		_setup
  1526 ;; This function is called by:
  1527 ;;		Startup code after reset
  1528 ;; This function uses a non-reentrant model
  1529 ;;
  1530                           
  1531  1232                     _main:	
  1532                           ;psect for function _main
  1533                           
  1534  1232                     l3412:	
  1535                           ;incstack = 0
  1536                           ; Regs used in _main: [wreg-fsr0h+status,2+status,0+btemp+1+pclath+cstack]
  1537                           
  1538                           
  1539                           ;main_slave_p1.c: 106:     setup();
  1540  1232  160A  118A  23B2  160A  118A  	fcall	_setup
  1541  1237                     l115:	
  1542                           ;main_slave_p1.c: 107:     while(1){
  1543                           
  1544                           
  1545                           ;main_slave_p1.c: 108:         adc_ch_switch(1);
  1546  1237  3001               	movlw	1
  1547  1238  120A  158A  20AC  160A  118A  	fcall	_adc_ch_switch
  1548  123D                     l3414:
  1549                           
  1550                           ;main_slave_p1.c: 109:         motor_dc(TC);
  1551  123D  1683               	bsf	3,5	;RP0=1, select bank3
  1552  123E  1703               	bsf	3,6	;RP1=1, select bank3
  1553  123F  083B               	movf	(_TC+3)^(0+384),w
  1554  1240  0093               	movwf	(___fltol@f1+3)^(0+384)
  1555  1241  083A               	movf	(_TC+2)^(0+384),w
  1556  1242  0092               	movwf	(___fltol@f1+2)^(0+384)
  1557  1243  0839               	movf	(_TC+1)^(0+384),w
  1558  1244  0091               	movwf	(___fltol@f1+1)^(0+384)
  1559  1245  0838               	movf	_TC^(0+384),w
  1560  1246  0090               	movwf	___fltol@f1^(0+384)
  1561  1247  160A  118A  253C  160A  118A  	fcall	___fltol
  1562  124C  1683               	bsf	3,5	;RP0=1, select bank3
  1563  124D  1703               	bsf	3,6	;RP1=1, select bank3
  1564  124E  0811               	movf	(?___fltol+1)^(0+384),w
  1565  124F  009C               	movwf	(motor_dc@temp+1)^(0+384)
  1566  1250  0810               	movf	?___fltol^(0+384),w
  1567  1251  009B               	movwf	motor_dc@temp^(0+384)
  1568  1252  160A  118A  21CF  160A  118A  	fcall	_motor_dc
  1569  1257                     l3416:
  1570                           
  1571                           ;main_slave_p1.c: 110:         servo(switch_servo);
  1572  1257  1683               	bsf	3,5	;RP0=1, select bank3
  1573  1258  1703               	bsf	3,6	;RP1=1, select bank3
  1574  1259  083D               	movf	(_switch_servo+1)^(0+384),w
  1575  125A  0095               	movwf	(servo@mov+1)^(0+384)
  1576  125B  083C               	movf	_switch_servo^(0+384),w
  1577  125C  0094               	movwf	servo@mov^(0+384)
  1578  125D  160A  118A  226B  160A  118A  	fcall	_servo
  1579  1262                     l3418:
  1580                           
  1581                           ;main_slave_p1.c: 111:         RTC_read();
  1582  1262  160A  118A  26CA  160A  118A  	fcall	_RTC_read
  1583  1267  2A37               	goto	l115
  1584  1268  120A  118A  2812   	ljmp	start
  1585  126B                     __end_of_main:
  1586                           
  1587                           	psect	text1
  1588  13B2                     __ptext1:	
  1589 ;; *************** function _setup *****************
  1590 ;; Defined at:
  1591 ;;		line 181 in file "main_slave_p1.c"
  1592 ;; Parameters:    Size  Location     Type
  1593 ;;		None
  1594 ;; Auto vars:     Size  Location     Type
  1595 ;;		None
  1596 ;; Return value:  Size  Location     Type
  1597 ;;                  1    wreg      void 
  1598 ;; Registers used:
  1599 ;;		wreg, fsr0l, fsr0h, status,2, status,0, pclath, cstack
  1600 ;; Tracked objects:
  1601 ;;		On entry : 0/0
  1602 ;;		On exit  : 0/0
  1603 ;;		Unchanged: 0/0
  1604 ;; Data sizes:     COMMON   BANK0   BANK1   BANK3   BANK2
  1605 ;;      Params:         0       0       0       0       0
  1606 ;;      Locals:         0       0       0       0       0
  1607 ;;      Temps:          0       0       0       0       0
  1608 ;;      Totals:         0       0       0       0       0
  1609 ;;Total ram usage:        0 bytes
  1610 ;; Hardware stack levels used: 1
  1611 ;; Hardware stack levels required when called: 7
  1612 ;; This function calls:
  1613 ;;		_I2C_Master_Init
  1614 ;;		_USART_set
  1615 ;;		_adc_init
  1616 ;;		_int_osc_MHz
  1617 ;;		_pwm_init
  1618 ;; This function is called by:
  1619 ;;		_main
  1620 ;; This function uses a non-reentrant model
  1621 ;;
  1622                           
  1623  13B2                     _setup:	
  1624                           ;psect for function _setup
  1625                           
  1626  13B2                     l3168:	
  1627                           ;incstack = 0
  1628                           ; Regs used in _setup: [wreg-fsr0h+status,2+status,0+pclath+cstack]
  1629                           
  1630                           
  1631                           ;main_slave_p1.c: 182:     int_osc_MHz(1);
  1632  13B2  3001               	movlw	1
  1633  13B3  120A  118A  27C0  160A  118A  	fcall	_int_osc_MHz
  1634  13B8                     l3170:
  1635                           
  1636                           ;main_slave_p1.c: 185:     ANSEL = 0x01;
  1637  13B8  3001               	movlw	1
  1638  13B9  1683               	bsf	3,5	;RP0=1, select bank3
  1639  13BA  1703               	bsf	3,6	;RP1=1, select bank3
  1640  13BB  0088               	movwf	8	;volatile
  1641  13BC                     l3172:
  1642                           
  1643                           ;main_slave_p1.c: 186:     ANSELH = 0;
  1644  13BC  0189               	clrf	9	;volatile
  1645  13BD                     l3174:
  1646                           
  1647                           ;main_slave_p1.c: 187:     TRISAbits.TRISA0 = 1;
  1648  13BD  1683               	bsf	3,5	;RP0=1, select bank1
  1649  13BE  1303               	bcf	3,6	;RP1=0, select bank1
  1650  13BF  1405               	bsf	5,0	;volatile
  1651  13C0                     l3176:
  1652                           
  1653                           ;main_slave_p1.c: 189:     TRISBbits.TRISB0 = 0;
  1654  13C0  1006               	bcf	6,0	;volatile
  1655  13C1                     l3178:
  1656                           
  1657                           ;main_slave_p1.c: 190:     PORTBbits.RB0 = 0;
  1658  13C1  1283               	bcf	3,5	;RP0=0, select bank0
  1659  13C2  1303               	bcf	3,6	;RP1=0, select bank0
  1660  13C3  1006               	bcf	6,0	;volatile
  1661  13C4                     l3180:
  1662                           
  1663                           ;main_slave_p1.c: 191:     TRISBbits.TRISB1 = 1;
  1664  13C4  1683               	bsf	3,5	;RP0=1, select bank1
  1665  13C5  1303               	bcf	3,6	;RP1=0, select bank1
  1666  13C6  1486               	bsf	6,1	;volatile
  1667  13C7                     l3182:
  1668                           
  1669                           ;main_slave_p1.c: 192:     PORTBbits.RB1 = 0;
  1670  13C7  1283               	bcf	3,5	;RP0=0, select bank0
  1671  13C8  1303               	bcf	3,6	;RP1=0, select bank0
  1672  13C9  1086               	bcf	6,1	;volatile
  1673  13CA                     l3184:
  1674                           
  1675                           ;main_slave_p1.c: 193:     OPTION_REGbits.nRBPU = 0;
  1676  13CA  1683               	bsf	3,5	;RP0=1, select bank1
  1677  13CB  1303               	bcf	3,6	;RP1=0, select bank1
  1678  13CC  1381               	bcf	1,7	;volatile
  1679  13CD                     l3186:
  1680                           
  1681                           ;main_slave_p1.c: 194:     WPUBbits.WPUB = 0x02;
  1682  13CD  3002               	movlw	2
  1683  13CE  0095               	movwf	21	;volatile
  1684  13CF                     l3188:
  1685                           
  1686                           ;main_slave_p1.c: 196:     pwm_init(1);
  1687  13CF  3001               	movlw	1
  1688  13D0  160A  118A  22DF  160A  118A  	fcall	_pwm_init
  1689  13D5                     l3190:
  1690                           
  1691                           ;main_slave_p1.c: 197:     USART_set(9600);
  1692  13D5  3000               	movlw	0
  1693  13D6  1683               	bsf	3,5	;RP0=1, select bank3
  1694  13D7  1703               	bsf	3,6	;RP1=1, select bank3
  1695  13D8  00A1               	movwf	(USART_set@baudrate+3)^(0+384)
  1696  13D9  3000               	movlw	0
  1697  13DA  00A0               	movwf	(USART_set@baudrate+2)^(0+384)
  1698  13DB  3025               	movlw	37
  1699  13DC  009F               	movwf	(USART_set@baudrate+1)^(0+384)
  1700  13DD  3080               	movlw	128
  1701  13DE  009E               	movwf	USART_set@baudrate^(0+384)
  1702  13DF  160A  118A  24CF  160A  118A  	fcall	_USART_set
  1703  13E4                     l3192:
  1704                           
  1705                           ;main_slave_p1.c: 198:     adc_init(0,0,0);
  1706  13E4  1683               	bsf	3,5	;RP0=1, select bank3
  1707  13E5  1703               	bsf	3,6	;RP1=1, select bank3
  1708  13E6  0190               	clrf	adc_init@vref_plus^(0+384)
  1709  13E7  0191               	clrf	adc_init@vref_minus^(0+384)
  1710  13E8  3000               	movlw	0
  1711  13E9  160A  118A  25B8  160A  118A  	fcall	_adc_init
  1712  13EE                     l3194:
  1713                           
  1714                           ;main_slave_p1.c: 199:     I2C_Master_Init(100000);
  1715  13EE  3000               	movlw	0
  1716  13EF  1683               	bsf	3,5	;RP0=1, select bank3
  1717  13F0  1703               	bsf	3,6	;RP1=1, select bank3
  1718  13F1  00A1               	movwf	(I2C_Master_Init@c+3)^(0+384)
  1719  13F2  3001               	movlw	1
  1720  13F3  00A0               	movwf	(I2C_Master_Init@c+2)^(0+384)
  1721  13F4  3086               	movlw	134
  1722  13F5  009F               	movwf	(I2C_Master_Init@c+1)^(0+384)
  1723  13F6  30A0               	movlw	160
  1724  13F7  009E               	movwf	I2C_Master_Init@c^(0+384)
  1725  13F8  160A  118A  22A5  160A  118A  	fcall	_I2C_Master_Init
  1726  13FD                     l3196:
  1727                           
  1728                           ;main_slave_p1.c: 201:     TRISD = 0;
  1729  13FD  1683               	bsf	3,5	;RP0=1, select bank1
  1730  13FE  1303               	bcf	3,6	;RP1=0, select bank1
  1731  13FF  0188               	clrf	8	;volatile
  1732  1400                     l3198:
  1733                           
  1734                           ;main_slave_p1.c: 202:     PORTD = 0;
  1735  1400  1283               	bcf	3,5	;RP0=0, select bank0
  1736  1401  1303               	bcf	3,6	;RP1=0, select bank0
  1737  1402  0188               	clrf	8	;volatile
  1738  1403                     l3200:
  1739                           
  1740                           ;main_slave_p1.c: 205:     INTCONbits.GIE = 1;
  1741  1403  178B               	bsf	11,7	;volatile
  1742  1404                     l3202:
  1743                           
  1744                           ;main_slave_p1.c: 206:     INTCONbits.PEIE = 1;
  1745  1404  170B               	bsf	11,6	;volatile
  1746  1405                     l3204:
  1747                           
  1748                           ;main_slave_p1.c: 207:     INTCONbits.RBIE = 1;
  1749  1405  158B               	bsf	11,3	;volatile
  1750  1406                     l3206:
  1751                           
  1752                           ;main_slave_p1.c: 208:     IOCBbits.IOCB1 = 1;
  1753  1406  1683               	bsf	3,5	;RP0=1, select bank1
  1754  1407  1303               	bcf	3,6	;RP1=0, select bank1
  1755  1408  1496               	bsf	22,1	;volatile
  1756  1409                     l3208:
  1757                           
  1758                           ;main_slave_p1.c: 209:     INTCONbits.RBIF = 0;
  1759  1409  100B               	bcf	11,0	;volatile
  1760  140A                     l144:
  1761  140A  0008               	return
  1762  140B                     __end_of_setup:
  1763                           
  1764                           	psect	text2
  1765  12DF                     __ptext2:	
  1766 ;; *************** function _pwm_init *****************
  1767 ;; Defined at:
  1768 ;;		line 12 in file "pwm.c"
  1769 ;; Parameters:    Size  Location     Type
  1770 ;;  channel         1    wreg     unsigned char 
  1771 ;; Auto vars:     Size  Location     Type
  1772 ;;  channel         1    2[BANK3 ] unsigned char 
  1773 ;; Return value:  Size  Location     Type
  1774 ;;                  1    wreg      void 
  1775 ;; Registers used:
  1776 ;;		wreg, fsr0l, fsr0h, status,2, status,0
  1777 ;; Tracked objects:
  1778 ;;		On entry : 0/0
  1779 ;;		On exit  : 0/0
  1780 ;;		Unchanged: 0/0
  1781 ;; Data sizes:     COMMON   BANK0   BANK1   BANK3   BANK2
  1782 ;;      Params:         0       0       0       0       0
  1783 ;;      Locals:         0       0       0       1       0
  1784 ;;      Temps:          0       0       0       2       0
  1785 ;;      Totals:         0       0       0       3       0
  1786 ;;Total ram usage:        3 bytes
  1787 ;; Hardware stack levels used: 1
  1788 ;; Hardware stack levels required when called: 5
  1789 ;; This function calls:
  1790 ;;		Nothing
  1791 ;; This function is called by:
  1792 ;;		_setup
  1793 ;; This function uses a non-reentrant model
  1794 ;;
  1795                           
  1796  12DF                     _pwm_init:	
  1797                           ;psect for function _pwm_init
  1798                           
  1799                           
  1800                           ;incstack = 0
  1801                           ; Regs used in _pwm_init: [wreg-fsr0h+status,2+status,0]
  1802                           ;pwm_init@channel stored from wreg
  1803  12DF  1683               	bsf	3,5	;RP0=1, select bank3
  1804  12E0  1703               	bsf	3,6	;RP1=1, select bank3
  1805  12E1  0092               	movwf	pwm_init@channel^(0+384)
  1806  12E2                     l2766:
  1807                           
  1808                           ;pwm.c: 13:     switch(channel) {
  1809  12E2  2AFB               	goto	l2780
  1810  12E3                     l266:	
  1811                           ;pwm.c: 14:         case 1:
  1812                           
  1813                           
  1814                           ;pwm.c: 15:             TRISCbits.TRISC2 = 1;
  1815  12E3  1683               	bsf	3,5	;RP0=1, select bank1
  1816  12E4  1303               	bcf	3,6	;RP1=0, select bank1
  1817  12E5  1507               	bsf	7,2	;volatile
  1818  12E6                     l2768:
  1819                           
  1820                           ;pwm.c: 16:             CCP1CON = 0;
  1821  12E6  1283               	bcf	3,5	;RP0=0, select bank0
  1822  12E7  1303               	bcf	3,6	;RP1=0, select bank0
  1823  12E8  0197               	clrf	23	;volatile
  1824  12E9                     l2770:
  1825                           
  1826                           ;pwm.c: 17:             CCP1CONbits.P1M = 0;
  1827  12E9  303F               	movlw	-193
  1828  12EA  0597               	andwf	23,f	;volatile
  1829  12EB                     l2772:
  1830                           
  1831                           ;pwm.c: 18:             CCP1CONbits.CCP1M = 0b1100;
  1832  12EB  0817               	movf	23,w	;volatile
  1833  12EC  39F0               	andlw	-16
  1834  12ED  380C               	iorlw	12
  1835  12EE  0097               	movwf	23	;volatile
  1836                           
  1837                           ;pwm.c: 19:             break;
  1838  12EF  2B0B               	goto	l2782
  1839  12F0                     l268:	
  1840                           ;pwm.c: 20:         case 2:
  1841                           
  1842                           
  1843                           ;pwm.c: 21:             TRISCbits.TRISC1 = 1;
  1844  12F0  1683               	bsf	3,5	;RP0=1, select bank1
  1845  12F1  1303               	bcf	3,6	;RP1=0, select bank1
  1846  12F2  1487               	bsf	7,1	;volatile
  1847  12F3                     l2774:
  1848                           
  1849                           ;pwm.c: 22:             CCP2CON = 0;
  1850  12F3  1283               	bcf	3,5	;RP0=0, select bank0
  1851  12F4  1303               	bcf	3,6	;RP1=0, select bank0
  1852  12F5  019D               	clrf	29	;volatile
  1853  12F6                     l2776:
  1854                           
  1855                           ;pwm.c: 23:             CCP2CONbits.CCP2M = 0b1100;
  1856  12F6  081D               	movf	29,w	;volatile
  1857  12F7  39F0               	andlw	-16
  1858  12F8  380C               	iorlw	12
  1859  12F9  009D               	movwf	29	;volatile
  1860                           
  1861                           ;pwm.c: 24:             break;
  1862  12FA  2B0B               	goto	l2782
  1863  12FB                     l2780:
  1864  12FB  0812               	movf	pwm_init@channel^(0+384),w
  1865  12FC  0090               	movwf	??_pwm_init^(0+384)
  1866  12FD  0191               	clrf	(??_pwm_init^(0+384)+1)
  1867                           
  1868                           ; Switch on 2 bytes has been partitioned into a top level switch of size 1, and 1 sub-sw
      +                          itches
  1869                           ; Switch size 1, requested type "simple"
  1870                           ; Number of cases is 1, Range of values is 0 to 0
  1871                           ; switch strategies available:
  1872                           ; Name         Instructions Cycles
  1873                           ; simple_byte            4     3 (average)
  1874                           ; direct_byte           11     8 (fixed)
  1875                           ; jumptable            260     6 (fixed)
  1876                           ;	Chosen strategy is simple_byte
  1877  12FE  0811               	movf	(??_pwm_init+1)^(0+384),w
  1878  12FF  3A00               	xorlw	0	; case 0
  1879  1300  1903               	skipnz
  1880  1301  2B03               	goto	l3608
  1881  1302  2B0B               	goto	l2782
  1882  1303                     l3608:
  1883                           
  1884                           ; Switch size 1, requested type "simple"
  1885                           ; Number of cases is 2, Range of values is 1 to 2
  1886                           ; switch strategies available:
  1887                           ; Name         Instructions Cycles
  1888                           ; simple_byte            7     4 (average)
  1889                           ; direct_byte           17    11 (fixed)
  1890                           ; jumptable            263     9 (fixed)
  1891                           ;	Chosen strategy is simple_byte
  1892  1303  0810               	movf	??_pwm_init^(0+384),w
  1893  1304  3A01               	xorlw	1	; case 1
  1894  1305  1903               	skipnz
  1895  1306  2AE3               	goto	l266
  1896  1307  3A03               	xorlw	3	; case 2
  1897  1308  1903               	skipnz
  1898  1309  2AF0               	goto	l268
  1899  130A  2B0B               	goto	l2782
  1900  130B                     l2782:
  1901                           
  1902                           ;pwm.c: 28:     T2CONbits.T2CKPS = 0b11;
  1903  130B  3003               	movlw	3
  1904  130C  1283               	bcf	3,5	;RP0=0, select bank0
  1905  130D  1303               	bcf	3,6	;RP1=0, select bank0
  1906  130E  0492               	iorwf	18,f	;volatile
  1907  130F                     l2784:
  1908                           
  1909                           ;pwm.c: 29:     PR2 = 255;
  1910  130F  30FF               	movlw	255
  1911  1310  1683               	bsf	3,5	;RP0=1, select bank1
  1912  1311  1303               	bcf	3,6	;RP1=0, select bank1
  1913  1312  0092               	movwf	18	;volatile
  1914  1313                     l2786:
  1915                           
  1916                           ;pwm.c: 32:     PIR1bits.TMR2IF = 0;
  1917  1313  1283               	bcf	3,5	;RP0=0, select bank0
  1918  1314  1303               	bcf	3,6	;RP1=0, select bank0
  1919  1315  108C               	bcf	12,1	;volatile
  1920  1316                     l2788:
  1921                           
  1922                           ;pwm.c: 33:     T2CONbits.TMR2ON = 1;
  1923  1316  1512               	bsf	18,2	;volatile
  1924  1317                     l270:	
  1925                           ;pwm.c: 34:     while(!PIR1bits.TMR2IF);
  1926                           
  1927  1317  1C8C               	btfss	12,1	;volatile
  1928  1318  2B1A               	goto	u3171
  1929  1319  2B1B               	goto	u3170
  1930  131A                     u3171:
  1931  131A  2B17               	goto	l270
  1932  131B                     u3170:
  1933  131B                     l272:
  1934                           
  1935                           ;pwm.c: 35:     PIR1bits.TMR2IF = 0;
  1936  131B  108C               	bcf	12,1	;volatile
  1937                           
  1938                           ;pwm.c: 36:     TRISCbits.TRISC2 = 0;
  1939  131C  1683               	bsf	3,5	;RP0=1, select bank1
  1940  131D  1303               	bcf	3,6	;RP1=0, select bank1
  1941  131E  1107               	bcf	7,2	;volatile
  1942  131F                     l273:
  1943  131F  0008               	return
  1944  1320                     __end_of_pwm_init:
  1945                           
  1946                           	psect	text3
  1947  07C0                     __ptext3:	
  1948 ;; *************** function _int_osc_MHz *****************
  1949 ;; Defined at:
  1950 ;;		line 13 in file "osc.c"
  1951 ;; Parameters:    Size  Location     Type
  1952 ;;  freq            1    wreg     unsigned char 
  1953 ;; Auto vars:     Size  Location     Type
  1954 ;;  freq            1    2[BANK3 ] unsigned char 
  1955 ;; Return value:  Size  Location     Type
  1956 ;;                  1    wreg      void 
  1957 ;; Registers used:
  1958 ;;		wreg, fsr0l, fsr0h, status,2, status,0
  1959 ;; Tracked objects:
  1960 ;;		On entry : 0/0
  1961 ;;		On exit  : 0/0
  1962 ;;		Unchanged: 0/0
  1963 ;; Data sizes:     COMMON   BANK0   BANK1   BANK3   BANK2
  1964 ;;      Params:         0       0       0       0       0
  1965 ;;      Locals:         0       0       0       1       0
  1966 ;;      Temps:          0       0       0       2       0
  1967 ;;      Totals:         0       0       0       3       0
  1968 ;;Total ram usage:        3 bytes
  1969 ;; Hardware stack levels used: 1
  1970 ;; Hardware stack levels required when called: 5
  1971 ;; This function calls:
  1972 ;;		Nothing
  1973 ;; This function is called by:
  1974 ;;		_setup
  1975 ;; This function uses a non-reentrant model
  1976 ;;
  1977                           
  1978  07C0                     _int_osc_MHz:	
  1979                           ;psect for function _int_osc_MHz
  1980                           
  1981                           
  1982                           ;incstack = 0
  1983                           ; Regs used in _int_osc_MHz: [wreg-fsr0h+status,2+status,0]
  1984                           ;int_osc_MHz@freq stored from wreg
  1985  07C0  1683               	bsf	3,5	;RP0=1, select bank3
  1986  07C1  1703               	bsf	3,6	;RP1=1, select bank3
  1987  07C2  0092               	movwf	int_osc_MHz@freq^(0+384)
  1988  07C3                     l2744:
  1989                           
  1990                           ;osc.c: 14:     switch(freq){
  1991  07C3  2FE5               	goto	l2758
  1992  07C4                     l2746:
  1993                           
  1994                           ;osc.c: 16:             OSCCONbits.IRCF = 0b100;
  1995  07C4  1683               	bsf	3,5	;RP0=1, select bank1
  1996  07C5  1303               	bcf	3,6	;RP1=0, select bank1
  1997  07C6  080F               	movf	15,w	;volatile
  1998  07C7  398F               	andlw	-113
  1999  07C8  3840               	iorlw	64
  2000  07C9  008F               	movwf	15	;volatile
  2001                           
  2002                           ;osc.c: 17:             break;
  2003  07CA  2FFB               	goto	l151
  2004  07CB                     l2748:
  2005                           
  2006                           ;osc.c: 19:             OSCCONbits.IRCF = 0b101;
  2007  07CB  1683               	bsf	3,5	;RP0=1, select bank1
  2008  07CC  1303               	bcf	3,6	;RP1=0, select bank1
  2009  07CD  080F               	movf	15,w	;volatile
  2010  07CE  398F               	andlw	-113
  2011  07CF  3850               	iorlw	80
  2012  07D0  008F               	movwf	15	;volatile
  2013                           
  2014                           ;osc.c: 20:             break;
  2015  07D1  2FFB               	goto	l151
  2016  07D2                     l2750:
  2017                           
  2018                           ;osc.c: 22:             OSCCONbits.IRCF = 0b110;
  2019  07D2  1683               	bsf	3,5	;RP0=1, select bank1
  2020  07D3  1303               	bcf	3,6	;RP1=0, select bank1
  2021  07D4  080F               	movf	15,w	;volatile
  2022  07D5  398F               	andlw	-113
  2023  07D6  3860               	iorlw	96
  2024  07D7  008F               	movwf	15	;volatile
  2025                           
  2026                           ;osc.c: 23:             break;
  2027  07D8  2FFB               	goto	l151
  2028  07D9                     l2752:
  2029                           
  2030                           ;osc.c: 25:             OSCCONbits.IRCF = 0b111;
  2031  07D9  3070               	movlw	112
  2032  07DA  1683               	bsf	3,5	;RP0=1, select bank1
  2033  07DB  1303               	bcf	3,6	;RP1=0, select bank1
  2034  07DC  048F               	iorwf	15,f	;volatile
  2035                           
  2036                           ;osc.c: 26:             break;
  2037  07DD  2FFB               	goto	l151
  2038  07DE                     l2754:
  2039                           
  2040                           ;osc.c: 28:             OSCCONbits.IRCF = 0b110;
  2041  07DE  1683               	bsf	3,5	;RP0=1, select bank1
  2042  07DF  1303               	bcf	3,6	;RP1=0, select bank1
  2043  07E0  080F               	movf	15,w	;volatile
  2044  07E1  398F               	andlw	-113
  2045  07E2  3860               	iorlw	96
  2046  07E3  008F               	movwf	15	;volatile
  2047                           
  2048                           ;osc.c: 29:             break;
  2049  07E4  2FFB               	goto	l151
  2050  07E5                     l2758:
  2051  07E5  0812               	movf	int_osc_MHz@freq^(0+384),w
  2052  07E6  0090               	movwf	??_int_osc_MHz^(0+384)
  2053  07E7  0191               	clrf	(??_int_osc_MHz^(0+384)+1)
  2054                           
  2055                           ; Switch on 2 bytes has been partitioned into a top level switch of size 1, and 1 sub-sw
      +                          itches
  2056                           ; Switch size 1, requested type "simple"
  2057                           ; Number of cases is 1, Range of values is 0 to 0
  2058                           ; switch strategies available:
  2059                           ; Name         Instructions Cycles
  2060                           ; simple_byte            4     3 (average)
  2061                           ; direct_byte           11     8 (fixed)
  2062                           ; jumptable            260     6 (fixed)
  2063                           ;	Chosen strategy is simple_byte
  2064  07E8  0811               	movf	(??_int_osc_MHz+1)^(0+384),w
  2065  07E9  3A00               	xorlw	0	; case 0
  2066  07EA  1903               	skipnz
  2067  07EB  2FED               	goto	l3610
  2068  07EC  2FDE               	goto	l2754
  2069  07ED                     l3610:
  2070                           
  2071                           ; Switch size 1, requested type "simple"
  2072                           ; Number of cases is 4, Range of values is 1 to 8
  2073                           ; switch strategies available:
  2074                           ; Name         Instructions Cycles
  2075                           ; simple_byte           13     7 (average)
  2076                           ; direct_byte           35    11 (fixed)
  2077                           ; jumptable            263     9 (fixed)
  2078                           ;	Chosen strategy is simple_byte
  2079  07ED  0810               	movf	??_int_osc_MHz^(0+384),w
  2080  07EE  3A01               	xorlw	1	; case 1
  2081  07EF  1903               	skipnz
  2082  07F0  2FC4               	goto	l2746
  2083  07F1  3A03               	xorlw	3	; case 2
  2084  07F2  1903               	skipnz
  2085  07F3  2FCB               	goto	l2748
  2086  07F4  3A06               	xorlw	6	; case 4
  2087  07F5  1903               	skipnz
  2088  07F6  2FD2               	goto	l2750
  2089  07F7  3A0C               	xorlw	12	; case 8
  2090  07F8  1903               	skipnz
  2091  07F9  2FD9               	goto	l2752
  2092  07FA  2FDE               	goto	l2754
  2093  07FB                     l151:
  2094                           
  2095                           ;osc.c: 31:     OSCCONbits.SCS = 1;
  2096  07FB  140F               	bsf	15,0	;volatile
  2097  07FC                     l156:
  2098  07FC  0008               	return
  2099  07FD                     __end_of_int_osc_MHz:
  2100                           
  2101                           	psect	text4
  2102  15B8                     __ptext4:	
  2103 ;; *************** function _adc_init *****************
  2104 ;; Defined at:
  2105 ;;		line 14 in file "adc.c"
  2106 ;; Parameters:    Size  Location     Type
  2107 ;;  adc_cs          1    wreg     unsigned char 
  2108 ;;  vref_plus       1    0[BANK3 ] unsigned char 
  2109 ;;  vref_minus      1    1[BANK3 ] unsigned char 
  2110 ;; Auto vars:     Size  Location     Type
  2111 ;;  adc_cs          1    4[BANK3 ] unsigned char 
  2112 ;; Return value:  Size  Location     Type
  2113 ;;                  1    wreg      void 
  2114 ;; Registers used:
  2115 ;;		wreg, fsr0l, fsr0h, status,2, status,0
  2116 ;; Tracked objects:
  2117 ;;		On entry : 0/0
  2118 ;;		On exit  : 0/0
  2119 ;;		Unchanged: 0/0
  2120 ;; Data sizes:     COMMON   BANK0   BANK1   BANK3   BANK2
  2121 ;;      Params:         0       0       0       2       0
  2122 ;;      Locals:         0       0       0       1       0
  2123 ;;      Temps:          0       0       0       2       0
  2124 ;;      Totals:         0       0       0       5       0
  2125 ;;Total ram usage:        5 bytes
  2126 ;; Hardware stack levels used: 1
  2127 ;; Hardware stack levels required when called: 5
  2128 ;; This function calls:
  2129 ;;		Nothing
  2130 ;; This function is called by:
  2131 ;;		_setup
  2132 ;; This function uses a non-reentrant model
  2133 ;;
  2134                           
  2135  15B8                     _adc_init:	
  2136                           ;psect for function _adc_init
  2137                           
  2138                           
  2139                           ;incstack = 0
  2140                           ; Regs used in _adc_init: [wreg-fsr0h+status,2+status,0]
  2141                           ;adc_init@adc_cs stored from wreg
  2142  15B8  1683               	bsf	3,5	;RP0=1, select bank3
  2143  15B9  1703               	bsf	3,6	;RP1=1, select bank3
  2144  15BA  0094               	movwf	adc_init@adc_cs^(0+384)
  2145  15BB                     l2810:
  2146                           
  2147                           ;adc.c: 15:     switch(adc_cs){
  2148  15BB  2DDB               	goto	l2824
  2149  15BC                     l2812:
  2150                           
  2151                           ;adc.c: 17:             ADCON0bits.ADCS = 0b00;
  2152  15BC  303F               	movlw	-193
  2153  15BD  1283               	bcf	3,5	;RP0=0, select bank0
  2154  15BE  1303               	bcf	3,6	;RP1=0, select bank0
  2155  15BF  059F               	andwf	31,f	;volatile
  2156                           
  2157                           ;adc.c: 18:             break;
  2158  15C0  2DFD               	goto	l2828
  2159  15C1                     l2814:
  2160                           
  2161                           ;adc.c: 20:             ADCON0bits.ADCS = 0b01;
  2162  15C1  1283               	bcf	3,5	;RP0=0, select bank0
  2163  15C2  1303               	bcf	3,6	;RP1=0, select bank0
  2164  15C3  081F               	movf	31,w	;volatile
  2165  15C4  393F               	andlw	-193
  2166  15C5  3840               	iorlw	64
  2167  15C6  009F               	movwf	31	;volatile
  2168                           
  2169                           ;adc.c: 21:             break;
  2170  15C7  2DFD               	goto	l2828
  2171  15C8                     l2816:
  2172                           
  2173                           ;adc.c: 23:             ADCON0bits.ADCS = 0b10;
  2174  15C8  1283               	bcf	3,5	;RP0=0, select bank0
  2175  15C9  1303               	bcf	3,6	;RP1=0, select bank0
  2176  15CA  081F               	movf	31,w	;volatile
  2177  15CB  393F               	andlw	-193
  2178  15CC  3880               	iorlw	128
  2179  15CD  009F               	movwf	31	;volatile
  2180                           
  2181                           ;adc.c: 24:             break;
  2182  15CE  2DFD               	goto	l2828
  2183  15CF                     l2818:
  2184                           
  2185                           ;adc.c: 26:             ADCON0bits.ADCS = 0b11;
  2186  15CF  30C0               	movlw	192
  2187  15D0  1283               	bcf	3,5	;RP0=0, select bank0
  2188  15D1  1303               	bcf	3,6	;RP1=0, select bank0
  2189  15D2  049F               	iorwf	31,f	;volatile
  2190                           
  2191                           ;adc.c: 27:             break;
  2192  15D3  2DFD               	goto	l2828
  2193  15D4                     l2820:
  2194                           
  2195                           ;adc.c: 29:             ADCON0bits.ADCS = 0b01;
  2196  15D4  1283               	bcf	3,5	;RP0=0, select bank0
  2197  15D5  1303               	bcf	3,6	;RP1=0, select bank0
  2198  15D6  081F               	movf	31,w	;volatile
  2199  15D7  393F               	andlw	-193
  2200  15D8  3840               	iorlw	64
  2201  15D9  009F               	movwf	31	;volatile
  2202                           
  2203                           ;adc.c: 30:             break;
  2204  15DA  2DFD               	goto	l2828
  2205  15DB                     l2824:
  2206  15DB  0814               	movf	adc_init@adc_cs^(0+384),w
  2207  15DC  0092               	movwf	??_adc_init^(0+384)
  2208  15DD  0193               	clrf	(??_adc_init^(0+384)+1)
  2209                           
  2210                           ; Switch on 2 bytes has been partitioned into a top level switch of size 1, and 1 sub-sw
      +                          itches
  2211                           ; Switch size 1, requested type "simple"
  2212                           ; Number of cases is 1, Range of values is 0 to 0
  2213                           ; switch strategies available:
  2214                           ; Name         Instructions Cycles
  2215                           ; simple_byte            4     3 (average)
  2216                           ; direct_byte           11     8 (fixed)
  2217                           ; jumptable            260     6 (fixed)
  2218                           ;	Chosen strategy is simple_byte
  2219  15DE  0813               	movf	(??_adc_init+1)^(0+384),w
  2220  15DF  3A00               	xorlw	0	; case 0
  2221  15E0  1903               	skipnz
  2222  15E1  2DE3               	goto	l3612
  2223  15E2  2DD4               	goto	l2820
  2224  15E3                     l3612:
  2225                           
  2226                           ; Switch size 1, requested type "simple"
  2227                           ; Number of cases is 4, Range of values is 0 to 3
  2228                           ; switch strategies available:
  2229                           ; Name         Instructions Cycles
  2230                           ; simple_byte           13     7 (average)
  2231                           ; direct_byte           20     8 (fixed)
  2232                           ; jumptable            260     6 (fixed)
  2233                           ;	Chosen strategy is simple_byte
  2234  15E3  0812               	movf	??_adc_init^(0+384),w
  2235  15E4  3A00               	xorlw	0	; case 0
  2236  15E5  1903               	skipnz
  2237  15E6  2DBC               	goto	l2812
  2238  15E7  3A01               	xorlw	1	; case 1
  2239  15E8  1903               	skipnz
  2240  15E9  2DC1               	goto	l2814
  2241  15EA  3A03               	xorlw	3	; case 2
  2242  15EB  1903               	skipnz
  2243  15EC  2DC8               	goto	l2816
  2244  15ED  3A01               	xorlw	1	; case 3
  2245  15EE  1903               	skipnz
  2246  15EF  2DCF               	goto	l2818
  2247  15F0  2DD4               	goto	l2820
  2248  15F1                     l208:	
  2249                           ;adc.c: 33:         case 0:
  2250                           
  2251                           
  2252                           ;adc.c: 34:             ADCON1bits.VCFG0 = 0;
  2253  15F1  1683               	bsf	3,5	;RP0=1, select bank1
  2254  15F2  1303               	bcf	3,6	;RP1=0, select bank1
  2255  15F3  121F               	bcf	31,4	;volatile
  2256                           
  2257                           ;adc.c: 35:             break;
  2258  15F4  2E1B               	goto	l2832
  2259  15F5                     l210:	
  2260                           ;adc.c: 36:         case 1:
  2261                           
  2262                           
  2263                           ;adc.c: 37:             ADCON1bits.VCFG0 = 1;
  2264  15F5  1683               	bsf	3,5	;RP0=1, select bank1
  2265  15F6  1303               	bcf	3,6	;RP1=0, select bank1
  2266  15F7  161F               	bsf	31,4	;volatile
  2267                           
  2268                           ;adc.c: 38:             break;
  2269  15F8  2E1B               	goto	l2832
  2270  15F9                     l211:	
  2271                           ;adc.c: 39:         default:
  2272                           
  2273                           
  2274                           ;adc.c: 40:             ADCON1bits.VCFG0 = 0;
  2275  15F9  1683               	bsf	3,5	;RP0=1, select bank1
  2276  15FA  1303               	bcf	3,6	;RP1=0, select bank1
  2277  15FB  121F               	bcf	31,4	;volatile
  2278                           
  2279                           ;adc.c: 41:             break;
  2280  15FC  2E1B               	goto	l2832
  2281  15FD                     l2828:
  2282  15FD  1683               	bsf	3,5	;RP0=1, select bank3
  2283  15FE  1703               	bsf	3,6	;RP1=1, select bank3
  2284  15FF  0810               	movf	adc_init@vref_plus^(0+384),w
  2285  1600  0092               	movwf	??_adc_init^(0+384)
  2286  1601  0193               	clrf	(??_adc_init^(0+384)+1)
  2287                           
  2288                           ; Switch on 2 bytes has been partitioned into a top level switch of size 1, and 1 sub-sw
      +                          itches
  2289                           ; Switch size 1, requested type "simple"
  2290                           ; Number of cases is 1, Range of values is 0 to 0
  2291                           ; switch strategies available:
  2292                           ; Name         Instructions Cycles
  2293                           ; simple_byte            4     3 (average)
  2294                           ; direct_byte           11     8 (fixed)
  2295                           ; jumptable            260     6 (fixed)
  2296                           ;	Chosen strategy is simple_byte
  2297  1602  0813               	movf	(??_adc_init+1)^(0+384),w
  2298  1603  3A00               	xorlw	0	; case 0
  2299  1604  1903               	skipnz
  2300  1605  2E07               	goto	l3614
  2301  1606  2DF9               	goto	l211
  2302  1607                     l3614:
  2303                           
  2304                           ; Switch size 1, requested type "simple"
  2305                           ; Number of cases is 2, Range of values is 0 to 1
  2306                           ; switch strategies available:
  2307                           ; Name         Instructions Cycles
  2308                           ; simple_byte            7     4 (average)
  2309                           ; direct_byte           14     8 (fixed)
  2310                           ; jumptable            260     6 (fixed)
  2311                           ;	Chosen strategy is simple_byte
  2312  1607  0812               	movf	??_adc_init^(0+384),w
  2313  1608  3A00               	xorlw	0	; case 0
  2314  1609  1903               	skipnz
  2315  160A  2DF1               	goto	l208
  2316  160B  3A01               	xorlw	1	; case 1
  2317  160C  1903               	skipnz
  2318  160D  2DF5               	goto	l210
  2319  160E  2DF9               	goto	l211
  2320  160F                     l213:	
  2321                           ;adc.c: 44:         case 0:
  2322                           
  2323                           
  2324                           ;adc.c: 45:             ADCON1bits.VCFG1 = 0;
  2325  160F  1683               	bsf	3,5	;RP0=1, select bank1
  2326  1610  1303               	bcf	3,6	;RP1=0, select bank1
  2327  1611  129F               	bcf	31,5	;volatile
  2328                           
  2329                           ;adc.c: 46:             break;
  2330  1612  2E2D               	goto	l214
  2331  1613                     l215:	
  2332                           ;adc.c: 47:         case 1:
  2333                           
  2334                           
  2335                           ;adc.c: 48:             ADCON1bits.VCFG1 = 1;
  2336  1613  1683               	bsf	3,5	;RP0=1, select bank1
  2337  1614  1303               	bcf	3,6	;RP1=0, select bank1
  2338  1615  169F               	bsf	31,5	;volatile
  2339                           
  2340                           ;adc.c: 49:             break;
  2341  1616  2E2D               	goto	l214
  2342  1617                     l216:	
  2343                           ;adc.c: 50:         default:
  2344                           
  2345                           
  2346                           ;adc.c: 51:             ADCON1bits.VCFG1 = 0;
  2347  1617  1683               	bsf	3,5	;RP0=1, select bank1
  2348  1618  1303               	bcf	3,6	;RP1=0, select bank1
  2349  1619  129F               	bcf	31,5	;volatile
  2350                           
  2351                           ;adc.c: 52:             break;
  2352  161A  2E2D               	goto	l214
  2353  161B                     l2832:
  2354  161B  1683               	bsf	3,5	;RP0=1, select bank3
  2355  161C  1703               	bsf	3,6	;RP1=1, select bank3
  2356  161D  0811               	movf	adc_init@vref_minus^(0+384),w
  2357  161E  0092               	movwf	??_adc_init^(0+384)
  2358  161F  0193               	clrf	(??_adc_init^(0+384)+1)
  2359                           
  2360                           ; Switch on 2 bytes has been partitioned into a top level switch of size 1, and 1 sub-sw
      +                          itches
  2361                           ; Switch size 1, requested type "simple"
  2362                           ; Number of cases is 1, Range of values is 0 to 0
  2363                           ; switch strategies available:
  2364                           ; Name         Instructions Cycles
  2365                           ; simple_byte            4     3 (average)
  2366                           ; direct_byte           11     8 (fixed)
  2367                           ; jumptable            260     6 (fixed)
  2368                           ;	Chosen strategy is simple_byte
  2369  1620  0813               	movf	(??_adc_init+1)^(0+384),w
  2370  1621  3A00               	xorlw	0	; case 0
  2371  1622  1903               	skipnz
  2372  1623  2E25               	goto	l3616
  2373  1624  2E17               	goto	l216
  2374  1625                     l3616:
  2375                           
  2376                           ; Switch size 1, requested type "simple"
  2377                           ; Number of cases is 2, Range of values is 0 to 1
  2378                           ; switch strategies available:
  2379                           ; Name         Instructions Cycles
  2380                           ; simple_byte            7     4 (average)
  2381                           ; direct_byte           14     8 (fixed)
  2382                           ; jumptable            260     6 (fixed)
  2383                           ;	Chosen strategy is simple_byte
  2384  1625  0812               	movf	??_adc_init^(0+384),w
  2385  1626  3A00               	xorlw	0	; case 0
  2386  1627  1903               	skipnz
  2387  1628  2E0F               	goto	l213
  2388  1629  3A01               	xorlw	1	; case 1
  2389  162A  1903               	skipnz
  2390  162B  2E13               	goto	l215
  2391  162C  2E17               	goto	l216
  2392  162D                     l214:
  2393                           
  2394                           ;adc.c: 54:     ADCON1bits.ADFM = 1;
  2395  162D  179F               	bsf	31,7	;volatile
  2396                           
  2397                           ;adc.c: 55:     ADCON0bits.ADON = 1;
  2398  162E  1283               	bcf	3,5	;RP0=0, select bank0
  2399  162F  1303               	bcf	3,6	;RP1=0, select bank0
  2400  1630  141F               	bsf	31,0	;volatile
  2401                           
  2402                           ;adc.c: 56:     PIE1bits.ADIE = 1;
  2403  1631  1683               	bsf	3,5	;RP0=1, select bank1
  2404  1632  1303               	bcf	3,6	;RP1=0, select bank1
  2405  1633  170C               	bsf	12,6	;volatile
  2406                           
  2407                           ;adc.c: 57:     PIR1bits.ADIF = 0;
  2408  1634  1283               	bcf	3,5	;RP0=0, select bank0
  2409  1635  1303               	bcf	3,6	;RP1=0, select bank0
  2410  1636  130C               	bcf	12,6	;volatile
  2411  1637                     l217:
  2412  1637  0008               	return
  2413  1638                     __end_of_adc_init:
  2414                           
  2415                           	psect	text5
  2416  14CF                     __ptext5:	
  2417 ;; *************** function _USART_set *****************
  2418 ;; Defined at:
  2419 ;;		line 12 in file "USART.c"
  2420 ;; Parameters:    Size  Location     Type
  2421 ;;  baudrate        4   14[BANK3 ] const unsigned long 
  2422 ;; Auto vars:     Size  Location     Type
  2423 ;;		None
  2424 ;; Return value:  Size  Location     Type
  2425 ;;                  1    wreg      void 
  2426 ;; Registers used:
  2427 ;;		wreg, status,2, status,0, pclath, cstack
  2428 ;; Tracked objects:
  2429 ;;		On entry : 0/0
  2430 ;;		On exit  : 0/0
  2431 ;;		Unchanged: 0/0
  2432 ;; Data sizes:     COMMON   BANK0   BANK1   BANK3   BANK2
  2433 ;;      Params:         0       0       0       4       0
  2434 ;;      Locals:         0       0       0       0       0
  2435 ;;      Temps:          0       0       0      12       0
  2436 ;;      Totals:         0       0       0      16       0
  2437 ;;Total ram usage:       16 bytes
  2438 ;; Hardware stack levels used: 1
  2439 ;; Hardware stack levels required when called: 6
  2440 ;; This function calls:
  2441 ;;		___lldiv
  2442 ;; This function is called by:
  2443 ;;		_setup
  2444 ;; This function uses a non-reentrant model
  2445 ;;
  2446                           
  2447  14CF                     _USART_set:	
  2448                           ;psect for function _USART_set
  2449                           
  2450  14CF                     l2796:	
  2451                           ;incstack = 0
  2452                           ; Regs used in _USART_set: [wreg+status,2+status,0+pclath+cstack]
  2453                           
  2454                           
  2455                           ;USART.c: 12: void USART_set(const unsigned long int baudrate);USART.c: 13: {;USART.c: 1
      +                          4:     TXSTAbits.BRGH = 1;
  2456  14CF  1683               	bsf	3,5	;RP0=1, select bank1
  2457  14D0  1303               	bcf	3,6	;RP1=0, select bank1
  2458  14D1  1518               	bsf	24,2	;volatile
  2459                           
  2460                           ;USART.c: 15:     BAUDCTLbits.BRG16 = 1;
  2461  14D2  1683               	bsf	3,5	;RP0=1, select bank3
  2462  14D3  1703               	bsf	3,6	;RP1=1, select bank3
  2463  14D4  1587               	bsf	7,3	;volatile
  2464  14D5                     l2798:
  2465                           
  2466                           ;USART.c: 16:     SPBRGH = 0;
  2467  14D5  1683               	bsf	3,5	;RP0=1, select bank1
  2468  14D6  1303               	bcf	3,6	;RP1=0, select bank1
  2469  14D7  019A               	clrf	26	;volatile
  2470  14D8                     l2800:
  2471                           
  2472                           ;USART.c: 17:     SPBRG = (1000000 - baudrate * 4) / (baudrate * 4);
  2473  14D8  1683               	bsf	3,5	;RP0=1, select bank3
  2474  14D9  1703               	bsf	3,6	;RP1=1, select bank3
  2475  14DA  081E               	movf	USART_set@baudrate^(0+384),w
  2476  14DB  00A2               	movwf	??_USART_set^(0+384)
  2477  14DC  081F               	movf	(USART_set@baudrate+1)^(0+384),w
  2478  14DD  00A3               	movwf	(??_USART_set^(0+384)+1)
  2479  14DE  0820               	movf	(USART_set@baudrate+2)^(0+384),w
  2480  14DF  00A4               	movwf	(??_USART_set^(0+384)+2)
  2481  14E0  0821               	movf	(USART_set@baudrate+3)^(0+384),w
  2482  14E1  00A5               	movwf	(??_USART_set^(0+384)+3)
  2483  14E2  3002               	movlw	2
  2484  14E3                     u3185:
  2485  14E3  1003               	clrc
  2486  14E4  0DA2               	rlf	??_USART_set^(0+384),f
  2487  14E5  0DA3               	rlf	(??_USART_set^(0+384)+1),f
  2488  14E6  0DA4               	rlf	(??_USART_set^(0+384)+2),f
  2489  14E7  0DA5               	rlf	(??_USART_set^(0+384)+3),f
  2490  14E8                     u3180:
  2491  14E8  3EFF               	addlw	-1
  2492  14E9  1D03               	skipz
  2493  14EA  2CE3               	goto	u3185
  2494  14EB  0825               	movf	(??_USART_set+3)^(0+384),w
  2495  14EC  0093               	movwf	(___lldiv@divisor+3)^(0+384)
  2496  14ED  0824               	movf	(??_USART_set+2)^(0+384),w
  2497  14EE  0092               	movwf	(___lldiv@divisor+2)^(0+384)
  2498  14EF  0823               	movf	(??_USART_set+1)^(0+384),w
  2499  14F0  0091               	movwf	(___lldiv@divisor+1)^(0+384)
  2500  14F1  0822               	movf	??_USART_set^(0+384),w
  2501  14F2  0090               	movwf	___lldiv@divisor^(0+384)
  2502  14F3  081E               	movf	USART_set@baudrate^(0+384),w
  2503  14F4  00A6               	movwf	(??_USART_set+4)^(0+384)
  2504  14F5  081F               	movf	(USART_set@baudrate+1)^(0+384),w
  2505  14F6  00A7               	movwf	((??_USART_set+4)^(0+384)+1)
  2506  14F7  0820               	movf	(USART_set@baudrate+2)^(0+384),w
  2507  14F8  00A8               	movwf	((??_USART_set+4)^(0+384)+2)
  2508  14F9  0821               	movf	(USART_set@baudrate+3)^(0+384),w
  2509  14FA  00A9               	movwf	((??_USART_set+4)^(0+384)+3)
  2510  14FB  3002               	movlw	2
  2511  14FC                     u3195:
  2512  14FC  1003               	clrc
  2513  14FD  0DA6               	rlf	(??_USART_set+4)^(0+384),f
  2514  14FE  0DA7               	rlf	((??_USART_set+4)^(0+384)+1),f
  2515  14FF  0DA8               	rlf	((??_USART_set+4)^(0+384)+2),f
  2516  1500  0DA9               	rlf	((??_USART_set+4)^(0+384)+3),f
  2517  1501                     u3190:
  2518  1501  3EFF               	addlw	-1
  2519  1502  1D03               	skipz
  2520  1503  2CFC               	goto	u3195
  2521  1504  3040               	movlw	64
  2522  1505  00AA               	movwf	(??_USART_set+8)^(0+384)
  2523  1506  3042               	movlw	66
  2524  1507  00AB               	movwf	((??_USART_set+8)^(0+384)+1)
  2525  1508  300F               	movlw	15
  2526  1509  00AC               	movwf	((??_USART_set+8)^(0+384)+2)
  2527  150A  3000               	movlw	0
  2528  150B  00AD               	movwf	((??_USART_set+8)^(0+384)+3)
  2529  150C  0826               	movf	(??_USART_set+4)^(0+384),w
  2530  150D  02AA               	subwf	(??_USART_set+8)^(0+384),f
  2531  150E  0827               	movf	(??_USART_set+5)^(0+384),w
  2532  150F  1C03               	skipc
  2533  1510  0F27               	incfsz	(??_USART_set+5)^(0+384),w
  2534  1511  2D13               	goto	u3201
  2535  1512  2D14               	goto	u3202
  2536  1513                     u3201:
  2537  1513  02AB               	subwf	((??_USART_set+8)^(0+384)+1),f
  2538  1514                     u3202:
  2539  1514  0828               	movf	(??_USART_set+6)^(0+384),w
  2540  1515  1C03               	skipc
  2541  1516  0F28               	incfsz	(??_USART_set+6)^(0+384),w
  2542  1517  2D19               	goto	u3203
  2543  1518  2D1A               	goto	u3204
  2544  1519                     u3203:
  2545  1519  02AC               	subwf	((??_USART_set+8)^(0+384)+2),f
  2546  151A                     u3204:
  2547  151A  0829               	movf	(??_USART_set+7)^(0+384),w
  2548  151B  1C03               	skipc
  2549  151C  0F29               	incfsz	(??_USART_set+7)^(0+384),w
  2550  151D  2D1F               	goto	u3205
  2551  151E  2D20               	goto	u3206
  2552  151F                     u3205:
  2553  151F  02AD               	subwf	((??_USART_set+8)^(0+384)+3),f
  2554  1520                     u3206:
  2555  1520  082D               	movf	(??_USART_set+11)^(0+384),w
  2556  1521  0097               	movwf	(___lldiv@dividend+3)^(0+384)
  2557  1522  082C               	movf	(??_USART_set+10)^(0+384),w
  2558  1523  0096               	movwf	(___lldiv@dividend+2)^(0+384)
  2559  1524  082B               	movf	(??_USART_set+9)^(0+384),w
  2560  1525  0095               	movwf	(___lldiv@dividend+1)^(0+384)
  2561  1526  082A               	movf	(??_USART_set+8)^(0+384),w
  2562  1527  0094               	movwf	___lldiv@dividend^(0+384)
  2563  1528  160A  118A  2467  160A  118A  	fcall	___lldiv
  2564  152D  1683               	bsf	3,5	;RP0=1, select bank3
  2565  152E  1703               	bsf	3,6	;RP1=1, select bank3
  2566  152F  0810               	movf	?___lldiv^(0+384),w
  2567  1530  1683               	bsf	3,5	;RP0=1, select bank1
  2568  1531  1303               	bcf	3,6	;RP1=0, select bank1
  2569  1532  0099               	movwf	25	;volatile
  2570  1533                     l2802:
  2571                           
  2572                           ;USART.c: 18:     TXSTAbits.SYNC = 0;
  2573  1533  1218               	bcf	24,4	;volatile
  2574  1534                     l2804:
  2575                           
  2576                           ;USART.c: 19:     RCSTAbits.SPEN = 1;
  2577  1534  1283               	bcf	3,5	;RP0=0, select bank0
  2578  1535  1303               	bcf	3,6	;RP1=0, select bank0
  2579  1536  1798               	bsf	24,7	;volatile
  2580  1537                     l2806:
  2581                           
  2582                           ;USART.c: 22:     TXSTAbits.TX9 = 0;
  2583  1537  1683               	bsf	3,5	;RP0=1, select bank1
  2584  1538  1303               	bcf	3,6	;RP1=0, select bank1
  2585  1539  1318               	bcf	24,6	;volatile
  2586  153A                     l2808:
  2587                           
  2588                           ;USART.c: 24:     TXSTAbits.TXEN = 1;
  2589  153A  1698               	bsf	24,5	;volatile
  2590  153B                     l171:
  2591  153B  0008               	return
  2592  153C                     __end_of_USART_set:
  2593                           
  2594                           	psect	text6
  2595  12A5                     __ptext6:	
  2596 ;; *************** function _I2C_Master_Init *****************
  2597 ;; Defined at:
  2598 ;;		line 14 in file "I2C.c"
  2599 ;; Parameters:    Size  Location     Type
  2600 ;;  c               4   14[BANK3 ] const unsigned long 
  2601 ;; Auto vars:     Size  Location     Type
  2602 ;;		None
  2603 ;; Return value:  Size  Location     Type
  2604 ;;                  1    wreg      void 
  2605 ;; Registers used:
  2606 ;;		wreg, status,2, status,0, pclath, cstack
  2607 ;; Tracked objects:
  2608 ;;		On entry : 0/0
  2609 ;;		On exit  : 0/0
  2610 ;;		Unchanged: 0/0
  2611 ;; Data sizes:     COMMON   BANK0   BANK1   BANK3   BANK2
  2612 ;;      Params:         0       0       0       4       0
  2613 ;;      Locals:         0       0       0       0       0
  2614 ;;      Temps:          0       0       0       4       0
  2615 ;;      Totals:         0       0       0       8       0
  2616 ;;Total ram usage:        8 bytes
  2617 ;; Hardware stack levels used: 1
  2618 ;; Hardware stack levels required when called: 6
  2619 ;; This function calls:
  2620 ;;		___lldiv
  2621 ;; This function is called by:
  2622 ;;		_setup
  2623 ;; This function uses a non-reentrant model
  2624 ;;
  2625                           
  2626  12A5                     _I2C_Master_Init:	
  2627                           ;psect for function _I2C_Master_Init
  2628                           
  2629  12A5                     l2852:	
  2630                           ;incstack = 0
  2631                           ; Regs used in _I2C_Master_Init: [wreg+status,2+status,0+pclath+cstack]
  2632                           
  2633                           
  2634                           ;I2C.c: 14: void I2C_Master_Init(const unsigned long c);I2C.c: 15: {;I2C.c: 16:     SSPC
      +                          ON = 0b00101000;
  2635  12A5  3028               	movlw	40
  2636  12A6  1283               	bcf	3,5	;RP0=0, select bank0
  2637  12A7  1303               	bcf	3,6	;RP1=0, select bank0
  2638  12A8  0094               	movwf	20	;volatile
  2639  12A9                     l2854:
  2640                           
  2641                           ;I2C.c: 17:     SSPCON2 = 0;
  2642  12A9  1683               	bsf	3,5	;RP0=1, select bank1
  2643  12AA  1303               	bcf	3,6	;RP1=0, select bank1
  2644  12AB  0191               	clrf	17	;volatile
  2645  12AC                     l2856:
  2646                           
  2647                           ;I2C.c: 18:     SSPADD = (1000000/(4*c))-1;
  2648  12AC  1683               	bsf	3,5	;RP0=1, select bank3
  2649  12AD  1703               	bsf	3,6	;RP1=1, select bank3
  2650  12AE  081E               	movf	I2C_Master_Init@c^(0+384),w
  2651  12AF  00A2               	movwf	??_I2C_Master_Init^(0+384)
  2652  12B0  081F               	movf	(I2C_Master_Init@c+1)^(0+384),w
  2653  12B1  00A3               	movwf	(??_I2C_Master_Init^(0+384)+1)
  2654  12B2  0820               	movf	(I2C_Master_Init@c+2)^(0+384),w
  2655  12B3  00A4               	movwf	(??_I2C_Master_Init^(0+384)+2)
  2656  12B4  0821               	movf	(I2C_Master_Init@c+3)^(0+384),w
  2657  12B5  00A5               	movwf	(??_I2C_Master_Init^(0+384)+3)
  2658  12B6  3002               	movlw	2
  2659  12B7                     u3215:
  2660  12B7  1003               	clrc
  2661  12B8  0DA2               	rlf	??_I2C_Master_Init^(0+384),f
  2662  12B9  0DA3               	rlf	(??_I2C_Master_Init^(0+384)+1),f
  2663  12BA  0DA4               	rlf	(??_I2C_Master_Init^(0+384)+2),f
  2664  12BB  0DA5               	rlf	(??_I2C_Master_Init^(0+384)+3),f
  2665  12BC                     u3210:
  2666  12BC  3EFF               	addlw	-1
  2667  12BD  1D03               	skipz
  2668  12BE  2AB7               	goto	u3215
  2669  12BF  0825               	movf	(??_I2C_Master_Init+3)^(0+384),w
  2670  12C0  0093               	movwf	(___lldiv@divisor+3)^(0+384)
  2671  12C1  0824               	movf	(??_I2C_Master_Init+2)^(0+384),w
  2672  12C2  0092               	movwf	(___lldiv@divisor+2)^(0+384)
  2673  12C3  0823               	movf	(??_I2C_Master_Init+1)^(0+384),w
  2674  12C4  0091               	movwf	(___lldiv@divisor+1)^(0+384)
  2675  12C5  0822               	movf	??_I2C_Master_Init^(0+384),w
  2676  12C6  0090               	movwf	___lldiv@divisor^(0+384)
  2677  12C7  3000               	movlw	0
  2678  12C8  0097               	movwf	(___lldiv@dividend+3)^(0+384)
  2679  12C9  300F               	movlw	15
  2680  12CA  0096               	movwf	(___lldiv@dividend+2)^(0+384)
  2681  12CB  3042               	movlw	66
  2682  12CC  0095               	movwf	(___lldiv@dividend+1)^(0+384)
  2683  12CD  3040               	movlw	64
  2684  12CE  0094               	movwf	___lldiv@dividend^(0+384)
  2685  12CF  160A  118A  2467  160A  118A  	fcall	___lldiv
  2686  12D4  1683               	bsf	3,5	;RP0=1, select bank3
  2687  12D5  1703               	bsf	3,6	;RP1=1, select bank3
  2688  12D6  0810               	movf	?___lldiv^(0+384),w
  2689  12D7  3EFF               	addlw	255
  2690  12D8  1683               	bsf	3,5	;RP0=1, select bank1
  2691  12D9  1303               	bcf	3,6	;RP1=0, select bank1
  2692  12DA  0093               	movwf	19	;volatile
  2693  12DB                     l2858:
  2694                           
  2695                           ;I2C.c: 19:     SSPSTAT = 0;
  2696  12DB  0194               	clrf	20	;volatile
  2697  12DC                     l2860:
  2698                           
  2699                           ;I2C.c: 20:     TRISCbits.TRISC3 = 1;
  2700  12DC  1587               	bsf	7,3	;volatile
  2701  12DD                     l2862:
  2702                           
  2703                           ;I2C.c: 21:     TRISCbits.TRISC4 = 1;
  2704  12DD  1607               	bsf	7,4	;volatile
  2705  12DE                     l293:
  2706  12DE  0008               	return
  2707  12DF                     __end_of_I2C_Master_Init:
  2708                           
  2709                           	psect	text7
  2710  1467                     __ptext7:	
  2711 ;; *************** function ___lldiv *****************
  2712 ;; Defined at:
  2713 ;;		line 5 in file "C:\Program Files\Microchip\xc8\v2.35\pic\sources\c90\common\__lldiv.c"
  2714 ;; Parameters:    Size  Location     Type
  2715 ;;  divisor         4    0[BANK3 ] unsigned long 
  2716 ;;  dividend        4    4[BANK3 ] unsigned long 
  2717 ;; Auto vars:     Size  Location     Type
  2718 ;;  quotient        4    9[BANK3 ] unsigned long 
  2719 ;;  counter         1   13[BANK3 ] unsigned char 
  2720 ;; Return value:  Size  Location     Type
  2721 ;;                  4    0[BANK3 ] unsigned long 
  2722 ;; Registers used:
  2723 ;;		wreg, status,2, status,0
  2724 ;; Tracked objects:
  2725 ;;		On entry : 0/0
  2726 ;;		On exit  : 0/0
  2727 ;;		Unchanged: 0/0
  2728 ;; Data sizes:     COMMON   BANK0   BANK1   BANK3   BANK2
  2729 ;;      Params:         0       0       0       8       0
  2730 ;;      Locals:         0       0       0       5       0
  2731 ;;      Temps:          0       0       0       1       0
  2732 ;;      Totals:         0       0       0      14       0
  2733 ;;Total ram usage:       14 bytes
  2734 ;; Hardware stack levels used: 1
  2735 ;; Hardware stack levels required when called: 5
  2736 ;; This function calls:
  2737 ;;		Nothing
  2738 ;; This function is called by:
  2739 ;;		_USART_set
  2740 ;;		_I2C_Master_Init
  2741 ;; This function uses a non-reentrant model
  2742 ;;
  2743                           
  2744  1467                     ___lldiv:	
  2745                           ;psect for function ___lldiv
  2746                           
  2747  1467                     l2332:	
  2748                           ;incstack = 0
  2749                           ; Regs used in ___lldiv: [wreg+status,2+status,0]
  2750                           
  2751  1467  3000               	movlw	0
  2752  1468  1683               	bsf	3,5	;RP0=1, select bank3
  2753  1469  1703               	bsf	3,6	;RP1=1, select bank3
  2754  146A  009C               	movwf	(___lldiv@quotient+3)^(0+384)
  2755  146B  3000               	movlw	0
  2756  146C  009B               	movwf	(___lldiv@quotient+2)^(0+384)
  2757  146D  3000               	movlw	0
  2758  146E  009A               	movwf	(___lldiv@quotient+1)^(0+384)
  2759  146F  3000               	movlw	0
  2760  1470  0099               	movwf	___lldiv@quotient^(0+384)
  2761  1471  0813               	movf	(___lldiv@divisor+3)^(0+384),w
  2762  1472  0412               	iorwf	(___lldiv@divisor+2)^(0+384),w
  2763  1473  0411               	iorwf	(___lldiv@divisor+1)^(0+384),w
  2764  1474  0410               	iorwf	___lldiv@divisor^(0+384),w
  2765  1475  1903               	skipnz
  2766  1476  2C78               	goto	u2211
  2767  1477  2C79               	goto	u2210
  2768  1478                     u2211:
  2769  1478  2CC6               	goto	l2352
  2770  1479                     u2210:
  2771  1479                     l2334:
  2772  1479  019D               	clrf	___lldiv@counter^(0+384)
  2773  147A  0A9D               	incf	___lldiv@counter^(0+384),f
  2774  147B  2C89               	goto	l2338
  2775  147C                     l2336:
  2776  147C  3001               	movlw	1
  2777  147D  0098               	movwf	??___lldiv^(0+384)
  2778  147E                     u2225:
  2779  147E  1003               	clrc
  2780  147F  0D90               	rlf	___lldiv@divisor^(0+384),f
  2781  1480  0D91               	rlf	(___lldiv@divisor+1)^(0+384),f
  2782  1481  0D92               	rlf	(___lldiv@divisor+2)^(0+384),f
  2783  1482  0D93               	rlf	(___lldiv@divisor+3)^(0+384),f
  2784  1483  0B98               	decfsz	??___lldiv^(0+384),f
  2785  1484  2C7E               	goto	u2225
  2786  1485  3001               	movlw	1
  2787  1486  0098               	movwf	??___lldiv^(0+384)
  2788  1487  0818               	movf	??___lldiv^(0+384),w
  2789  1488  079D               	addwf	___lldiv@counter^(0+384),f
  2790  1489                     l2338:
  2791  1489  1F93               	btfss	(___lldiv@divisor+3)^(0+384),7
  2792  148A  2C8C               	goto	u2231
  2793  148B  2C8D               	goto	u2230
  2794  148C                     u2231:
  2795  148C  2C7C               	goto	l2336
  2796  148D                     u2230:
  2797  148D                     l2340:
  2798  148D  3001               	movlw	1
  2799  148E  0098               	movwf	??___lldiv^(0+384)
  2800  148F                     u2245:
  2801  148F  1003               	clrc
  2802  1490  0D99               	rlf	___lldiv@quotient^(0+384),f
  2803  1491  0D9A               	rlf	(___lldiv@quotient+1)^(0+384),f
  2804  1492  0D9B               	rlf	(___lldiv@quotient+2)^(0+384),f
  2805  1493  0D9C               	rlf	(___lldiv@quotient+3)^(0+384),f
  2806  1494  0B98               	decfsz	??___lldiv^(0+384),f
  2807  1495  2C8F               	goto	u2245
  2808  1496                     l2342:
  2809  1496  0813               	movf	(___lldiv@divisor+3)^(0+384),w
  2810  1497  0217               	subwf	(___lldiv@dividend+3)^(0+384),w
  2811  1498  1D03               	skipz
  2812  1499  2CA4               	goto	u2255
  2813  149A  0812               	movf	(___lldiv@divisor+2)^(0+384),w
  2814  149B  0216               	subwf	(___lldiv@dividend+2)^(0+384),w
  2815  149C  1D03               	skipz
  2816  149D  2CA4               	goto	u2255
  2817  149E  0811               	movf	(___lldiv@divisor+1)^(0+384),w
  2818  149F  0215               	subwf	(___lldiv@dividend+1)^(0+384),w
  2819  14A0  1D03               	skipz
  2820  14A1  2CA4               	goto	u2255
  2821  14A2  0810               	movf	___lldiv@divisor^(0+384),w
  2822  14A3  0214               	subwf	___lldiv@dividend^(0+384),w
  2823  14A4                     u2255:
  2824  14A4  1C03               	skipc
  2825  14A5  2CA7               	goto	u2251
  2826  14A6  2CA8               	goto	u2250
  2827  14A7                     u2251:
  2828  14A7  2CB7               	goto	l2348
  2829  14A8                     u2250:
  2830  14A8                     l2344:
  2831  14A8  0810               	movf	___lldiv@divisor^(0+384),w
  2832  14A9  0294               	subwf	___lldiv@dividend^(0+384),f
  2833  14AA  0811               	movf	(___lldiv@divisor+1)^(0+384),w
  2834  14AB  1C03               	skipc
  2835  14AC  0F11               	incfsz	(___lldiv@divisor+1)^(0+384),w
  2836  14AD  0295               	subwf	(___lldiv@dividend+1)^(0+384),f
  2837  14AE  0812               	movf	(___lldiv@divisor+2)^(0+384),w
  2838  14AF  1C03               	skipc
  2839  14B0  0F12               	incfsz	(___lldiv@divisor+2)^(0+384),w
  2840  14B1  0296               	subwf	(___lldiv@dividend+2)^(0+384),f
  2841  14B2  0813               	movf	(___lldiv@divisor+3)^(0+384),w
  2842  14B3  1C03               	skipc
  2843  14B4  0F13               	incfsz	(___lldiv@divisor+3)^(0+384),w
  2844  14B5  0297               	subwf	(___lldiv@dividend+3)^(0+384),f
  2845  14B6                     l2346:
  2846  14B6  1419               	bsf	___lldiv@quotient^(0+384),0
  2847  14B7                     l2348:
  2848  14B7  3001               	movlw	1
  2849  14B8                     u2265:
  2850  14B8  1003               	clrc
  2851  14B9  0C93               	rrf	(___lldiv@divisor+3)^(0+384),f
  2852  14BA  0C92               	rrf	(___lldiv@divisor+2)^(0+384),f
  2853  14BB  0C91               	rrf	(___lldiv@divisor+1)^(0+384),f
  2854  14BC  0C90               	rrf	___lldiv@divisor^(0+384),f
  2855  14BD  3EFF               	addlw	-1
  2856  14BE  1D03               	skipz
  2857  14BF  2CB8               	goto	u2265
  2858  14C0                     l2350:
  2859  14C0  3001               	movlw	1
  2860  14C1  029D               	subwf	___lldiv@counter^(0+384),f
  2861  14C2  1D03               	btfss	3,2
  2862  14C3  2CC5               	goto	u2271
  2863  14C4  2CC6               	goto	u2270
  2864  14C5                     u2271:
  2865  14C5  2C8D               	goto	l2340
  2866  14C6                     u2270:
  2867  14C6                     l2352:
  2868  14C6  081C               	movf	(___lldiv@quotient+3)^(0+384),w
  2869  14C7  0093               	movwf	(?___lldiv+3)^(0+384)
  2870  14C8  081B               	movf	(___lldiv@quotient+2)^(0+384),w
  2871  14C9  0092               	movwf	(?___lldiv+2)^(0+384)
  2872  14CA  081A               	movf	(___lldiv@quotient+1)^(0+384),w
  2873  14CB  0091               	movwf	(?___lldiv+1)^(0+384)
  2874  14CC  0819               	movf	___lldiv@quotient^(0+384),w
  2875  14CD  0090               	movwf	?___lldiv^(0+384)
  2876  14CE                     l438:
  2877  14CE  0008               	return
  2878  14CF                     __end_of___lldiv:
  2879                           
  2880                           	psect	text8
  2881  126B                     __ptext8:	
  2882 ;; *************** function _servo *****************
  2883 ;; Defined at:
  2884 ;;		line 138 in file "main_slave_p1.c"
  2885 ;; Parameters:    Size  Location     Type
  2886 ;;  mov             2    4[BANK3 ] unsigned short 
  2887 ;; Auto vars:     Size  Location     Type
  2888 ;;		None
  2889 ;; Return value:  Size  Location     Type
  2890 ;;                  1    wreg      void 
  2891 ;; Registers used:
  2892 ;;		wreg, status,2, status,0, pclath, cstack
  2893 ;; Tracked objects:
  2894 ;;		On entry : 0/0
  2895 ;;		On exit  : 0/0
  2896 ;;		Unchanged: 0/0
  2897 ;; Data sizes:     COMMON   BANK0   BANK1   BANK3   BANK2
  2898 ;;      Params:         0       0       0       2       0
  2899 ;;      Locals:         0       0       0       0       0
  2900 ;;      Temps:          0       0       0       0       0
  2901 ;;      Totals:         0       0       0       2       0
  2902 ;;Total ram usage:        2 bytes
  2903 ;; Hardware stack levels used: 1
  2904 ;; Hardware stack levels required when called: 6
  2905 ;; This function calls:
  2906 ;;		_USART_send
  2907 ;;		_pwm_duty_cycle
  2908 ;; This function is called by:
  2909 ;;		_main
  2910 ;; This function uses a non-reentrant model
  2911 ;;
  2912                           
  2913  126B                     _servo:	
  2914                           ;psect for function _servo
  2915                           
  2916  126B                     l3280:	
  2917                           ;incstack = 0
  2918                           ; Regs used in _servo: [wreg+status,2+status,0+pclath+cstack]
  2919                           
  2920                           
  2921                           ;main_slave_p1.c: 139:     if (mov == 1){
  2922  126B  1683               	bsf	3,5	;RP0=1, select bank3
  2923  126C  1703               	bsf	3,6	;RP1=1, select bank3
  2924  126D  0314               	decf	servo@mov^(0+384),w
  2925  126E  0415               	iorwf	(servo@mov+1)^(0+384),w
  2926  126F  1D03               	btfss	3,2
  2927  1270  2A72               	goto	u3991
  2928  1271  2A73               	goto	u3990
  2929  1272                     u3991:
  2930  1272  2A7D               	goto	l3284
  2931  1273                     u3990:
  2932  1273                     l3282:
  2933                           
  2934                           ;main_slave_p1.c: 140:         pwm_duty_cycle(94);
  2935  1273  305E               	movlw	94
  2936  1274  0090               	movwf	pwm_duty_cycle@duty_cycle^(0+384)
  2937  1275  3000               	movlw	0
  2938  1276  0091               	movwf	(pwm_duty_cycle@duty_cycle^(0+384)+1)
  2939  1277  160A  118A  2162  160A  118A  	fcall	_pwm_duty_cycle
  2940                           
  2941                           ;main_slave_p1.c: 141:     }
  2942  127C  2A86               	goto	l3286
  2943  127D                     l3284:
  2944                           
  2945                           ;main_slave_p1.c: 143:         pwm_duty_cycle(31);
  2946  127D  301F               	movlw	31
  2947  127E  0090               	movwf	pwm_duty_cycle@duty_cycle^(0+384)
  2948  127F  3000               	movlw	0
  2949  1280  0091               	movwf	(pwm_duty_cycle@duty_cycle^(0+384)+1)
  2950  1281  160A  118A  2162  160A  118A  	fcall	_pwm_duty_cycle
  2951  1286                     l3286:
  2952                           
  2953                           ;main_slave_p1.c: 146:     if (mov != last_mov){
  2954  1286  1683               	bsf	3,5	;RP0=1, select bank3
  2955  1287  1703               	bsf	3,6	;RP1=1, select bank3
  2956  1288  0835               	movf	(_last_mov+1)^(0+384),w
  2957  1289  0615               	xorwf	(servo@mov+1)^(0+384),w
  2958  128A  1D03               	skipz
  2959  128B  2A8E               	goto	u4005
  2960  128C  0834               	movf	_last_mov^(0+384),w
  2961  128D  0614               	xorwf	servo@mov^(0+384),w
  2962  128E                     u4005:
  2963  128E  1903               	skipnz
  2964  128F  2A91               	goto	u4001
  2965  1290  2A92               	goto	u4000
  2966  1291                     u4001:
  2967  1291  2AA4               	goto	l133
  2968  1292                     u4000:
  2969  1292                     l3288:
  2970                           
  2971                           ;main_slave_p1.c: 147:         last_mov = mov;
  2972  1292  0815               	movf	(servo@mov+1)^(0+384),w
  2973  1293  00B5               	movwf	(_last_mov+1)^(0+384)
  2974  1294  0814               	movf	servo@mov^(0+384),w
  2975  1295  00B4               	movwf	_last_mov^(0+384)
  2976  1296                     l3290:
  2977                           
  2978                           ;main_slave_p1.c: 148:         USART_send(!mov + 128);
  2979  1296  0814               	movf	servo@mov^(0+384),w
  2980  1297  0415               	iorwf	(servo@mov+1)^(0+384),w
  2981  1298  1903               	btfsc	3,2
  2982  1299  2A9B               	goto	u4011
  2983  129A  2A9D               	goto	u4010
  2984  129B                     u4011:
  2985  129B  3001               	movlw	1
  2986  129C  2A9E               	goto	u4020
  2987  129D                     u4010:
  2988  129D  3000               	movlw	0
  2989  129E                     u4020:
  2990  129E  3E80               	addlw	128
  2991  129F  160A  118A  210D  160A  118A  	fcall	_USART_send
  2992  12A4                     l133:
  2993  12A4  0008               	return
  2994  12A5                     __end_of_servo:
  2995                           
  2996                           	psect	text9
  2997  1162                     __ptext9:	
  2998 ;; *************** function _pwm_duty_cycle *****************
  2999 ;; Defined at:
  3000 ;;		line 40 in file "pwm.c"
  3001 ;; Parameters:    Size  Location     Type
  3002 ;;  duty_cycle      2    0[BANK3 ] unsigned int 
  3003 ;; Auto vars:     Size  Location     Type
  3004 ;;		None
  3005 ;; Return value:  Size  Location     Type
  3006 ;;                  1    wreg      void 
  3007 ;; Registers used:
  3008 ;;		wreg, status,2, status,0
  3009 ;; Tracked objects:
  3010 ;;		On entry : 0/0
  3011 ;;		On exit  : 0/0
  3012 ;;		Unchanged: 0/0
  3013 ;; Data sizes:     COMMON   BANK0   BANK1   BANK3   BANK2
  3014 ;;      Params:         0       0       0       2       0
  3015 ;;      Locals:         0       0       0       0       0
  3016 ;;      Temps:          0       0       0       2       0
  3017 ;;      Totals:         0       0       0       4       0
  3018 ;;Total ram usage:        4 bytes
  3019 ;; Hardware stack levels used: 1
  3020 ;; Hardware stack levels required when called: 5
  3021 ;; This function calls:
  3022 ;;		Nothing
  3023 ;; This function is called by:
  3024 ;;		_servo
  3025 ;; This function uses a non-reentrant model
  3026 ;;
  3027                           
  3028  1162                     _pwm_duty_cycle:	
  3029                           ;psect for function _pwm_duty_cycle
  3030                           
  3031  1162                     l2706:	
  3032                           ;incstack = 0
  3033                           ; Regs used in _pwm_duty_cycle: [wreg+status,2+status,0]
  3034                           
  3035                           
  3036                           ;pwm.c: 41:     CCPR1L = (uint8_t)(duty_cycle>>2);
  3037  1162  1683               	bsf	3,5	;RP0=1, select bank3
  3038  1163  1703               	bsf	3,6	;RP1=1, select bank3
  3039  1164  0811               	movf	(pwm_duty_cycle@duty_cycle+1)^(0+384),w
  3040  1165  0093               	movwf	(??_pwm_duty_cycle^(0+384)+1)
  3041  1166  0810               	movf	pwm_duty_cycle@duty_cycle^(0+384),w
  3042  1167  0092               	movwf	??_pwm_duty_cycle^(0+384)
  3043  1168  1003               	clrc
  3044  1169  0C93               	rrf	(??_pwm_duty_cycle^(0+384)+1),f
  3045  116A  0C92               	rrf	??_pwm_duty_cycle^(0+384),f
  3046  116B  1003               	clrc
  3047  116C  0C93               	rrf	(??_pwm_duty_cycle^(0+384)+1),f
  3048  116D  0C92               	rrf	??_pwm_duty_cycle^(0+384),f
  3049  116E  0812               	movf	??_pwm_duty_cycle^(0+384),w
  3050  116F  1283               	bcf	3,5	;RP0=0, select bank0
  3051  1170  1303               	bcf	3,6	;RP1=0, select bank0
  3052  1171  0095               	movwf	21	;volatile
  3053                           
  3054                           ;pwm.c: 42:     CCP1CONbits.DC1B = duty_cycle & 0b11;
  3055  1172  1683               	bsf	3,5	;RP0=1, select bank3
  3056  1173  1703               	bsf	3,6	;RP1=1, select bank3
  3057  1174  0810               	movf	pwm_duty_cycle@duty_cycle^(0+384),w
  3058  1175  3903               	andlw	3
  3059  1176  0092               	movwf	??_pwm_duty_cycle^(0+384)
  3060  1177  0E92               	swapf	??_pwm_duty_cycle^(0+384),f
  3061  1178  1283               	bcf	3,5	;RP0=0, select bank0
  3062  1179  1303               	bcf	3,6	;RP1=0, select bank0
  3063  117A  0817               	movf	23,w	;volatile
  3064  117B  1683               	bsf	3,5	;RP0=1, select bank3
  3065  117C  1703               	bsf	3,6	;RP1=1, select bank3
  3066  117D  0612               	xorwf	??_pwm_duty_cycle^(0+384),w
  3067  117E  39CF               	andlw	-49
  3068  117F  0612               	xorwf	??_pwm_duty_cycle^(0+384),w
  3069  1180  1283               	bcf	3,5	;RP0=0, select bank0
  3070  1181  1303               	bcf	3,6	;RP1=0, select bank0
  3071  1182  0097               	movwf	23	;volatile
  3072  1183                     l276:
  3073  1183  0008               	return
  3074  1184                     __end_of_pwm_duty_cycle:
  3075                           
  3076                           	psect	text10
  3077  11CF                     __ptext10:	
  3078 ;; *************** function _motor_dc *****************
  3079 ;; Defined at:
  3080 ;;		line 124 in file "main_slave_p1.c"
  3081 ;; Parameters:    Size  Location     Type
  3082 ;;  temp            2   11[BANK3 ] int 
  3083 ;; Auto vars:     Size  Location     Type
  3084 ;;		None
  3085 ;; Return value:  Size  Location     Type
  3086 ;;                  1    wreg      void 
  3087 ;; Registers used:
  3088 ;;		wreg, status,2, status,0, btemp+1, pclath, cstack
  3089 ;; Tracked objects:
  3090 ;;		On entry : 0/0
  3091 ;;		On exit  : 0/0
  3092 ;;		Unchanged: 0/0
  3093 ;; Data sizes:     COMMON   BANK0   BANK1   BANK3   BANK2
  3094 ;;      Params:         0       0       0       2       0
  3095 ;;      Locals:         0       0       0       0       0
  3096 ;;      Temps:          0       0       0       0       0
  3097 ;;      Totals:         0       0       0       2       0
  3098 ;;Total ram usage:        2 bytes
  3099 ;; Hardware stack levels used: 1
  3100 ;; Hardware stack levels required when called: 6
  3101 ;; This function calls:
  3102 ;;		_USART_send
  3103 ;; This function is called by:
  3104 ;;		_main
  3105 ;; This function uses a non-reentrant model
  3106 ;;
  3107                           
  3108  11CF                     _motor_dc:	
  3109                           ;psect for function _motor_dc
  3110                           
  3111  11CF                     l3268:	
  3112                           ;incstack = 0
  3113                           ; Regs used in _motor_dc: [wreg+status,2+status,0+btemp+1+pclath+cstack]
  3114                           
  3115                           
  3116                           ;main_slave_p1.c: 125:     if(temp >= 22){
  3117  11CF  1683               	bsf	3,5	;RP0=1, select bank3
  3118  11D0  1703               	bsf	3,6	;RP1=1, select bank3
  3119  11D1  081C               	movf	(motor_dc@temp+1)^(0+384),w
  3120  11D2  3A80               	xorlw	128
  3121  11D3  00FF               	movwf	btemp+1
  3122  11D4  3080               	movlw	128
  3123  11D5  027F               	subwf	btemp+1,w
  3124  11D6  1D03               	skipz
  3125  11D7  29DA               	goto	u3975
  3126  11D8  3016               	movlw	22
  3127  11D9  021B               	subwf	motor_dc@temp^(0+384),w
  3128  11DA                     u3975:
  3129  11DA  1C03               	skipc
  3130  11DB  29DD               	goto	u3971
  3131  11DC  29DE               	goto	u3970
  3132  11DD                     u3971:
  3133  11DD  29E2               	goto	l124
  3134  11DE                     u3970:
  3135  11DE                     l3270:
  3136                           
  3137                           ;main_slave_p1.c: 126:         PORTBbits.RB0 = 1;
  3138  11DE  1283               	bcf	3,5	;RP0=0, select bank0
  3139  11DF  1303               	bcf	3,6	;RP1=0, select bank0
  3140  11E0  1406               	bsf	6,0	;volatile
  3141                           
  3142                           ;main_slave_p1.c: 127:     }
  3143  11E1  29E5               	goto	l3272
  3144  11E2                     l124:	
  3145                           ;main_slave_p1.c: 128:     else{
  3146                           
  3147                           
  3148                           ;main_slave_p1.c: 129:         PORTBbits.RB0 = 0;
  3149  11E2  1283               	bcf	3,5	;RP0=0, select bank0
  3150  11E3  1303               	bcf	3,6	;RP1=0, select bank0
  3151  11E4  1006               	bcf	6,0	;volatile
  3152  11E5                     l3272:
  3153                           
  3154                           ;main_slave_p1.c: 132:     if (temp != OLD_TEMP){
  3155  11E5  1683               	bsf	3,5	;RP0=1, select bank3
  3156  11E6  1703               	bsf	3,6	;RP1=1, select bank3
  3157  11E7  0833               	movf	(_OLD_TEMP+1)^(0+384),w
  3158  11E8  061C               	xorwf	(motor_dc@temp+1)^(0+384),w
  3159  11E9  1D03               	skipz
  3160  11EA  29ED               	goto	u3985
  3161  11EB  0832               	movf	_OLD_TEMP^(0+384),w
  3162  11EC  061B               	xorwf	motor_dc@temp^(0+384),w
  3163  11ED                     u3985:
  3164  11ED  1903               	skipnz
  3165  11EE  29F0               	goto	u3981
  3166  11EF  29F1               	goto	u3980
  3167  11F0                     u3981:
  3168  11F0  29FD               	goto	l127
  3169  11F1                     u3980:
  3170  11F1                     l3274:
  3171                           
  3172                           ;main_slave_p1.c: 133:         OLD_TEMP = temp;
  3173  11F1  081C               	movf	(motor_dc@temp+1)^(0+384),w
  3174  11F2  00B3               	movwf	(_OLD_TEMP+1)^(0+384)
  3175  11F3  081B               	movf	motor_dc@temp^(0+384),w
  3176  11F4  00B2               	movwf	_OLD_TEMP^(0+384)
  3177  11F5                     l3276:
  3178                           
  3179                           ;main_slave_p1.c: 134:         USART_send(160 + (temp & 31));
  3180  11F5  081B               	movf	motor_dc@temp^(0+384),w
  3181  11F6  391F               	andlw	31
  3182  11F7  3EA0               	addlw	160
  3183  11F8  160A  118A  210D  160A  118A  	fcall	_USART_send
  3184  11FD                     l127:
  3185  11FD  0008               	return
  3186  11FE                     __end_of_motor_dc:
  3187                           
  3188                           	psect	text11
  3189  08AC                     __ptext11:	
  3190 ;; *************** function _adc_ch_switch *****************
  3191 ;; Defined at:
  3192 ;;		line 71 in file "adc.c"
  3193 ;; Parameters:    Size  Location     Type
  3194 ;;  channels        1    wreg     unsigned char 
  3195 ;; Auto vars:     Size  Location     Type
  3196 ;;  channels        1    2[BANK3 ] unsigned char 
  3197 ;; Return value:  Size  Location     Type
  3198 ;;                  1    wreg      void 
  3199 ;; Registers used:
  3200 ;;		wreg, fsr0l, fsr0h, status,2, status,0
  3201 ;; Tracked objects:
  3202 ;;		On entry : 0/0
  3203 ;;		On exit  : 0/0
  3204 ;;		Unchanged: 0/0
  3205 ;; Data sizes:     COMMON   BANK0   BANK1   BANK3   BANK2
  3206 ;;      Params:         0       0       0       0       0
  3207 ;;      Locals:         0       0       0       1       0
  3208 ;;      Temps:          0       0       0       2       0
  3209 ;;      Totals:         0       0       0       3       0
  3210 ;;Total ram usage:        3 bytes
  3211 ;; Hardware stack levels used: 1
  3212 ;; Hardware stack levels required when called: 5
  3213 ;; This function calls:
  3214 ;;		Nothing
  3215 ;; This function is called by:
  3216 ;;		_main
  3217 ;; This function uses a non-reentrant model
  3218 ;;
  3219                           
  3220  08AC                     _adc_ch_switch:	
  3221                           ;psect for function _adc_ch_switch
  3222                           
  3223                           
  3224                           ;incstack = 0
  3225                           ; Regs used in _adc_ch_switch: [wreg-fsr0h+status,2+status,0]
  3226                           ;adc_ch_switch@channels stored from wreg
  3227  08AC  1683               	bsf	3,5	;RP0=1, select bank3
  3228  08AD  1703               	bsf	3,6	;RP1=1, select bank3
  3229  08AE  0092               	movwf	adc_ch_switch@channels^(0+384)
  3230  08AF                     l3212:
  3231                           
  3232                           ;adc.c: 72:     switch(channels){
  3233  08AF  294F               	goto	l3260
  3234  08B0                     l228:	
  3235                           ;adc.c: 73:         case 1:
  3236                           
  3237                           
  3238                           ;adc.c: 74:             if (ADCON0bits.GO == 0){
  3239  08B0  1283               	bcf	3,5	;RP0=0, select bank0
  3240  08B1  1303               	bcf	3,6	;RP1=0, select bank0
  3241  08B2  189F               	btfsc	31,1	;volatile
  3242  08B3  28B5               	goto	u3891
  3243  08B4  28B6               	goto	u3890
  3244  08B5                     u3891:
  3245  08B5  2962               	goto	l244
  3246  08B6                     u3890:
  3247  08B6                     l3214:
  3248                           
  3249                           ;adc.c: 75:                 ADCON0bits.CHS = 0;
  3250  08B6  30C3               	movlw	-61
  3251  08B7  059F               	andwf	31,f	;volatile
  3252  08B8                     l3216:
  3253                           
  3254                           ;adc.c: 76:                 _delay((unsigned long)((40)*(1000000/4000000.0)));
  3255  08B8  3002               	movlw	2
  3256  08B9  1683               	bsf	3,5	;RP0=1, select bank3
  3257  08BA  1703               	bsf	3,6	;RP1=1, select bank3
  3258  08BB  0090               	movwf	??_adc_ch_switch^(0+384)
  3259  08BC                     u4277:
  3260  08BC  0B90               	decfsz	??_adc_ch_switch^(0+384),f
  3261  08BD  28BC               	goto	u4277
  3262  08BE  0000               	nop
  3263  08BF                     l3218:
  3264                           
  3265                           ;adc.c: 77:                 ADCON0bits.GO = 1;
  3266  08BF  1283               	bcf	3,5	;RP0=0, select bank0
  3267  08C0  1303               	bcf	3,6	;RP1=0, select bank0
  3268  08C1  149F               	bsf	31,1	;volatile
  3269  08C2  2962               	goto	l244
  3270  08C3                     l231:	
  3271                           ;adc.c: 80:         case 2:
  3272                           
  3273                           
  3274                           ;adc.c: 81:             if (ADCON0bits.GO == 0){
  3275  08C3  1283               	bcf	3,5	;RP0=0, select bank0
  3276  08C4  1303               	bcf	3,6	;RP1=0, select bank0
  3277  08C5  189F               	btfsc	31,1	;volatile
  3278  08C6  28C8               	goto	u3901
  3279  08C7  28C9               	goto	u3900
  3280  08C8                     u3901:
  3281  08C8  2962               	goto	l244
  3282  08C9                     u3900:
  3283  08C9                     l3220:
  3284                           
  3285                           ;adc.c: 82:                 if (ADCON0bits.CHS == 0){
  3286  08C9  0C1F               	rrf	31,w	;volatile
  3287  08CA  1683               	bsf	3,5	;RP0=1, select bank3
  3288  08CB  1703               	bsf	3,6	;RP1=1, select bank3
  3289  08CC  0090               	movwf	??_adc_ch_switch^(0+384)
  3290  08CD  0C10               	rrf	??_adc_ch_switch^(0+384),w
  3291  08CE  390F               	andlw	15
  3292  08CF  3A00               	xorlw	0
  3293  08D0  1D03               	skipz
  3294  08D1  28D3               	goto	u3911
  3295  08D2  28D4               	goto	u3910
  3296  08D3                     u3911:
  3297  08D3  28E2               	goto	l3226
  3298  08D4                     u3910:
  3299  08D4                     l3222:
  3300                           
  3301                           ;adc.c: 83:                     ADCON0bits.CHS = 1;
  3302  08D4  1283               	bcf	3,5	;RP0=0, select bank0
  3303  08D5  1303               	bcf	3,6	;RP1=0, select bank0
  3304  08D6  081F               	movf	31,w	;volatile
  3305  08D7  39C3               	andlw	-61
  3306  08D8  3804               	iorlw	4
  3307  08D9  009F               	movwf	31	;volatile
  3308  08DA                     l3224:
  3309                           
  3310                           ;adc.c: 84:                     _delay((unsigned long)((40)*(1000000/4000000.0)));
  3311  08DA  3002               	movlw	2
  3312  08DB  1683               	bsf	3,5	;RP0=1, select bank3
  3313  08DC  1703               	bsf	3,6	;RP1=1, select bank3
  3314  08DD  0090               	movwf	??_adc_ch_switch^(0+384)
  3315  08DE                     u4287:
  3316  08DE  0B90               	decfsz	??_adc_ch_switch^(0+384),f
  3317  08DF  28DE               	goto	u4287
  3318  08E0  0000               	nop
  3319                           
  3320                           ;adc.c: 85:                 }
  3321  08E1  28F4               	goto	l3232
  3322  08E2                     l3226:
  3323  08E2  1283               	bcf	3,5	;RP0=0, select bank0
  3324  08E3  1303               	bcf	3,6	;RP1=0, select bank0
  3325  08E4  0C1F               	rrf	31,w	;volatile
  3326  08E5  1683               	bsf	3,5	;RP0=1, select bank3
  3327  08E6  1703               	bsf	3,6	;RP1=1, select bank3
  3328  08E7  0090               	movwf	??_adc_ch_switch^(0+384)
  3329  08E8  0C10               	rrf	??_adc_ch_switch^(0+384),w
  3330  08E9  390F               	andlw	15
  3331  08EA  3A01               	xorlw	1
  3332  08EB  1D03               	skipz
  3333  08EC  28EE               	goto	u3921
  3334  08ED  28EF               	goto	u3920
  3335  08EE                     u3921:
  3336  08EE  28F4               	goto	l3232
  3337  08EF                     u3920:
  3338  08EF                     l3228:
  3339                           
  3340                           ;adc.c: 87:                     ADCON0bits.CHS = 0;
  3341  08EF  30C3               	movlw	-61
  3342  08F0  1283               	bcf	3,5	;RP0=0, select bank0
  3343  08F1  1303               	bcf	3,6	;RP1=0, select bank0
  3344  08F2  059F               	andwf	31,f	;volatile
  3345  08F3  28DA               	goto	l3224
  3346  08F4                     l3232:
  3347                           
  3348                           ;adc.c: 90:                 _delay((unsigned long)((40)*(1000000/4000000.0)));
  3349  08F4  3002               	movlw	2
  3350  08F5  1683               	bsf	3,5	;RP0=1, select bank3
  3351  08F6  1703               	bsf	3,6	;RP1=1, select bank3
  3352  08F7  0090               	movwf	??_adc_ch_switch^(0+384)
  3353  08F8                     u4297:
  3354  08F8  0B90               	decfsz	??_adc_ch_switch^(0+384),f
  3355  08F9  28F8               	goto	u4297
  3356  08FA  0000               	nop
  3357  08FB                     l3234:
  3358                           
  3359                           ;adc.c: 91:                 ADCON0bits.GO = 1;
  3360  08FB  1283               	bcf	3,5	;RP0=0, select bank0
  3361  08FC  1303               	bcf	3,6	;RP1=0, select bank0
  3362  08FD  149F               	bsf	31,1	;volatile
  3363  08FE  2962               	goto	l244
  3364  08FF                     l236:	
  3365                           ;adc.c: 94:         case 3:
  3366                           
  3367                           
  3368                           ;adc.c: 95:             if (ADCON0bits.GO == 0){
  3369  08FF  1283               	bcf	3,5	;RP0=0, select bank0
  3370  0900  1303               	bcf	3,6	;RP1=0, select bank0
  3371  0901  189F               	btfsc	31,1	;volatile
  3372  0902  2904               	goto	u3931
  3373  0903  2905               	goto	u3930
  3374  0904                     u3931:
  3375  0904  2962               	goto	l244
  3376  0905                     u3930:
  3377  0905                     l3236:
  3378                           
  3379                           ;adc.c: 96:                 if (ADCON0bits.CHS == 0){
  3380  0905  0C1F               	rrf	31,w	;volatile
  3381  0906  1683               	bsf	3,5	;RP0=1, select bank3
  3382  0907  1703               	bsf	3,6	;RP1=1, select bank3
  3383  0908  0090               	movwf	??_adc_ch_switch^(0+384)
  3384  0909  0C10               	rrf	??_adc_ch_switch^(0+384),w
  3385  090A  390F               	andlw	15
  3386  090B  3A00               	xorlw	0
  3387  090C  1D03               	skipz
  3388  090D  290F               	goto	u3941
  3389  090E  2910               	goto	u3940
  3390  090F                     u3941:
  3391  090F  291E               	goto	l3242
  3392  0910                     u3940:
  3393  0910                     l3238:
  3394                           
  3395                           ;adc.c: 97:                     ADCON0bits.CHS = 1;
  3396  0910  1283               	bcf	3,5	;RP0=0, select bank0
  3397  0911  1303               	bcf	3,6	;RP1=0, select bank0
  3398  0912  081F               	movf	31,w	;volatile
  3399  0913  39C3               	andlw	-61
  3400  0914  3804               	iorlw	4
  3401  0915  009F               	movwf	31	;volatile
  3402  0916                     l3240:
  3403                           
  3404                           ;adc.c: 98:                     _delay((unsigned long)((40)*(1000000/4000000.0)));
  3405  0916  3002               	movlw	2
  3406  0917  1683               	bsf	3,5	;RP0=1, select bank3
  3407  0918  1703               	bsf	3,6	;RP1=1, select bank3
  3408  0919  0090               	movwf	??_adc_ch_switch^(0+384)
  3409  091A                     u4307:
  3410  091A  0B90               	decfsz	??_adc_ch_switch^(0+384),f
  3411  091B  291A               	goto	u4307
  3412  091C  0000               	nop
  3413                           
  3414                           ;adc.c: 99:                 }
  3415  091D  2944               	goto	l3254
  3416  091E                     l3242:
  3417  091E  1283               	bcf	3,5	;RP0=0, select bank0
  3418  091F  1303               	bcf	3,6	;RP1=0, select bank0
  3419  0920  0C1F               	rrf	31,w	;volatile
  3420  0921  1683               	bsf	3,5	;RP0=1, select bank3
  3421  0922  1703               	bsf	3,6	;RP1=1, select bank3
  3422  0923  0090               	movwf	??_adc_ch_switch^(0+384)
  3423  0924  0C10               	rrf	??_adc_ch_switch^(0+384),w
  3424  0925  390F               	andlw	15
  3425  0926  3A01               	xorlw	1
  3426  0927  1D03               	skipz
  3427  0928  292A               	goto	u3951
  3428  0929  292B               	goto	u3950
  3429  092A                     u3951:
  3430  092A  2932               	goto	l3248
  3431  092B                     u3950:
  3432  092B                     l3244:
  3433                           
  3434                           ;adc.c: 101:                     ADCON0bits.CHS = 2;
  3435  092B  1283               	bcf	3,5	;RP0=0, select bank0
  3436  092C  1303               	bcf	3,6	;RP1=0, select bank0
  3437  092D  081F               	movf	31,w	;volatile
  3438  092E  39C3               	andlw	-61
  3439  092F  3808               	iorlw	8
  3440  0930  009F               	movwf	31	;volatile
  3441  0931  2916               	goto	l3240
  3442  0932                     l3248:
  3443  0932  1283               	bcf	3,5	;RP0=0, select bank0
  3444  0933  1303               	bcf	3,6	;RP1=0, select bank0
  3445  0934  0C1F               	rrf	31,w	;volatile
  3446  0935  1683               	bsf	3,5	;RP0=1, select bank3
  3447  0936  1703               	bsf	3,6	;RP1=1, select bank3
  3448  0937  0090               	movwf	??_adc_ch_switch^(0+384)
  3449  0938  0C10               	rrf	??_adc_ch_switch^(0+384),w
  3450  0939  390F               	andlw	15
  3451  093A  3A02               	xorlw	2
  3452  093B  1D03               	skipz
  3453  093C  293E               	goto	u3961
  3454  093D  293F               	goto	u3960
  3455  093E                     u3961:
  3456  093E  2944               	goto	l3254
  3457  093F                     u3960:
  3458  093F                     l3250:
  3459                           
  3460                           ;adc.c: 105:                     ADCON0bits.CHS = 0;
  3461  093F  30C3               	movlw	-61
  3462  0940  1283               	bcf	3,5	;RP0=0, select bank0
  3463  0941  1303               	bcf	3,6	;RP1=0, select bank0
  3464  0942  059F               	andwf	31,f	;volatile
  3465  0943  2916               	goto	l3240
  3466  0944                     l3254:
  3467                           
  3468                           ;adc.c: 108:                 _delay((unsigned long)((40)*(1000000/4000000.0)));
  3469  0944  3002               	movlw	2
  3470  0945  1683               	bsf	3,5	;RP0=1, select bank3
  3471  0946  1703               	bsf	3,6	;RP1=1, select bank3
  3472  0947  0090               	movwf	??_adc_ch_switch^(0+384)
  3473  0948                     u4317:
  3474  0948  0B90               	decfsz	??_adc_ch_switch^(0+384),f
  3475  0949  2948               	goto	u4317
  3476  094A  0000               	nop
  3477  094B                     l3256:
  3478                           
  3479                           ;adc.c: 109:                 ADCON0bits.GO = 1;
  3480  094B  1283               	bcf	3,5	;RP0=0, select bank0
  3481  094C  1303               	bcf	3,6	;RP1=0, select bank0
  3482  094D  149F               	bsf	31,1	;volatile
  3483  094E  2962               	goto	l244
  3484  094F                     l3260:
  3485  094F  0812               	movf	adc_ch_switch@channels^(0+384),w
  3486  0950  0090               	movwf	??_adc_ch_switch^(0+384)
  3487  0951  0191               	clrf	(??_adc_ch_switch^(0+384)+1)
  3488                           
  3489                           ; Switch on 2 bytes has been partitioned into a top level switch of size 1, and 1 sub-sw
      +                          itches
  3490                           ; Switch size 1, requested type "simple"
  3491                           ; Number of cases is 1, Range of values is 0 to 0
  3492                           ; switch strategies available:
  3493                           ; Name         Instructions Cycles
  3494                           ; simple_byte            4     3 (average)
  3495                           ; direct_byte           11     8 (fixed)
  3496                           ; jumptable            260     6 (fixed)
  3497                           ;	Chosen strategy is simple_byte
  3498  0952  0811               	movf	(??_adc_ch_switch+1)^(0+384),w
  3499  0953  3A00               	xorlw	0	; case 0
  3500  0954  1903               	skipnz
  3501  0955  2957               	goto	l3618
  3502  0956  2962               	goto	l244
  3503  0957                     l3618:
  3504                           
  3505                           ; Switch size 1, requested type "simple"
  3506                           ; Number of cases is 3, Range of values is 1 to 3
  3507                           ; switch strategies available:
  3508                           ; Name         Instructions Cycles
  3509                           ; simple_byte           10     6 (average)
  3510                           ; direct_byte           20    11 (fixed)
  3511                           ; jumptable            263     9 (fixed)
  3512                           ;	Chosen strategy is simple_byte
  3513  0957  0810               	movf	??_adc_ch_switch^(0+384),w
  3514  0958  3A01               	xorlw	1	; case 1
  3515  0959  1903               	skipnz
  3516  095A  28B0               	goto	l228
  3517  095B  3A03               	xorlw	3	; case 2
  3518  095C  1903               	skipnz
  3519  095D  28C3               	goto	l231
  3520  095E  3A01               	xorlw	1	; case 3
  3521  095F  1903               	skipnz
  3522  0960  28FF               	goto	l236
  3523  0961  2962               	goto	l244
  3524  0962                     l244:
  3525  0962  0008               	return
  3526  0963                     __end_of_adc_ch_switch:
  3527                           
  3528                           	psect	text12
  3529  153C                     __ptext12:	
  3530 ;; *************** function ___fltol *****************
  3531 ;; Defined at:
  3532 ;;		line 43 in file "C:\Program Files\Microchip\xc8\v2.35\pic\sources\c90\common\fltol.c"
  3533 ;; Parameters:    Size  Location     Type
  3534 ;;  f1              4    0[BANK3 ] void 
  3535 ;; Auto vars:     Size  Location     Type
  3536 ;;  exp1            1   10[BANK3 ] unsigned char 
  3537 ;;  sign1           1    9[BANK3 ] unsigned char 
  3538 ;; Return value:  Size  Location     Type
  3539 ;;                  4    0[BANK3 ] long 
  3540 ;; Registers used:
  3541 ;;		wreg, status,2, status,0
  3542 ;; Tracked objects:
  3543 ;;		On entry : 0/0
  3544 ;;		On exit  : 0/0
  3545 ;;		Unchanged: 0/0
  3546 ;; Data sizes:     COMMON   BANK0   BANK1   BANK3   BANK2
  3547 ;;      Params:         0       0       0       4       0
  3548 ;;      Locals:         0       0       0       2       0
  3549 ;;      Temps:          0       0       0       5       0
  3550 ;;      Totals:         0       0       0      11       0
  3551 ;;Total ram usage:       11 bytes
  3552 ;; Hardware stack levels used: 1
  3553 ;; Hardware stack levels required when called: 5
  3554 ;; This function calls:
  3555 ;;		Nothing
  3556 ;; This function is called by:
  3557 ;;		_main
  3558 ;; This function uses a non-reentrant model
  3559 ;;
  3560                           
  3561  153C                     ___fltol:	
  3562                           ;psect for function ___fltol
  3563                           
  3564  153C                     l3312:	
  3565                           ;incstack = 0
  3566                           ; Regs used in ___fltol: [wreg+status,2+status,0]
  3567                           
  3568  153C  1003               	clrc
  3569  153D  1683               	bsf	3,5	;RP0=1, select bank3
  3570  153E  1703               	bsf	3,6	;RP1=1, select bank3
  3571  153F  0D12               	rlf	(___fltol@f1+2)^(0+384),w
  3572  1540  0D13               	rlf	(___fltol@f1+3)^(0+384),w
  3573  1541  0094               	movwf	??___fltol^(0+384)
  3574  1542  0814               	movf	??___fltol^(0+384),w
  3575  1543  009A               	movwf	___fltol@exp1^(0+384)
  3576  1544  081A               	movf	___fltol@exp1^(0+384),w
  3577  1545  1D03               	btfss	3,2
  3578  1546  2D48               	goto	u4051
  3579  1547  2D49               	goto	u4050
  3580  1548                     u4051:
  3581  1548  2D52               	goto	l3318
  3582  1549                     u4050:
  3583  1549                     l3314:
  3584  1549  3000               	movlw	0
  3585  154A  0093               	movwf	(?___fltol+3)^(0+384)
  3586  154B  3000               	movlw	0
  3587  154C  0092               	movwf	(?___fltol+2)^(0+384)
  3588  154D  3000               	movlw	0
  3589  154E  0091               	movwf	(?___fltol+1)^(0+384)
  3590  154F  3000               	movlw	0
  3591  1550  0090               	movwf	?___fltol^(0+384)
  3592  1551  2DB7               	goto	l588
  3593  1552                     l3318:
  3594  1552  0810               	movf	___fltol@f1^(0+384),w
  3595  1553  0094               	movwf	??___fltol^(0+384)
  3596  1554  0811               	movf	(___fltol@f1+1)^(0+384),w
  3597  1555  0095               	movwf	(??___fltol^(0+384)+1)
  3598  1556  0812               	movf	(___fltol@f1+2)^(0+384),w
  3599  1557  0096               	movwf	(??___fltol^(0+384)+2)
  3600  1558  0813               	movf	(___fltol@f1+3)^(0+384),w
  3601  1559  0097               	movwf	(??___fltol^(0+384)+3)
  3602  155A  301F               	movlw	31
  3603  155B                     u4065:
  3604  155B  1003               	clrc
  3605  155C  0C97               	rrf	(??___fltol^(0+384)+3),f
  3606  155D  0C96               	rrf	(??___fltol^(0+384)+2),f
  3607  155E  0C95               	rrf	(??___fltol^(0+384)+1),f
  3608  155F  0C94               	rrf	??___fltol^(0+384),f
  3609  1560                     u4060:
  3610  1560  3EFF               	addlw	-1
  3611  1561  1D03               	skipz
  3612  1562  2D5B               	goto	u4065
  3613  1563  0814               	movf	??___fltol^(0+384),w
  3614  1564  0098               	movwf	(??___fltol+4)^(0+384)
  3615  1565  0818               	movf	(??___fltol+4)^(0+384),w
  3616  1566  0099               	movwf	___fltol@sign1^(0+384)
  3617  1567                     l3320:
  3618  1567  1792               	bsf	(___fltol@f1^(0+384)+2),7
  3619  1568                     l3322:
  3620  1568  30FF               	movlw	255
  3621  1569  0590               	andwf	___fltol@f1^(0+384),f
  3622  156A  30FF               	movlw	255
  3623  156B  0591               	andwf	(___fltol@f1+1)^(0+384),f
  3624  156C  30FF               	movlw	255
  3625  156D  0592               	andwf	(___fltol@f1+2)^(0+384),f
  3626  156E  3000               	movlw	0
  3627  156F  0593               	andwf	(___fltol@f1+3)^(0+384),f
  3628  1570                     l3324:
  3629  1570  3096               	movlw	150
  3630  1571  029A               	subwf	___fltol@exp1^(0+384),f
  3631  1572                     l3326:
  3632  1572  1F9A               	btfss	___fltol@exp1^(0+384),7
  3633  1573  2D75               	goto	u4071
  3634  1574  2D76               	goto	u4070
  3635  1575                     u4071:
  3636  1575  2D90               	goto	l3336
  3637  1576                     u4070:
  3638  1576                     l3328:
  3639  1576  081A               	movf	___fltol@exp1^(0+384),w
  3640  1577  3A80               	xorlw	128
  3641  1578  3E97               	addlw	151
  3642  1579  1803               	skipnc
  3643  157A  2D7C               	goto	u4081
  3644  157B  2D7D               	goto	u4080
  3645  157C                     u4081:
  3646  157C  2D7E               	goto	l3334
  3647  157D                     u4080:
  3648  157D  2D49               	goto	l3314
  3649  157E                     l3334:
  3650  157E  3001               	movlw	1
  3651  157F                     u4095:
  3652  157F  1003               	clrc
  3653  1580  0C93               	rrf	(___fltol@f1+3)^(0+384),f
  3654  1581  0C92               	rrf	(___fltol@f1+2)^(0+384),f
  3655  1582  0C91               	rrf	(___fltol@f1+1)^(0+384),f
  3656  1583  0C90               	rrf	___fltol@f1^(0+384),f
  3657  1584  3EFF               	addlw	-1
  3658  1585  1D03               	skipz
  3659  1586  2D7F               	goto	u4095
  3660  1587  3001               	movlw	1
  3661  1588  0094               	movwf	??___fltol^(0+384)
  3662  1589  0814               	movf	??___fltol^(0+384),w
  3663  158A  079A               	addwf	___fltol@exp1^(0+384),f
  3664  158B  1D03               	btfss	3,2
  3665  158C  2D8E               	goto	u4101
  3666  158D  2D8F               	goto	u4100
  3667  158E                     u4101:
  3668  158E  2D7E               	goto	l3334
  3669  158F                     u4100:
  3670  158F  2DA7               	goto	l3344
  3671  1590                     l3336:
  3672  1590  3020               	movlw	32
  3673  1591  021A               	subwf	___fltol@exp1^(0+384),w
  3674  1592  1C03               	skipc
  3675  1593  2D95               	goto	u4111
  3676  1594  2D96               	goto	u4110
  3677  1595                     u4111:
  3678  1595  2DA2               	goto	l595
  3679  1596                     u4110:
  3680  1596  2D49               	goto	l3314
  3681  1597                     l3342:
  3682  1597  3001               	movlw	1
  3683  1598  0094               	movwf	??___fltol^(0+384)
  3684  1599                     u4125:
  3685  1599  1003               	clrc
  3686  159A  0D90               	rlf	___fltol@f1^(0+384),f
  3687  159B  0D91               	rlf	(___fltol@f1+1)^(0+384),f
  3688  159C  0D92               	rlf	(___fltol@f1+2)^(0+384),f
  3689  159D  0D93               	rlf	(___fltol@f1+3)^(0+384),f
  3690  159E  0B94               	decfsz	??___fltol^(0+384),f
  3691  159F  2D99               	goto	u4125
  3692  15A0  3001               	movlw	1
  3693  15A1  029A               	subwf	___fltol@exp1^(0+384),f
  3694  15A2                     l595:
  3695  15A2  081A               	movf	___fltol@exp1^(0+384),w
  3696  15A3  1D03               	btfss	3,2
  3697  15A4  2DA6               	goto	u4131
  3698  15A5  2DA7               	goto	u4130
  3699  15A6                     u4131:
  3700  15A6  2D97               	goto	l3342
  3701  15A7                     u4130:
  3702  15A7                     l3344:
  3703  15A7  0819               	movf	___fltol@sign1^(0+384),w
  3704  15A8  1903               	btfsc	3,2
  3705  15A9  2DAB               	goto	u4141
  3706  15AA  2DAC               	goto	u4140
  3707  15AB                     u4141:
  3708  15AB  2DB7               	goto	l598
  3709  15AC                     u4140:
  3710  15AC                     l3346:
  3711  15AC  0990               	comf	___fltol@f1^(0+384),f
  3712  15AD  0991               	comf	(___fltol@f1+1)^(0+384),f
  3713  15AE  0992               	comf	(___fltol@f1+2)^(0+384),f
  3714  15AF  0993               	comf	(___fltol@f1+3)^(0+384),f
  3715  15B0  0A90               	incf	___fltol@f1^(0+384),f
  3716  15B1  1903               	skipnz
  3717  15B2  0A91               	incf	(___fltol@f1+1)^(0+384),f
  3718  15B3  1903               	skipnz
  3719  15B4  0A92               	incf	(___fltol@f1+2)^(0+384),f
  3720  15B5  1903               	skipnz
  3721  15B6  0A93               	incf	(___fltol@f1+3)^(0+384),f
  3722  15B7                     l598:
  3723  15B7                     l588:
  3724  15B7  0008               	return
  3725  15B8                     __end_of___fltol:
  3726                           
  3727                           	psect	text13
  3728  16CA                     __ptext13:	
  3729 ;; *************** function _RTC_read *****************
  3730 ;; Defined at:
  3731 ;;		line 152 in file "main_slave_p1.c"
  3732 ;; Parameters:    Size  Location     Type
  3733 ;;		None
  3734 ;; Auto vars:     Size  Location     Type
  3735 ;;		None
  3736 ;; Return value:  Size  Location     Type
  3737 ;;                  1    wreg      void 
  3738 ;; Registers used:
  3739 ;;		wreg, status,2, status,0, pclath, cstack
  3740 ;; Tracked objects:
  3741 ;;		On entry : 0/0
  3742 ;;		On exit  : 0/0
  3743 ;;		Unchanged: 0/0
  3744 ;; Data sizes:     COMMON   BANK0   BANK1   BANK3   BANK2
  3745 ;;      Params:         0       0       0       0       0
  3746 ;;      Locals:         0       0       0       0       0
  3747 ;;      Temps:          0       0       0       2       0
  3748 ;;      Totals:         0       0       0       2       0
  3749 ;;Total ram usage:        2 bytes
  3750 ;; Hardware stack levels used: 1
  3751 ;; Hardware stack levels required when called: 7
  3752 ;; This function calls:
  3753 ;;		_I2C_Master_Read
  3754 ;;		_I2C_Master_RepeatedStart
  3755 ;;		_I2C_Master_Start
  3756 ;;		_I2C_Master_Stop
  3757 ;;		_I2C_Master_Write
  3758 ;;		_USART_send
  3759 ;;		_bcd_dec
  3760 ;; This function is called by:
  3761 ;;		_main
  3762 ;; This function uses a non-reentrant model
  3763 ;;
  3764                           
  3765  16CA                     _RTC_read:	
  3766                           ;psect for function _RTC_read
  3767                           
  3768  16CA                     l3294:	
  3769                           ;incstack = 0
  3770                           ; Regs used in _RTC_read: [wreg+status,2+status,0+pclath+cstack]
  3771                           
  3772                           
  3773                           ;main_slave_p1.c: 153:     I2C_Master_Start();
  3774  16CA  160A  118A  20CC  160A  118A  	fcall	_I2C_Master_Start
  3775                           
  3776                           ;main_slave_p1.c: 154:     I2C_Master_Write(0xD0);
  3777  16CF  30D0               	movlw	208
  3778  16D0  1683               	bsf	3,5	;RP0=1, select bank3
  3779  16D1  1703               	bsf	3,6	;RP1=1, select bank3
  3780  16D2  0090               	movwf	I2C_Master_Write@d^(0+384)
  3781  16D3  3000               	movlw	0
  3782  16D4  0091               	movwf	(I2C_Master_Write@d^(0+384)+1)
  3783  16D5  160A  118A  20E8  160A  118A  	fcall	_I2C_Master_Write
  3784                           
  3785                           ;main_slave_p1.c: 155:     I2C_Master_Write(0);
  3786  16DA  3000               	movlw	0
  3787  16DB  1683               	bsf	3,5	;RP0=1, select bank3
  3788  16DC  1703               	bsf	3,6	;RP1=1, select bank3
  3789  16DD  0090               	movwf	I2C_Master_Write@d^(0+384)
  3790  16DE  0091               	movwf	(I2C_Master_Write@d+1)^(0+384)
  3791  16DF  160A  118A  20E8  160A  118A  	fcall	_I2C_Master_Write
  3792                           
  3793                           ;main_slave_p1.c: 156:     I2C_Master_RepeatedStart();
  3794  16E4  160A  118A  20C3  160A  118A  	fcall	_I2C_Master_RepeatedStart
  3795                           
  3796                           ;main_slave_p1.c: 157:     I2C_Master_Write(0xD1);
  3797  16E9  30D1               	movlw	209
  3798  16EA  1683               	bsf	3,5	;RP0=1, select bank3
  3799  16EB  1703               	bsf	3,6	;RP1=1, select bank3
  3800  16EC  0090               	movwf	I2C_Master_Write@d^(0+384)
  3801  16ED  3000               	movlw	0
  3802  16EE  0091               	movwf	(I2C_Master_Write@d^(0+384)+1)
  3803  16EF  160A  118A  20E8  160A  118A  	fcall	_I2C_Master_Write
  3804                           
  3805                           ;main_slave_p1.c: 158:     I2C_Master_Read(1);
  3806  16F4  3001               	movlw	1
  3807  16F5  1683               	bsf	3,5	;RP0=1, select bank3
  3808  16F6  1703               	bsf	3,6	;RP1=1, select bank3
  3809  16F7  0090               	movwf	I2C_Master_Read@a^(0+384)
  3810  16F8  3000               	movlw	0
  3811  16F9  0091               	movwf	(I2C_Master_Read@a^(0+384)+1)
  3812  16FA  160A  118A  21FE  160A  118A  	fcall	_I2C_Master_Read
  3813                           
  3814                           ;main_slave_p1.c: 159:     min = bcd_dec(I2C_Master_Read(1));
  3815  16FF  3001               	movlw	1
  3816  1700  1683               	bsf	3,5	;RP0=1, select bank3
  3817  1701  1703               	bsf	3,6	;RP1=1, select bank3
  3818  1702  0090               	movwf	I2C_Master_Read@a^(0+384)
  3819  1703  3000               	movlw	0
  3820  1704  0091               	movwf	(I2C_Master_Read@a^(0+384)+1)
  3821  1705  160A  118A  21FE  160A  118A  	fcall	_I2C_Master_Read
  3822  170A  1683               	bsf	3,5	;RP0=1, select bank3
  3823  170B  1703               	bsf	3,6	;RP1=1, select bank3
  3824  170C  0810               	movf	?_I2C_Master_Read^(0+384),w
  3825  170D  160A  118A  2146  160A  118A  	fcall	_bcd_dec
  3826  1712  1683               	bsf	3,5	;RP0=1, select bank3
  3827  1713  1703               	bsf	3,6	;RP1=1, select bank3
  3828  1714  0098               	movwf	??_RTC_read^(0+384)
  3829  1715  0818               	movf	??_RTC_read^(0+384),w
  3830  1716  00BF               	movwf	_min^(0+384)
  3831                           
  3832                           ;main_slave_p1.c: 160:     hrs = bcd_dec(I2C_Master_Read(0));
  3833  1717  3000               	movlw	0
  3834  1718  0090               	movwf	I2C_Master_Read@a^(0+384)
  3835  1719  0091               	movwf	(I2C_Master_Read@a+1)^(0+384)
  3836  171A  160A  118A  21FE  160A  118A  	fcall	_I2C_Master_Read
  3837  171F  1683               	bsf	3,5	;RP0=1, select bank3
  3838  1720  1703               	bsf	3,6	;RP1=1, select bank3
  3839  1721  0810               	movf	?_I2C_Master_Read^(0+384),w
  3840  1722  160A  118A  2146  160A  118A  	fcall	_bcd_dec
  3841  1727  1683               	bsf	3,5	;RP0=1, select bank3
  3842  1728  1703               	bsf	3,6	;RP1=1, select bank3
  3843  1729  0098               	movwf	??_RTC_read^(0+384)
  3844  172A  0818               	movf	??_RTC_read^(0+384),w
  3845  172B  00BE               	movwf	_hrs^(0+384)
  3846                           
  3847                           ;main_slave_p1.c: 161:     I2C_Master_Stop();
  3848  172C  160A  118A  20D5  160A  118A  	fcall	_I2C_Master_Stop
  3849  1731                     l3296:
  3850                           
  3851                           ;main_slave_p1.c: 162:     _delay((unsigned long)((50)*(1000000/4000.0)));
  3852  1731  3011               	movlw	17
  3853  1732  1683               	bsf	3,5	;RP0=1, select bank3
  3854  1733  1703               	bsf	3,6	;RP1=1, select bank3
  3855  1734  0099               	movwf	(??_RTC_read^(0+384)+1)
  3856  1735  3039               	movlw	57
  3857  1736  0098               	movwf	??_RTC_read^(0+384)
  3858  1737                     u4327:
  3859  1737  0B98               	decfsz	??_RTC_read^(0+384),f
  3860  1738  2F37               	goto	u4327
  3861  1739  0B99               	decfsz	(??_RTC_read^(0+384)+1),f
  3862  173A  2F37               	goto	u4327
  3863  173B  2F3C               	nop2
  3864  173C                     l3298:
  3865                           
  3866                           ;main_slave_p1.c: 164:     if (min != last_min){
  3867  173C  1683               	bsf	3,5	;RP0=1, select bank3
  3868  173D  1703               	bsf	3,6	;RP1=1, select bank3
  3869  173E  083F               	movf	_min^(0+384),w
  3870  173F  0637               	xorwf	_last_min^(0+384),w
  3871  1740  1903               	skipnz
  3872  1741  2F43               	goto	u4031
  3873  1742  2F44               	goto	u4030
  3874  1743                     u4031:
  3875  1743  2F4E               	goto	l3304
  3876  1744                     u4030:
  3877  1744                     l3300:
  3878                           
  3879                           ;main_slave_p1.c: 165:         last_min = min;
  3880  1744  083F               	movf	_min^(0+384),w
  3881  1745  0098               	movwf	??_RTC_read^(0+384)
  3882  1746  0818               	movf	??_RTC_read^(0+384),w
  3883  1747  00B7               	movwf	_last_min^(0+384)
  3884  1748                     l3302:
  3885                           
  3886                           ;main_slave_p1.c: 166:         USART_send(min);
  3887  1748  083F               	movf	_min^(0+384),w
  3888  1749  160A  118A  210D  160A  118A  	fcall	_USART_send
  3889  174E                     l3304:
  3890                           
  3891                           ;main_slave_p1.c: 168:     if (hrs != last_hrs){
  3892  174E  1683               	bsf	3,5	;RP0=1, select bank3
  3893  174F  1703               	bsf	3,6	;RP1=1, select bank3
  3894  1750  083E               	movf	_hrs^(0+384),w
  3895  1751  0636               	xorwf	_last_hrs^(0+384),w
  3896  1752  1903               	skipnz
  3897  1753  2F55               	goto	u4041
  3898  1754  2F56               	goto	u4040
  3899  1755                     u4041:
  3900  1755  2F61               	goto	l138
  3901  1756                     u4040:
  3902  1756                     l3306:
  3903                           
  3904                           ;main_slave_p1.c: 169:         last_hrs = hrs;
  3905  1756  083E               	movf	_hrs^(0+384),w
  3906  1757  0098               	movwf	??_RTC_read^(0+384)
  3907  1758  0818               	movf	??_RTC_read^(0+384),w
  3908  1759  00B6               	movwf	_last_hrs^(0+384)
  3909  175A                     l3308:
  3910                           
  3911                           ;main_slave_p1.c: 170:         USART_send(hrs + 224);
  3912  175A  083E               	movf	_hrs^(0+384),w
  3913  175B  3EE0               	addlw	224
  3914  175C  160A  118A  210D  160A  118A  	fcall	_USART_send
  3915  1761                     l138:
  3916  1761  0008               	return
  3917  1762                     __end_of_RTC_read:
  3918                           
  3919                           	psect	text14
  3920  1146                     __ptext14:	
  3921 ;; *************** function _bcd_dec *****************
  3922 ;; Defined at:
  3923 ;;		line 174 in file "main_slave_p1.c"
  3924 ;; Parameters:    Size  Location     Type
  3925 ;;  no              1    wreg     unsigned char 
  3926 ;; Auto vars:     Size  Location     Type
  3927 ;;  no              1    7[BANK3 ] unsigned char 
  3928 ;; Return value:  Size  Location     Type
  3929 ;;                  1    wreg      unsigned char 
  3930 ;; Registers used:
  3931 ;;		wreg, status,2, status,0, pclath, cstack
  3932 ;; Tracked objects:
  3933 ;;		On entry : 0/0
  3934 ;;		On exit  : 0/0
  3935 ;;		Unchanged: 0/0
  3936 ;; Data sizes:     COMMON   BANK0   BANK1   BANK3   BANK2
  3937 ;;      Params:         0       0       0       0       0
  3938 ;;      Locals:         0       0       0       1       0
  3939 ;;      Temps:          0       0       0       3       0
  3940 ;;      Totals:         0       0       0       4       0
  3941 ;;Total ram usage:        4 bytes
  3942 ;; Hardware stack levels used: 1
  3943 ;; Hardware stack levels required when called: 6
  3944 ;; This function calls:
  3945 ;;		___bmul
  3946 ;; This function is called by:
  3947 ;;		_RTC_read
  3948 ;; This function uses a non-reentrant model
  3949 ;;
  3950                           
  3951  1146                     _bcd_dec:	
  3952                           ;psect for function _bcd_dec
  3953                           
  3954                           
  3955                           ;incstack = 0
  3956                           ; Regs used in _bcd_dec: [wreg+status,2+status,0+pclath+cstack]
  3957                           ;bcd_dec@no stored from wreg
  3958  1146  1683               	bsf	3,5	;RP0=1, select bank3
  3959  1147  1703               	bsf	3,6	;RP1=1, select bank3
  3960  1148  0097               	movwf	bcd_dec@no^(0+384)
  3961  1149                     l2736:
  3962                           
  3963                           ;main_slave_p1.c: 175:     return ((no >> 4) * 10 + (no & 0x0F));
  3964  1149  300F               	movlw	15
  3965  114A  0517               	andwf	bcd_dec@no^(0+384),w
  3966  114B  0094               	movwf	??_bcd_dec^(0+384)
  3967  114C  300A               	movlw	10
  3968  114D  0095               	movwf	(??_bcd_dec+1)^(0+384)
  3969  114E  0815               	movf	(??_bcd_dec+1)^(0+384),w
  3970  114F  0090               	movwf	___bmul@multiplicand^(0+384)
  3971  1150  0817               	movf	bcd_dec@no^(0+384),w
  3972  1151  0096               	movwf	(??_bcd_dec+2)^(0+384)
  3973  1152  3004               	movlw	4
  3974  1153                     u3165:
  3975  1153  1003               	clrc
  3976  1154  0C96               	rrf	(??_bcd_dec+2)^(0+384),f
  3977  1155  3EFF               	addlw	-1
  3978  1156  1D03               	skipz
  3979  1157  2953               	goto	u3165
  3980  1158  0816               	movf	(??_bcd_dec+2)^(0+384),w
  3981  1159  160A  118A  212F  160A  118A  	fcall	___bmul
  3982  115E  1683               	bsf	3,5	;RP0=1, select bank3
  3983  115F  1703               	bsf	3,6	;RP1=1, select bank3
  3984  1160  0714               	addwf	??_bcd_dec^(0+384),w
  3985  1161                     l141:
  3986  1161  0008               	return
  3987  1162                     __end_of_bcd_dec:
  3988                           
  3989                           	psect	text15
  3990  112F                     __ptext15:	
  3991 ;; *************** function ___bmul *****************
  3992 ;; Defined at:
  3993 ;;		line 4 in file "C:\Program Files\Microchip\xc8\v2.35\pic\sources\c90\common\Umul8.c"
  3994 ;; Parameters:    Size  Location     Type
  3995 ;;  multiplier      1    wreg     unsigned char 
  3996 ;;  multiplicand    1    0[BANK3 ] unsigned char 
  3997 ;; Auto vars:     Size  Location     Type
  3998 ;;  multiplier      1    3[BANK3 ] unsigned char 
  3999 ;;  product         1    2[BANK3 ] unsigned char 
  4000 ;; Return value:  Size  Location     Type
  4001 ;;                  1    wreg      unsigned char 
  4002 ;; Registers used:
  4003 ;;		wreg, status,2, status,0
  4004 ;; Tracked objects:
  4005 ;;		On entry : 0/0
  4006 ;;		On exit  : 0/0
  4007 ;;		Unchanged: 0/0
  4008 ;; Data sizes:     COMMON   BANK0   BANK1   BANK3   BANK2
  4009 ;;      Params:         0       0       0       1       0
  4010 ;;      Locals:         0       0       0       2       0
  4011 ;;      Temps:          0       0       0       1       0
  4012 ;;      Totals:         0       0       0       4       0
  4013 ;;Total ram usage:        4 bytes
  4014 ;; Hardware stack levels used: 1
  4015 ;; Hardware stack levels required when called: 5
  4016 ;; This function calls:
  4017 ;;		Nothing
  4018 ;; This function is called by:
  4019 ;;		_bcd_dec
  4020 ;; This function uses a non-reentrant model
  4021 ;;
  4022                           
  4023  112F                     ___bmul:	
  4024                           ;psect for function ___bmul
  4025                           
  4026                           
  4027                           ;incstack = 0
  4028                           ; Regs used in ___bmul: [wreg+status,2+status,0]
  4029                           ;___bmul@multiplier stored from wreg
  4030  112F  1683               	bsf	3,5	;RP0=1, select bank3
  4031  1130  1703               	bsf	3,6	;RP1=1, select bank3
  4032  1131  0093               	movwf	___bmul@multiplier^(0+384)
  4033  1132                     l2318:
  4034  1132  0192               	clrf	___bmul@product^(0+384)
  4035  1133                     l2320:
  4036  1133  1C13               	btfss	___bmul@multiplier^(0+384),0
  4037  1134  2936               	goto	u2191
  4038  1135  2937               	goto	u2190
  4039  1136                     u2191:
  4040  1136  293B               	goto	l2324
  4041  1137                     u2190:
  4042  1137                     l2322:
  4043  1137  0810               	movf	___bmul@multiplicand^(0+384),w
  4044  1138  0091               	movwf	??___bmul^(0+384)
  4045  1139  0811               	movf	??___bmul^(0+384),w
  4046  113A  0792               	addwf	___bmul@product^(0+384),f
  4047  113B                     l2324:
  4048  113B  1003               	clrc
  4049  113C  0D90               	rlf	___bmul@multiplicand^(0+384),f
  4050  113D                     l2326:
  4051  113D  1003               	clrc
  4052  113E  0C93               	rrf	___bmul@multiplier^(0+384),f
  4053  113F  0813               	movf	___bmul@multiplier^(0+384),w
  4054  1140  1D03               	btfss	3,2
  4055  1141  2943               	goto	u2201
  4056  1142  2944               	goto	u2200
  4057  1143                     u2201:
  4058  1143  2933               	goto	l2320
  4059  1144                     u2200:
  4060  1144                     l2328:
  4061  1144  0812               	movf	___bmul@product^(0+384),w
  4062  1145                     l428:
  4063  1145  0008               	return
  4064  1146                     __end_of___bmul:
  4065                           
  4066                           	psect	text16
  4067  110D                     __ptext16:	
  4068 ;; *************** function _USART_send *****************
  4069 ;; Defined at:
  4070 ;;		line 27 in file "USART.c"
  4071 ;; Parameters:    Size  Location     Type
  4072 ;;  data            1    wreg     const unsigned char 
  4073 ;; Auto vars:     Size  Location     Type
  4074 ;;  data            1    0[BANK3 ] const unsigned char 
  4075 ;; Return value:  Size  Location     Type
  4076 ;;                  1    wreg      void 
  4077 ;; Registers used:
  4078 ;;		wreg
  4079 ;; Tracked objects:
  4080 ;;		On entry : 0/0
  4081 ;;		On exit  : 0/0
  4082 ;;		Unchanged: 0/0
  4083 ;; Data sizes:     COMMON   BANK0   BANK1   BANK3   BANK2
  4084 ;;      Params:         0       0       0       0       0
  4085 ;;      Locals:         0       0       0       1       0
  4086 ;;      Temps:          0       0       0       0       0
  4087 ;;      Totals:         0       0       0       1       0
  4088 ;;Total ram usage:        1 bytes
  4089 ;; Hardware stack levels used: 1
  4090 ;; Hardware stack levels required when called: 5
  4091 ;; This function calls:
  4092 ;;		Nothing
  4093 ;; This function is called by:
  4094 ;;		_motor_dc
  4095 ;;		_servo
  4096 ;;		_RTC_read
  4097 ;;		_USART_print
  4098 ;; This function uses a non-reentrant model
  4099 ;;
  4100                           
  4101  110D                     _USART_send:	
  4102                           ;psect for function _USART_send
  4103                           
  4104                           
  4105                           ;incstack = 0
  4106                           ; Regs used in _USART_send: [wreg]
  4107                           ;USART_send@data stored from wreg
  4108  110D  1683               	bsf	3,5	;RP0=1, select bank3
  4109  110E  1703               	bsf	3,6	;RP1=1, select bank3
  4110  110F  0090               	movwf	USART_send@data^(0+384)
  4111  1110                     l2702:
  4112  1110                     l174:	
  4113                           ;USART.c: 27: void USART_send(const char data);USART.c: 28: {;USART.c: 29:     while(!TX
      +                          STAbits.TRMT);
  4114                           
  4115  1110  1303               	bcf	3,6	;RP1=0, select bank1
  4116  1111  1C98               	btfss	24,1	;volatile
  4117  1112  2914               	goto	u3141
  4118  1113  2915               	goto	u3140
  4119  1114                     u3141:
  4120  1114  2910               	goto	l174
  4121  1115                     u3140:
  4122  1115                     l2704:
  4123                           
  4124                           ;USART.c: 30:     TXREG = data;
  4125  1115  1683               	bsf	3,5	;RP0=1, select bank3
  4126  1116  1703               	bsf	3,6	;RP1=1, select bank3
  4127  1117  0810               	movf	USART_send@data^(0+384),w
  4128  1118  1283               	bcf	3,5	;RP0=0, select bank0
  4129  1119  1303               	bcf	3,6	;RP1=0, select bank0
  4130  111A  0099               	movwf	25	;volatile
  4131  111B                     l177:
  4132  111B  0008               	return
  4133  111C                     __end_of_USART_send:
  4134                           
  4135                           	psect	text17
  4136  10E8                     __ptext17:	
  4137 ;; *************** function _I2C_Master_Write *****************
  4138 ;; Defined at:
  4139 ;;		line 47 in file "I2C.c"
  4140 ;; Parameters:    Size  Location     Type
  4141 ;;  d               2    0[BANK3 ] unsigned int 
  4142 ;; Auto vars:     Size  Location     Type
  4143 ;;		None
  4144 ;; Return value:  Size  Location     Type
  4145 ;;                  1    wreg      void 
  4146 ;; Registers used:
  4147 ;;		wreg, status,2, status,0, pclath, cstack
  4148 ;; Tracked objects:
  4149 ;;		On entry : 0/0
  4150 ;;		On exit  : 0/0
  4151 ;;		Unchanged: 0/0
  4152 ;; Data sizes:     COMMON   BANK0   BANK1   BANK3   BANK2
  4153 ;;      Params:         0       0       0       2       0
  4154 ;;      Locals:         0       0       0       0       0
  4155 ;;      Temps:          0       0       0       0       0
  4156 ;;      Totals:         0       0       0       2       0
  4157 ;;Total ram usage:        2 bytes
  4158 ;; Hardware stack levels used: 1
  4159 ;; Hardware stack levels required when called: 6
  4160 ;; This function calls:
  4161 ;;		_I2C_Master_Wait
  4162 ;; This function is called by:
  4163 ;;		_RTC_read
  4164 ;; This function uses a non-reentrant model
  4165 ;;
  4166                           
  4167  10E8                     _I2C_Master_Write:	
  4168                           ;psect for function _I2C_Master_Write
  4169                           
  4170  10E8                     l2712:	
  4171                           ;incstack = 0
  4172                           ; Regs used in _I2C_Master_Write: [wreg+status,2+status,0+pclath+cstack]
  4173                           
  4174                           
  4175                           ;I2C.c: 47: void I2C_Master_Write(unsigned d);I2C.c: 48: {;I2C.c: 49:     I2C_Master_Wai
      +                          t();
  4176  10E8  160A  118A  2100  160A  118A  	fcall	_I2C_Master_Wait
  4177  10ED                     l2714:
  4178                           
  4179                           ;I2C.c: 50:     SSPBUF = d;
  4180  10ED  1683               	bsf	3,5	;RP0=1, select bank3
  4181  10EE  1703               	bsf	3,6	;RP1=1, select bank3
  4182  10EF  0810               	movf	I2C_Master_Write@d^(0+384),w
  4183  10F0  1283               	bcf	3,5	;RP0=0, select bank0
  4184  10F1  1303               	bcf	3,6	;RP1=0, select bank0
  4185  10F2  0093               	movwf	19	;volatile
  4186  10F3                     l311:
  4187  10F3  0008               	return
  4188  10F4                     __end_of_I2C_Master_Write:
  4189                           
  4190                           	psect	text18
  4191  10D5                     __ptext18:	
  4192 ;; *************** function _I2C_Master_Stop *****************
  4193 ;; Defined at:
  4194 ;;		line 41 in file "I2C.c"
  4195 ;; Parameters:    Size  Location     Type
  4196 ;;		None
  4197 ;; Auto vars:     Size  Location     Type
  4198 ;;		None
  4199 ;; Return value:  Size  Location     Type
  4200 ;;                  1    wreg      void 
  4201 ;; Registers used:
  4202 ;;		wreg, status,2, status,0, pclath, cstack
  4203 ;; Tracked objects:
  4204 ;;		On entry : 0/0
  4205 ;;		On exit  : 0/0
  4206 ;;		Unchanged: 0/0
  4207 ;; Data sizes:     COMMON   BANK0   BANK1   BANK3   BANK2
  4208 ;;      Params:         0       0       0       0       0
  4209 ;;      Locals:         0       0       0       0       0
  4210 ;;      Temps:          0       0       0       0       0
  4211 ;;      Totals:         0       0       0       0       0
  4212 ;;Total ram usage:        0 bytes
  4213 ;; Hardware stack levels used: 1
  4214 ;; Hardware stack levels required when called: 6
  4215 ;; This function calls:
  4216 ;;		_I2C_Master_Wait
  4217 ;; This function is called by:
  4218 ;;		_RTC_read
  4219 ;; This function uses a non-reentrant model
  4220 ;;
  4221                           
  4222  10D5                     _I2C_Master_Stop:	
  4223                           ;psect for function _I2C_Master_Stop
  4224                           
  4225  10D5                     l2740:	
  4226                           ;incstack = 0
  4227                           ; Regs used in _I2C_Master_Stop: [wreg+status,2+status,0+pclath+cstack]
  4228                           
  4229                           
  4230                           ;I2C.c: 43:     I2C_Master_Wait();
  4231  10D5  160A  118A  2100  160A  118A  	fcall	_I2C_Master_Wait
  4232  10DA                     l2742:
  4233                           
  4234                           ;I2C.c: 44:     SSPCON2bits.PEN = 1;
  4235  10DA  1683               	bsf	3,5	;RP0=1, select bank1
  4236  10DB  1303               	bcf	3,6	;RP1=0, select bank1
  4237  10DC  1511               	bsf	17,2	;volatile
  4238  10DD                     l308:
  4239  10DD  0008               	return
  4240  10DE                     __end_of_I2C_Master_Stop:
  4241                           
  4242                           	psect	text19
  4243  10CC                     __ptext19:	
  4244 ;; *************** function _I2C_Master_Start *****************
  4245 ;; Defined at:
  4246 ;;		line 29 in file "I2C.c"
  4247 ;; Parameters:    Size  Location     Type
  4248 ;;		None
  4249 ;; Auto vars:     Size  Location     Type
  4250 ;;		None
  4251 ;; Return value:  Size  Location     Type
  4252 ;;                  1    wreg      void 
  4253 ;; Registers used:
  4254 ;;		wreg, status,2, status,0, pclath, cstack
  4255 ;; Tracked objects:
  4256 ;;		On entry : 0/0
  4257 ;;		On exit  : 0/0
  4258 ;;		Unchanged: 0/0
  4259 ;; Data sizes:     COMMON   BANK0   BANK1   BANK3   BANK2
  4260 ;;      Params:         0       0       0       0       0
  4261 ;;      Locals:         0       0       0       0       0
  4262 ;;      Temps:          0       0       0       0       0
  4263 ;;      Totals:         0       0       0       0       0
  4264 ;;Total ram usage:        0 bytes
  4265 ;; Hardware stack levels used: 1
  4266 ;; Hardware stack levels required when called: 6
  4267 ;; This function calls:
  4268 ;;		_I2C_Master_Wait
  4269 ;; This function is called by:
  4270 ;;		_RTC_read
  4271 ;; This function uses a non-reentrant model
  4272 ;;
  4273                           
  4274  10CC                     _I2C_Master_Start:	
  4275                           ;psect for function _I2C_Master_Start
  4276                           
  4277  10CC                     l2708:	
  4278                           ;incstack = 0
  4279                           ; Regs used in _I2C_Master_Start: [wreg+status,2+status,0+pclath+cstack]
  4280                           
  4281                           
  4282                           ;I2C.c: 31:     I2C_Master_Wait();
  4283  10CC  160A  118A  2100  160A  118A  	fcall	_I2C_Master_Wait
  4284  10D1                     l2710:
  4285                           
  4286                           ;I2C.c: 32:     SSPCON2bits.SEN = 1;
  4287  10D1  1683               	bsf	3,5	;RP0=1, select bank1
  4288  10D2  1303               	bcf	3,6	;RP1=0, select bank1
  4289  10D3  1411               	bsf	17,0	;volatile
  4290  10D4                     l302:
  4291  10D4  0008               	return
  4292  10D5                     __end_of_I2C_Master_Start:
  4293                           
  4294                           	psect	text20
  4295  10C3                     __ptext20:	
  4296 ;; *************** function _I2C_Master_RepeatedStart *****************
  4297 ;; Defined at:
  4298 ;;		line 35 in file "I2C.c"
  4299 ;; Parameters:    Size  Location     Type
  4300 ;;		None
  4301 ;; Auto vars:     Size  Location     Type
  4302 ;;		None
  4303 ;; Return value:  Size  Location     Type
  4304 ;;                  1    wreg      void 
  4305 ;; Registers used:
  4306 ;;		wreg, status,2, status,0, pclath, cstack
  4307 ;; Tracked objects:
  4308 ;;		On entry : 0/0
  4309 ;;		On exit  : 0/0
  4310 ;;		Unchanged: 0/0
  4311 ;; Data sizes:     COMMON   BANK0   BANK1   BANK3   BANK2
  4312 ;;      Params:         0       0       0       0       0
  4313 ;;      Locals:         0       0       0       0       0
  4314 ;;      Temps:          0       0       0       0       0
  4315 ;;      Totals:         0       0       0       0       0
  4316 ;;Total ram usage:        0 bytes
  4317 ;; Hardware stack levels used: 1
  4318 ;; Hardware stack levels required when called: 6
  4319 ;; This function calls:
  4320 ;;		_I2C_Master_Wait
  4321 ;; This function is called by:
  4322 ;;		_RTC_read
  4323 ;; This function uses a non-reentrant model
  4324 ;;
  4325                           
  4326  10C3                     _I2C_Master_RepeatedStart:	
  4327                           ;psect for function _I2C_Master_RepeatedStart
  4328                           
  4329  10C3                     l2716:	
  4330                           ;incstack = 0
  4331                           ; Regs used in _I2C_Master_RepeatedStart: [wreg+status,2+status,0+pclath+cstack]
  4332                           
  4333                           
  4334                           ;I2C.c: 37:     I2C_Master_Wait();
  4335  10C3  160A  118A  2100  160A  118A  	fcall	_I2C_Master_Wait
  4336  10C8                     l2718:
  4337                           
  4338                           ;I2C.c: 38:     SSPCON2bits.RSEN = 1;
  4339  10C8  1683               	bsf	3,5	;RP0=1, select bank1
  4340  10C9  1303               	bcf	3,6	;RP1=0, select bank1
  4341  10CA  1491               	bsf	17,1	;volatile
  4342  10CB                     l305:
  4343  10CB  0008               	return
  4344  10CC                     __end_of_I2C_Master_RepeatedStart:
  4345                           
  4346                           	psect	text21
  4347  11FE                     __ptext21:	
  4348 ;; *************** function _I2C_Master_Read *****************
  4349 ;; Defined at:
  4350 ;;		line 53 in file "I2C.c"
  4351 ;; Parameters:    Size  Location     Type
  4352 ;;  a               2    0[BANK3 ] unsigned short 
  4353 ;; Auto vars:     Size  Location     Type
  4354 ;;  temp            2    4[BANK3 ] unsigned short 
  4355 ;; Return value:  Size  Location     Type
  4356 ;;                  2    0[BANK3 ] unsigned short 
  4357 ;; Registers used:
  4358 ;;		wreg, status,2, status,0, pclath, cstack
  4359 ;; Tracked objects:
  4360 ;;		On entry : 0/0
  4361 ;;		On exit  : 0/0
  4362 ;;		Unchanged: 0/0
  4363 ;; Data sizes:     COMMON   BANK0   BANK1   BANK3   BANK2
  4364 ;;      Params:         0       0       0       2       0
  4365 ;;      Locals:         0       0       0       2       0
  4366 ;;      Temps:          0       0       0       2       0
  4367 ;;      Totals:         0       0       0       6       0
  4368 ;;Total ram usage:        6 bytes
  4369 ;; Hardware stack levels used: 1
  4370 ;; Hardware stack levels required when called: 6
  4371 ;; This function calls:
  4372 ;;		_I2C_Master_Wait
  4373 ;; This function is called by:
  4374 ;;		_RTC_read
  4375 ;; This function uses a non-reentrant model
  4376 ;;
  4377                           
  4378  11FE                     _I2C_Master_Read:	
  4379                           ;psect for function _I2C_Master_Read
  4380                           
  4381  11FE                     l2720:	
  4382                           ;incstack = 0
  4383                           ; Regs used in _I2C_Master_Read: [wreg+status,2+status,0+pclath+cstack]
  4384                           
  4385                           
  4386                           ;I2C.c: 53: unsigned short I2C_Master_Read(unsigned short a);I2C.c: 54: {;I2C.c: 55:    
      +                           unsigned short temp;;I2C.c: 56:     I2C_Master_Wait();
  4387  11FE  160A  118A  2100  160A  118A  	fcall	_I2C_Master_Wait
  4388  1203                     l2722:
  4389                           
  4390                           ;I2C.c: 57:     SSPCON2bits.RCEN = 1;
  4391  1203  1683               	bsf	3,5	;RP0=1, select bank1
  4392  1204  1303               	bcf	3,6	;RP1=0, select bank1
  4393  1205  1591               	bsf	17,3	;volatile
  4394                           
  4395                           ;I2C.c: 58:     I2C_Master_Wait();
  4396  1206  160A  118A  2100  160A  118A  	fcall	_I2C_Master_Wait
  4397  120B                     l2724:
  4398                           
  4399                           ;I2C.c: 59:     temp = SSPBUF;
  4400  120B  1283               	bcf	3,5	;RP0=0, select bank0
  4401  120C  1303               	bcf	3,6	;RP1=0, select bank0
  4402  120D  0813               	movf	19,w	;volatile
  4403  120E  1683               	bsf	3,5	;RP0=1, select bank3
  4404  120F  1703               	bsf	3,6	;RP1=1, select bank3
  4405  1210  0092               	movwf	??_I2C_Master_Read^(0+384)
  4406  1211  0193               	clrf	(??_I2C_Master_Read^(0+384)+1)
  4407  1212  0812               	movf	??_I2C_Master_Read^(0+384),w
  4408  1213  0094               	movwf	I2C_Master_Read@temp^(0+384)
  4409  1214  0813               	movf	(??_I2C_Master_Read+1)^(0+384),w
  4410  1215  0095               	movwf	(I2C_Master_Read@temp+1)^(0+384)
  4411  1216                     l2726:
  4412                           
  4413                           ;I2C.c: 60:     I2C_Master_Wait();
  4414  1216  160A  118A  2100  160A  118A  	fcall	_I2C_Master_Wait
  4415  121B                     l2728:
  4416                           
  4417                           ;I2C.c: 61:     if(a == 1){
  4418  121B  1683               	bsf	3,5	;RP0=1, select bank3
  4419  121C  1703               	bsf	3,6	;RP1=1, select bank3
  4420  121D  0310               	decf	I2C_Master_Read@a^(0+384),w
  4421  121E  0411               	iorwf	(I2C_Master_Read@a+1)^(0+384),w
  4422  121F  1D03               	btfss	3,2
  4423  1220  2A22               	goto	u3151
  4424  1221  2A23               	goto	u3150
  4425  1222                     u3151:
  4426  1222  2A27               	goto	l314
  4427  1223                     u3150:
  4428  1223                     l2730:
  4429                           
  4430                           ;I2C.c: 62:         SSPCON2bits.ACKDT = 0;
  4431  1223  1683               	bsf	3,5	;RP0=1, select bank1
  4432  1224  1303               	bcf	3,6	;RP1=0, select bank1
  4433  1225  1291               	bcf	17,5	;volatile
  4434                           
  4435                           ;I2C.c: 63:     }else{
  4436  1226  2A2A               	goto	l315
  4437  1227                     l314:
  4438                           
  4439                           ;I2C.c: 64:         SSPCON2bits.ACKDT = 1;
  4440  1227  1683               	bsf	3,5	;RP0=1, select bank1
  4441  1228  1303               	bcf	3,6	;RP1=0, select bank1
  4442  1229  1691               	bsf	17,5	;volatile
  4443  122A                     l315:	
  4444                           ;I2C.c: 65:     }
  4445                           
  4446                           
  4447                           ;I2C.c: 66:     SSPCON2bits.ACKEN = 1;
  4448  122A  1611               	bsf	17,4	;volatile
  4449  122B                     l2732:
  4450                           
  4451                           ;I2C.c: 67:     return temp;
  4452  122B  1683               	bsf	3,5	;RP0=1, select bank3
  4453  122C  1703               	bsf	3,6	;RP1=1, select bank3
  4454  122D  0815               	movf	(I2C_Master_Read@temp+1)^(0+384),w
  4455  122E  0091               	movwf	(?_I2C_Master_Read+1)^(0+384)
  4456  122F  0814               	movf	I2C_Master_Read@temp^(0+384),w
  4457  1230  0090               	movwf	?_I2C_Master_Read^(0+384)
  4458  1231                     l316:
  4459  1231  0008               	return
  4460  1232                     __end_of_I2C_Master_Read:
  4461                           
  4462                           	psect	text22
  4463  1100                     __ptext22:	
  4464 ;; *************** function _I2C_Master_Wait *****************
  4465 ;; Defined at:
  4466 ;;		line 24 in file "I2C.c"
  4467 ;; Parameters:    Size  Location     Type
  4468 ;;		None
  4469 ;; Auto vars:     Size  Location     Type
  4470 ;;		None
  4471 ;; Return value:  Size  Location     Type
  4472 ;;                  1    wreg      void 
  4473 ;; Registers used:
  4474 ;;		wreg, status,2
  4475 ;; Tracked objects:
  4476 ;;		On entry : 0/0
  4477 ;;		On exit  : 0/0
  4478 ;;		Unchanged: 0/0
  4479 ;; Data sizes:     COMMON   BANK0   BANK1   BANK3   BANK2
  4480 ;;      Params:         0       0       0       0       0
  4481 ;;      Locals:         0       0       0       0       0
  4482 ;;      Temps:          0       0       0       0       0
  4483 ;;      Totals:         0       0       0       0       0
  4484 ;;Total ram usage:        0 bytes
  4485 ;; Hardware stack levels used: 1
  4486 ;; Hardware stack levels required when called: 5
  4487 ;; This function calls:
  4488 ;;		Nothing
  4489 ;; This function is called by:
  4490 ;;		_I2C_Master_Start
  4491 ;;		_I2C_Master_RepeatedStart
  4492 ;;		_I2C_Master_Stop
  4493 ;;		_I2C_Master_Write
  4494 ;;		_I2C_Master_Read
  4495 ;; This function uses a non-reentrant model
  4496 ;;
  4497                           
  4498  1100                     _I2C_Master_Wait:	
  4499                           ;psect for function _I2C_Master_Wait
  4500                           
  4501  1100                     l2314:	
  4502                           ;incstack = 0
  4503                           ; Regs used in _I2C_Master_Wait: [wreg+status,2]
  4504                           
  4505  1100                     l296:	
  4506                           ;I2C.c: 26:     while ((SSPSTAT & 0x04) || (SSPCON2 & 0x1F));
  4507                           
  4508  1100  1683               	bsf	3,5	;RP0=1, select bank1
  4509  1101  1303               	bcf	3,6	;RP1=0, select bank1
  4510  1102  1914               	btfsc	20,2	;volatile
  4511  1103  2905               	goto	u2171
  4512  1104  2906               	goto	u2170
  4513  1105                     u2171:
  4514  1105  2900               	goto	l296
  4515  1106                     u2170:
  4516  1106                     l2316:
  4517  1106  0811               	movf	17,w	;volatile
  4518  1107  391F               	andlw	31
  4519  1108  1D03               	btfss	3,2
  4520  1109  290B               	goto	u2181
  4521  110A  290C               	goto	u2180
  4522  110B                     u2181:
  4523  110B  2900               	goto	l296
  4524  110C                     u2180:
  4525  110C                     l299:
  4526  110C  0008               	return
  4527  110D                     __end_of_I2C_Master_Wait:
  4528                           
  4529                           	psect	text23
  4530  03AE                     __ptext23:	
  4531 ;; *************** function _slave *****************
  4532 ;; Defined at:
  4533 ;;		line 77 in file "main_slave_p1.c"
  4534 ;; Parameters:    Size  Location     Type
  4535 ;;		None
  4536 ;; Auto vars:     Size  Location     Type
  4537 ;;		None
  4538 ;; Return value:  Size  Location     Type
  4539 ;;                  1    wreg      void 
  4540 ;; Registers used:
  4541 ;;		wreg, fsr0l, fsr0h, status,2, status,0, btemp+1, pclath, cstack
  4542 ;; Tracked objects:
  4543 ;;		On entry : 0/0
  4544 ;;		On exit  : 0/0
  4545 ;;		Unchanged: 0/0
  4546 ;; Data sizes:     COMMON   BANK0   BANK1   BANK3   BANK2
  4547 ;;      Params:         0       0       0       0       0
  4548 ;;      Locals:         0       0      16       0       0
  4549 ;;      Temps:          0       0       8       0       0
  4550 ;;      Totals:         0       0      24       0       0
  4551 ;;Total ram usage:       24 bytes
  4552 ;; Hardware stack levels used: 1
  4553 ;; Hardware stack levels required when called: 4
  4554 ;; This function calls:
  4555 ;;		___fladd
  4556 ;;		___fldiv
  4557 ;;		___flmul
  4558 ;;		___flsub
  4559 ;;		___lwdiv
  4560 ;;		___xxtofl
  4561 ;;		_adc_read
  4562 ;;		_log
  4563 ;;		_map
  4564 ;;		i1___fltol
  4565 ;; This function is called by:
  4566 ;;		Interrupt level 1
  4567 ;; This function uses a non-reentrant model
  4568 ;;
  4569                           
  4570  03AE                     _slave:	
  4571                           ;psect for function _slave
  4572                           
  4573  03AE                     i1l3380:
  4574                           
  4575                           ;main_slave_p1.c: 78:     if(INTCONbits.RBIF){
  4576  03AE  1C0B               	btfss	11,0	;volatile
  4577  03AF  2BB1               	goto	u422_21
  4578  03B0  2BB2               	goto	u422_20
  4579  03B1                     u422_21:
  4580  03B1  2BC4               	goto	i1l3390
  4581  03B2                     u422_20:
  4582  03B2                     i1l3382:
  4583                           
  4584                           ;main_slave_p1.c: 79:         if(!PORTBbits.RB1){
  4585  03B2  1283               	bcf	3,5	;RP0=0, select bank0
  4586  03B3  1303               	bcf	3,6	;RP1=0, select bank0
  4587  03B4  1886               	btfsc	6,1	;volatile
  4588  03B5  2BB7               	goto	u423_21
  4589  03B6  2BB8               	goto	u423_20
  4590  03B7                     u423_21:
  4591  03B7  2BBF               	goto	i1l3386
  4592  03B8                     u423_20:
  4593  03B8                     i1l3384:
  4594                           
  4595                           ;main_slave_p1.c: 80:             switch_servo = 1;
  4596  03B8  3001               	movlw	1
  4597  03B9  1683               	bsf	3,5	;RP0=1, select bank3
  4598  03BA  1703               	bsf	3,6	;RP1=1, select bank3
  4599  03BB  00BC               	movwf	_switch_servo^(0+384)
  4600  03BC  3000               	movlw	0
  4601  03BD  00BD               	movwf	(_switch_servo^(0+384)+1)
  4602                           
  4603                           ;main_slave_p1.c: 81:         }
  4604  03BE  2BC3               	goto	i1l3388
  4605  03BF                     i1l3386:
  4606                           
  4607                           ;main_slave_p1.c: 83:             switch_servo = 0;
  4608  03BF  1683               	bsf	3,5	;RP0=1, select bank3
  4609  03C0  1703               	bsf	3,6	;RP1=1, select bank3
  4610  03C1  01BC               	clrf	_switch_servo^(0+384)
  4611  03C2  01BD               	clrf	(_switch_servo+1)^(0+384)
  4612  03C3                     i1l3388:
  4613                           
  4614                           ;main_slave_p1.c: 85:         INTCONbits.RBIF = 0;
  4615  03C3  100B               	bcf	11,0	;volatile
  4616  03C4                     i1l3390:
  4617                           
  4618                           ;main_slave_p1.c: 87:     if(PIR1bits.ADIF){
  4619  03C4  1283               	bcf	3,5	;RP0=0, select bank0
  4620  03C5  1303               	bcf	3,6	;RP1=0, select bank0
  4621  03C6  1F0C               	btfss	12,6	;volatile
  4622  03C7  2BC9               	goto	u424_21
  4623  03C8  2BCA               	goto	u424_20
  4624  03C9                     u424_21:
  4625  03C9  2EA3               	goto	i1l110
  4626  03CA                     u424_20:
  4627  03CA                     i1l3392:
  4628                           
  4629                           ;main_slave_p1.c: 88:         if(ADCON0bits.CHS == 0){
  4630  03CA  0C1F               	rrf	31,w	;volatile
  4631  03CB  1683               	bsf	3,5	;RP0=1, select bank1
  4632  03CC  1303               	bcf	3,6	;RP1=0, select bank1
  4633  03CD  00C0               	movwf	??_slave^(0+128)
  4634  03CE  0C40               	rrf	??_slave^(0+128),w
  4635  03CF  390F               	andlw	15
  4636  03D0  3A00               	xorlw	0
  4637  03D1  1D03               	skipz
  4638  03D2  2BD4               	goto	u425_21
  4639  03D3  2BD5               	goto	u425_20
  4640  03D4                     u425_21:
  4641  03D4  2EA0               	goto	i1l3408
  4642  03D5                     u425_20:
  4643  03D5                     i1l3394:
  4644                           
  4645                           ;main_slave_p1.c: 89:             TEMP_POT = map(adc_read(), 0, 650, -55, 125);
  4646  03D5  160A  118A  20DE  120A  118A  	fcall	_adc_read
  4647  03DA  0871               	movf	?_adc_read+1,w
  4648  03DB  1683               	bsf	3,5	;RP0=1, select bank1
  4649  03DC  1303               	bcf	3,6	;RP1=0, select bank1
  4650  03DD  00B7               	movwf	(map@x+1)^(0+128)
  4651  03DE  0870               	movf	?_adc_read,w
  4652  03DF  00B6               	movwf	map@x^(0+128)
  4653  03E0  3000               	movlw	0
  4654  03E1  00B8               	movwf	map@x0^(0+128)
  4655  03E2  00B9               	movwf	(map@x0+1)^(0+128)
  4656  03E3  308A               	movlw	138
  4657  03E4  00BA               	movwf	map@x1^(0+128)
  4658  03E5  3002               	movlw	2
  4659  03E6  00BB               	movwf	(map@x1^(0+128)+1)
  4660  03E7  30C9               	movlw	201
  4661  03E8  00BC               	movwf	map@y0^(0+128)
  4662  03E9  30FF               	movlw	255
  4663  03EA  00BD               	movwf	(map@y0^(0+128)+1)
  4664  03EB  307D               	movlw	125
  4665  03EC  00BE               	movwf	map@y1^(0+128)
  4666  03ED  3000               	movlw	0
  4667  03EE  00BF               	movwf	(map@y1^(0+128)+1)
  4668  03EF  120A  158A  2163  120A  118A  	fcall	_map
  4669  03F4  1683               	bsf	3,5	;RP0=1, select bank1
  4670  03F5  1303               	bcf	3,6	;RP1=0, select bank1
  4671  03F6  0837               	movf	(?_map+1)^(0+128),w
  4672  03F7  00E3               	movwf	(_TEMP_POT+1)^(0+128)
  4673  03F8  0836               	movf	?_map^(0+128),w
  4674  03F9  00E2               	movwf	_TEMP_POT^(0+128)
  4675                           
  4676                           ;main_slave_p1.c: 92:             R2 = R1 * ((float)(1023/TEMP_POT)-1);
  4677  03FA  086B               	movf	(_R1+3)^(0+128),w
  4678  03FB  1283               	bcf	3,5	;RP0=0, select bank0
  4679  03FC  1303               	bcf	3,6	;RP1=0, select bank0
  4680  03FD  00C1               	movwf	___flmul@b+3
  4681  03FE  1683               	bsf	3,5	;RP0=1, select bank1
  4682  03FF  1303               	bcf	3,6	;RP1=0, select bank1
  4683  0400  086A               	movf	(_R1+2)^(0+128),w
  4684  0401  1283               	bcf	3,5	;RP0=0, select bank0
  4685  0402  1303               	bcf	3,6	;RP1=0, select bank0
  4686  0403  00C0               	movwf	___flmul@b+2
  4687  0404  1683               	bsf	3,5	;RP0=1, select bank1
  4688  0405  1303               	bcf	3,6	;RP1=0, select bank1
  4689  0406  0869               	movf	(_R1+1)^(0+128),w
  4690  0407  1283               	bcf	3,5	;RP0=0, select bank0
  4691  0408  1303               	bcf	3,6	;RP1=0, select bank0
  4692  0409  00BF               	movwf	___flmul@b+1
  4693  040A  1683               	bsf	3,5	;RP0=1, select bank1
  4694  040B  1303               	bcf	3,6	;RP1=0, select bank1
  4695  040C  0868               	movf	_R1^(0+128),w
  4696  040D  1283               	bcf	3,5	;RP0=0, select bank0
  4697  040E  1303               	bcf	3,6	;RP1=0, select bank0
  4698  040F  00BE               	movwf	___flmul@b
  4699  0410  30BF               	movlw	191
  4700  0411  00AD               	movwf	___fladd@b+3
  4701  0412  3080               	movlw	128
  4702  0413  00AC               	movwf	___fladd@b+2
  4703  0414  3000               	movlw	0
  4704  0415  00AB               	movwf	___fladd@b+1
  4705  0416  3000               	movlw	0
  4706  0417  00AA               	movwf	___fladd@b
  4707  0418  30FF               	movlw	255
  4708  0419  00F2               	movwf	___lwdiv@dividend
  4709  041A  3003               	movlw	3
  4710  041B  00F3               	movwf	___lwdiv@dividend+1
  4711  041C  1683               	bsf	3,5	;RP0=1, select bank1
  4712  041D  1303               	bcf	3,6	;RP1=0, select bank1
  4713  041E  0863               	movf	(_TEMP_POT+1)^(0+128),w
  4714  041F  00F1               	movwf	___lwdiv@divisor+1
  4715  0420  0862               	movf	_TEMP_POT^(0+128),w
  4716  0421  00F0               	movwf	___lwdiv@divisor
  4717  0422  160A  118A  2320  120A  118A  	fcall	___lwdiv
  4718  0427  0870               	movf	?___lwdiv,w
  4719  0428  1683               	bsf	3,5	;RP0=1, select bank1
  4720  0429  1303               	bcf	3,6	;RP1=0, select bank1
  4721  042A  00C0               	movwf	??_slave^(0+128)
  4722  042B  0871               	movf	?___lwdiv+1,w
  4723  042C  00C1               	movwf	(??_slave^(0+128)+1)
  4724  042D  01C2               	clrf	(??_slave^(0+128)+2)
  4725  042E  01C3               	clrf	(??_slave^(0+128)+3)
  4726  042F  0843               	movf	(??_slave+3)^(0+128),w
  4727  0430  00FC               	movwf	___xxtofl@val+3
  4728  0431  0842               	movf	(??_slave+2)^(0+128),w
  4729  0432  00FB               	movwf	___xxtofl@val+2
  4730  0433  0841               	movf	(??_slave+1)^(0+128),w
  4731  0434  00FA               	movwf	___xxtofl@val+1
  4732  0435  0840               	movf	??_slave^(0+128),w
  4733  0436  00F9               	movwf	___xxtofl@val
  4734  0437  3000               	movlw	0
  4735  0438  120A  158A  221C  120A  118A  	fcall	___xxtofl
  4736  043D  087C               	movf	?___xxtofl+3,w
  4737  043E  1283               	bcf	3,5	;RP0=0, select bank0
  4738  043F  1303               	bcf	3,6	;RP1=0, select bank0
  4739  0440  00B1               	movwf	___fladd@a+3
  4740  0441  087B               	movf	?___xxtofl+2,w
  4741  0442  00B0               	movwf	___fladd@a+2
  4742  0443  087A               	movf	?___xxtofl+1,w
  4743  0444  00AF               	movwf	___fladd@a+1
  4744  0445  0879               	movf	?___xxtofl,w
  4745  0446  00AE               	movwf	___fladd@a
  4746  0447  120A  158A  22D8  120A  118A  	fcall	___fladd
  4747  044C  1283               	bcf	3,5	;RP0=0, select bank0
  4748  044D  1303               	bcf	3,6	;RP1=0, select bank0
  4749  044E  082D               	movf	?___fladd+3,w
  4750  044F  00C5               	movwf	___flmul@a+3
  4751  0450  082C               	movf	?___fladd+2,w
  4752  0451  00C4               	movwf	___flmul@a+2
  4753  0452  082B               	movf	?___fladd+1,w
  4754  0453  00C3               	movwf	___flmul@a+1
  4755  0454  082A               	movf	?___fladd,w
  4756  0455  00C2               	movwf	___flmul@a
  4757  0456  120A  118A  204D  120A  118A  	fcall	___flmul
  4758  045B  1283               	bcf	3,5	;RP0=0, select bank0
  4759  045C  1303               	bcf	3,6	;RP1=0, select bank0
  4760  045D  0841               	movf	?___flmul+3,w
  4761  045E  1683               	bsf	3,5	;RP0=1, select bank1
  4762  045F  1303               	bcf	3,6	;RP1=0, select bank1
  4763  0460  00DB               	movwf	(_R2+3)^(0+128)
  4764  0461  1283               	bcf	3,5	;RP0=0, select bank0
  4765  0462  1303               	bcf	3,6	;RP1=0, select bank0
  4766  0463  0840               	movf	?___flmul+2,w
  4767  0464  1683               	bsf	3,5	;RP0=1, select bank1
  4768  0465  1303               	bcf	3,6	;RP1=0, select bank1
  4769  0466  00DA               	movwf	(_R2+2)^(0+128)
  4770  0467  1283               	bcf	3,5	;RP0=0, select bank0
  4771  0468  1303               	bcf	3,6	;RP1=0, select bank0
  4772  0469  083F               	movf	?___flmul+1,w
  4773  046A  1683               	bsf	3,5	;RP0=1, select bank1
  4774  046B  1303               	bcf	3,6	;RP1=0, select bank1
  4775  046C  00D9               	movwf	(_R2+1)^(0+128)
  4776  046D  1283               	bcf	3,5	;RP0=0, select bank0
  4777  046E  1303               	bcf	3,6	;RP1=0, select bank0
  4778  046F  083E               	movf	?___flmul,w
  4779  0470  1683               	bsf	3,5	;RP0=1, select bank1
  4780  0471  1303               	bcf	3,6	;RP1=0, select bank1
  4781  0472  00D8               	movwf	_R2^(0+128)
  4782  0473                     i1l3396:
  4783                           
  4784                           ;main_slave_p1.c: 93:             logR2 = log(R2);
  4785  0473  085B               	movf	(_R2+3)^(0+128),w
  4786  0474  1283               	bcf	3,5	;RP0=0, select bank0
  4787  0475  1303               	bcf	3,6	;RP1=0, select bank0
  4788  0476  00EB               	movwf	log@x+3
  4789  0477  1683               	bsf	3,5	;RP0=1, select bank1
  4790  0478  1303               	bcf	3,6	;RP1=0, select bank1
  4791  0479  085A               	movf	(_R2+2)^(0+128),w
  4792  047A  1283               	bcf	3,5	;RP0=0, select bank0
  4793  047B  1303               	bcf	3,6	;RP1=0, select bank0
  4794  047C  00EA               	movwf	log@x+2
  4795  047D  1683               	bsf	3,5	;RP0=1, select bank1
  4796  047E  1303               	bcf	3,6	;RP1=0, select bank1
  4797  047F  0859               	movf	(_R2+1)^(0+128),w
  4798  0480  1283               	bcf	3,5	;RP0=0, select bank0
  4799  0481  1303               	bcf	3,6	;RP1=0, select bank0
  4800  0482  00E9               	movwf	log@x+1
  4801  0483  1683               	bsf	3,5	;RP0=1, select bank1
  4802  0484  1303               	bcf	3,6	;RP1=0, select bank1
  4803  0485  0858               	movf	_R2^(0+128),w
  4804  0486  1283               	bcf	3,5	;RP0=0, select bank0
  4805  0487  1303               	bcf	3,6	;RP1=0, select bank0
  4806  0488  00E8               	movwf	log@x
  4807  0489  120A  118A  26B0  120A  118A  	fcall	_log
  4808  048E  1283               	bcf	3,5	;RP0=0, select bank0
  4809  048F  1303               	bcf	3,6	;RP1=0, select bank0
  4810  0490  086B               	movf	?_log+3,w
  4811  0491  1683               	bsf	3,5	;RP0=1, select bank1
  4812  0492  1303               	bcf	3,6	;RP1=0, select bank1
  4813  0493  00DF               	movwf	(_logR2+3)^(0+128)
  4814  0494  1283               	bcf	3,5	;RP0=0, select bank0
  4815  0495  1303               	bcf	3,6	;RP1=0, select bank0
  4816  0496  086A               	movf	?_log+2,w
  4817  0497  1683               	bsf	3,5	;RP0=1, select bank1
  4818  0498  1303               	bcf	3,6	;RP1=0, select bank1
  4819  0499  00DE               	movwf	(_logR2+2)^(0+128)
  4820  049A  1283               	bcf	3,5	;RP0=0, select bank0
  4821  049B  1303               	bcf	3,6	;RP1=0, select bank0
  4822  049C  0869               	movf	?_log+1,w
  4823  049D  1683               	bsf	3,5	;RP0=1, select bank1
  4824  049E  1303               	bcf	3,6	;RP1=0, select bank1
  4825  049F  00DD               	movwf	(_logR2+1)^(0+128)
  4826  04A0  1283               	bcf	3,5	;RP0=0, select bank0
  4827  04A1  1303               	bcf	3,6	;RP1=0, select bank0
  4828  04A2  0868               	movf	?_log,w
  4829  04A3  1683               	bsf	3,5	;RP0=1, select bank1
  4830  04A4  1303               	bcf	3,6	;RP1=0, select bank1
  4831  04A5  00DC               	movwf	_logR2^(0+128)
  4832  04A6                     i1l3398:
  4833                           
  4834                           ;main_slave_p1.c: 94:             TC = (uint8_t)(273.15 - (1.0 / (A + B * logR2 + C * lo
      +                          gR2 * logR2 * logR2)));
  4835  04A6  1683               	bsf	3,5	;RP0=1, select bank3
  4836  04A7  1703               	bsf	3,6	;RP1=1, select bank3
  4837  04A8  0831               	movf	(_C+3)^(0+384),w
  4838  04A9  1283               	bcf	3,5	;RP0=0, select bank0
  4839  04AA  1303               	bcf	3,6	;RP1=0, select bank0
  4840  04AB  00C5               	movwf	___flmul@a+3
  4841  04AC  1683               	bsf	3,5	;RP0=1, select bank3
  4842  04AD  1703               	bsf	3,6	;RP1=1, select bank3
  4843  04AE  0830               	movf	(_C+2)^(0+384),w
  4844  04AF  1283               	bcf	3,5	;RP0=0, select bank0
  4845  04B0  1303               	bcf	3,6	;RP1=0, select bank0
  4846  04B1  00C4               	movwf	___flmul@a+2
  4847  04B2  1683               	bsf	3,5	;RP0=1, select bank3
  4848  04B3  1703               	bsf	3,6	;RP1=1, select bank3
  4849  04B4  082F               	movf	(_C+1)^(0+384),w
  4850  04B5  1283               	bcf	3,5	;RP0=0, select bank0
  4851  04B6  1303               	bcf	3,6	;RP1=0, select bank0
  4852  04B7  00C3               	movwf	___flmul@a+1
  4853  04B8  1683               	bsf	3,5	;RP0=1, select bank3
  4854  04B9  1703               	bsf	3,6	;RP1=1, select bank3
  4855  04BA  082E               	movf	_C^(0+384),w
  4856  04BB  1283               	bcf	3,5	;RP0=0, select bank0
  4857  04BC  1303               	bcf	3,6	;RP1=0, select bank0
  4858  04BD  00C2               	movwf	___flmul@a
  4859  04BE  1683               	bsf	3,5	;RP0=1, select bank1
  4860  04BF  1303               	bcf	3,6	;RP1=0, select bank1
  4861  04C0  085F               	movf	(_logR2+3)^(0+128),w
  4862  04C1  1283               	bcf	3,5	;RP0=0, select bank0
  4863  04C2  1303               	bcf	3,6	;RP1=0, select bank0
  4864  04C3  00C1               	movwf	___flmul@b+3
  4865  04C4  1683               	bsf	3,5	;RP0=1, select bank1
  4866  04C5  1303               	bcf	3,6	;RP1=0, select bank1
  4867  04C6  085E               	movf	(_logR2+2)^(0+128),w
  4868  04C7  1283               	bcf	3,5	;RP0=0, select bank0
  4869  04C8  1303               	bcf	3,6	;RP1=0, select bank0
  4870  04C9  00C0               	movwf	___flmul@b+2
  4871  04CA  1683               	bsf	3,5	;RP0=1, select bank1
  4872  04CB  1303               	bcf	3,6	;RP1=0, select bank1
  4873  04CC  085D               	movf	(_logR2+1)^(0+128),w
  4874  04CD  1283               	bcf	3,5	;RP0=0, select bank0
  4875  04CE  1303               	bcf	3,6	;RP1=0, select bank0
  4876  04CF  00BF               	movwf	___flmul@b+1
  4877  04D0  1683               	bsf	3,5	;RP0=1, select bank1
  4878  04D1  1303               	bcf	3,6	;RP1=0, select bank1
  4879  04D2  085C               	movf	_logR2^(0+128),w
  4880  04D3  1283               	bcf	3,5	;RP0=0, select bank0
  4881  04D4  1303               	bcf	3,6	;RP1=0, select bank0
  4882  04D5  00BE               	movwf	___flmul@b
  4883  04D6  120A  118A  204D  120A  118A  	fcall	___flmul
  4884  04DB  1283               	bcf	3,5	;RP0=0, select bank0
  4885  04DC  1303               	bcf	3,6	;RP1=0, select bank0
  4886  04DD  0841               	movf	?___flmul+3,w
  4887  04DE  1683               	bsf	3,5	;RP0=1, select bank1
  4888  04DF  1303               	bcf	3,6	;RP1=0, select bank1
  4889  04E0  00CB               	movwf	(_slave$1600+3)^(0+128)
  4890  04E1  1283               	bcf	3,5	;RP0=0, select bank0
  4891  04E2  1303               	bcf	3,6	;RP1=0, select bank0
  4892  04E3  0840               	movf	?___flmul+2,w
  4893  04E4  1683               	bsf	3,5	;RP0=1, select bank1
  4894  04E5  1303               	bcf	3,6	;RP1=0, select bank1
  4895  04E6  00CA               	movwf	(_slave$1600+2)^(0+128)
  4896  04E7  1283               	bcf	3,5	;RP0=0, select bank0
  4897  04E8  1303               	bcf	3,6	;RP1=0, select bank0
  4898  04E9  083F               	movf	?___flmul+1,w
  4899  04EA  1683               	bsf	3,5	;RP0=1, select bank1
  4900  04EB  1303               	bcf	3,6	;RP1=0, select bank1
  4901  04EC  00C9               	movwf	(_slave$1600+1)^(0+128)
  4902  04ED  1283               	bcf	3,5	;RP0=0, select bank0
  4903  04EE  1303               	bcf	3,6	;RP1=0, select bank0
  4904  04EF  083E               	movf	?___flmul,w
  4905  04F0  1683               	bsf	3,5	;RP0=1, select bank1
  4906  04F1  1303               	bcf	3,6	;RP1=0, select bank1
  4907  04F2  00C8               	movwf	_slave$1600^(0+128)
  4908  04F3                     i1l3400:
  4909                           
  4910                           ;main_slave_p1.c: 94:             TC = (uint8_t)(273.15 - (1.0 / (A + B * logR2 + C * lo
      +                          gR2 * logR2 * logR2)));
  4911  04F3  084B               	movf	(_slave$1600+3)^(0+128),w
  4912  04F4  1283               	bcf	3,5	;RP0=0, select bank0
  4913  04F5  1303               	bcf	3,6	;RP1=0, select bank0
  4914  04F6  00C5               	movwf	___flmul@a+3
  4915  04F7  1683               	bsf	3,5	;RP0=1, select bank1
  4916  04F8  1303               	bcf	3,6	;RP1=0, select bank1
  4917  04F9  084A               	movf	(_slave$1600+2)^(0+128),w
  4918  04FA  1283               	bcf	3,5	;RP0=0, select bank0
  4919  04FB  1303               	bcf	3,6	;RP1=0, select bank0
  4920  04FC  00C4               	movwf	___flmul@a+2
  4921  04FD  1683               	bsf	3,5	;RP0=1, select bank1
  4922  04FE  1303               	bcf	3,6	;RP1=0, select bank1
  4923  04FF  0849               	movf	(_slave$1600+1)^(0+128),w
  4924  0500  1283               	bcf	3,5	;RP0=0, select bank0
  4925  0501  1303               	bcf	3,6	;RP1=0, select bank0
  4926  0502  00C3               	movwf	___flmul@a+1
  4927  0503  1683               	bsf	3,5	;RP0=1, select bank1
  4928  0504  1303               	bcf	3,6	;RP1=0, select bank1
  4929  0505  0848               	movf	_slave$1600^(0+128),w
  4930  0506  1283               	bcf	3,5	;RP0=0, select bank0
  4931  0507  1303               	bcf	3,6	;RP1=0, select bank0
  4932  0508  00C2               	movwf	___flmul@a
  4933  0509  1683               	bsf	3,5	;RP0=1, select bank1
  4934  050A  1303               	bcf	3,6	;RP1=0, select bank1
  4935  050B  085F               	movf	(_logR2+3)^(0+128),w
  4936  050C  1283               	bcf	3,5	;RP0=0, select bank0
  4937  050D  1303               	bcf	3,6	;RP1=0, select bank0
  4938  050E  00C1               	movwf	___flmul@b+3
  4939  050F  1683               	bsf	3,5	;RP0=1, select bank1
  4940  0510  1303               	bcf	3,6	;RP1=0, select bank1
  4941  0511  085E               	movf	(_logR2+2)^(0+128),w
  4942  0512  1283               	bcf	3,5	;RP0=0, select bank0
  4943  0513  1303               	bcf	3,6	;RP1=0, select bank0
  4944  0514  00C0               	movwf	___flmul@b+2
  4945  0515  1683               	bsf	3,5	;RP0=1, select bank1
  4946  0516  1303               	bcf	3,6	;RP1=0, select bank1
  4947  0517  085D               	movf	(_logR2+1)^(0+128),w
  4948  0518  1283               	bcf	3,5	;RP0=0, select bank0
  4949  0519  1303               	bcf	3,6	;RP1=0, select bank0
  4950  051A  00BF               	movwf	___flmul@b+1
  4951  051B  1683               	bsf	3,5	;RP0=1, select bank1
  4952  051C  1303               	bcf	3,6	;RP1=0, select bank1
  4953  051D  085C               	movf	_logR2^(0+128),w
  4954  051E  1283               	bcf	3,5	;RP0=0, select bank0
  4955  051F  1303               	bcf	3,6	;RP1=0, select bank0
  4956  0520  00BE               	movwf	___flmul@b
  4957  0521  120A  118A  204D  120A  118A  	fcall	___flmul
  4958  0526  1283               	bcf	3,5	;RP0=0, select bank0
  4959  0527  1303               	bcf	3,6	;RP1=0, select bank0
  4960  0528  0841               	movf	?___flmul+3,w
  4961  0529  1683               	bsf	3,5	;RP0=1, select bank1
  4962  052A  1303               	bcf	3,6	;RP1=0, select bank1
  4963  052B  00CF               	movwf	(_slave$1601+3)^(0+128)
  4964  052C  1283               	bcf	3,5	;RP0=0, select bank0
  4965  052D  1303               	bcf	3,6	;RP1=0, select bank0
  4966  052E  0840               	movf	?___flmul+2,w
  4967  052F  1683               	bsf	3,5	;RP0=1, select bank1
  4968  0530  1303               	bcf	3,6	;RP1=0, select bank1
  4969  0531  00CE               	movwf	(_slave$1601+2)^(0+128)
  4970  0532  1283               	bcf	3,5	;RP0=0, select bank0
  4971  0533  1303               	bcf	3,6	;RP1=0, select bank0
  4972  0534  083F               	movf	?___flmul+1,w
  4973  0535  1683               	bsf	3,5	;RP0=1, select bank1
  4974  0536  1303               	bcf	3,6	;RP1=0, select bank1
  4975  0537  00CD               	movwf	(_slave$1601+1)^(0+128)
  4976  0538  1283               	bcf	3,5	;RP0=0, select bank0
  4977  0539  1303               	bcf	3,6	;RP1=0, select bank0
  4978  053A  083E               	movf	?___flmul,w
  4979  053B  1683               	bsf	3,5	;RP0=1, select bank1
  4980  053C  1303               	bcf	3,6	;RP1=0, select bank1
  4981  053D  00CC               	movwf	_slave$1601^(0+128)
  4982  053E                     i1l3402:
  4983                           
  4984                           ;main_slave_p1.c: 94:             TC = (uint8_t)(273.15 - (1.0 / (A + B * logR2 + C * lo
      +                          gR2 * logR2 * logR2)));
  4985  053E  086F               	movf	(_B+3)^(0+128),w
  4986  053F  1283               	bcf	3,5	;RP0=0, select bank0
  4987  0540  1303               	bcf	3,6	;RP1=0, select bank0
  4988  0541  00C5               	movwf	___flmul@a+3
  4989  0542  1683               	bsf	3,5	;RP0=1, select bank1
  4990  0543  1303               	bcf	3,6	;RP1=0, select bank1
  4991  0544  086E               	movf	(_B+2)^(0+128),w
  4992  0545  1283               	bcf	3,5	;RP0=0, select bank0
  4993  0546  1303               	bcf	3,6	;RP1=0, select bank0
  4994  0547  00C4               	movwf	___flmul@a+2
  4995  0548  1683               	bsf	3,5	;RP0=1, select bank1
  4996  0549  1303               	bcf	3,6	;RP1=0, select bank1
  4997  054A  086D               	movf	(_B+1)^(0+128),w
  4998  054B  1283               	bcf	3,5	;RP0=0, select bank0
  4999  054C  1303               	bcf	3,6	;RP1=0, select bank0
  5000  054D  00C3               	movwf	___flmul@a+1
  5001  054E  1683               	bsf	3,5	;RP0=1, select bank1
  5002  054F  1303               	bcf	3,6	;RP1=0, select bank1
  5003  0550  086C               	movf	_B^(0+128),w
  5004  0551  1283               	bcf	3,5	;RP0=0, select bank0
  5005  0552  1303               	bcf	3,6	;RP1=0, select bank0
  5006  0553  00C2               	movwf	___flmul@a
  5007  0554  1683               	bsf	3,5	;RP0=1, select bank1
  5008  0555  1303               	bcf	3,6	;RP1=0, select bank1
  5009  0556  085F               	movf	(_logR2+3)^(0+128),w
  5010  0557  1283               	bcf	3,5	;RP0=0, select bank0
  5011  0558  1303               	bcf	3,6	;RP1=0, select bank0
  5012  0559  00C1               	movwf	___flmul@b+3
  5013  055A  1683               	bsf	3,5	;RP0=1, select bank1
  5014  055B  1303               	bcf	3,6	;RP1=0, select bank1
  5015  055C  085E               	movf	(_logR2+2)^(0+128),w
  5016  055D  1283               	bcf	3,5	;RP0=0, select bank0
  5017  055E  1303               	bcf	3,6	;RP1=0, select bank0
  5018  055F  00C0               	movwf	___flmul@b+2
  5019  0560  1683               	bsf	3,5	;RP0=1, select bank1
  5020  0561  1303               	bcf	3,6	;RP1=0, select bank1
  5021  0562  085D               	movf	(_logR2+1)^(0+128),w
  5022  0563  1283               	bcf	3,5	;RP0=0, select bank0
  5023  0564  1303               	bcf	3,6	;RP1=0, select bank0
  5024  0565  00BF               	movwf	___flmul@b+1
  5025  0566  1683               	bsf	3,5	;RP0=1, select bank1
  5026  0567  1303               	bcf	3,6	;RP1=0, select bank1
  5027  0568  085C               	movf	_logR2^(0+128),w
  5028  0569  1283               	bcf	3,5	;RP0=0, select bank0
  5029  056A  1303               	bcf	3,6	;RP1=0, select bank0
  5030  056B  00BE               	movwf	___flmul@b
  5031  056C  120A  118A  204D  120A  118A  	fcall	___flmul
  5032  0571  1283               	bcf	3,5	;RP0=0, select bank0
  5033  0572  1303               	bcf	3,6	;RP1=0, select bank0
  5034  0573  0841               	movf	?___flmul+3,w
  5035  0574  00B1               	movwf	___fladd@a+3
  5036  0575  0840               	movf	?___flmul+2,w
  5037  0576  00B0               	movwf	___fladd@a+2
  5038  0577  083F               	movf	?___flmul+1,w
  5039  0578  00AF               	movwf	___fladd@a+1
  5040  0579  083E               	movf	?___flmul,w
  5041  057A  00AE               	movwf	___fladd@a
  5042  057B  1683               	bsf	3,5	;RP0=1, select bank1
  5043  057C  1303               	bcf	3,6	;RP1=0, select bank1
  5044  057D  0867               	movf	(_A+3)^(0+128),w
  5045  057E  1283               	bcf	3,5	;RP0=0, select bank0
  5046  057F  1303               	bcf	3,6	;RP1=0, select bank0
  5047  0580  00AD               	movwf	___fladd@b+3
  5048  0581  1683               	bsf	3,5	;RP0=1, select bank1
  5049  0582  1303               	bcf	3,6	;RP1=0, select bank1
  5050  0583  0866               	movf	(_A+2)^(0+128),w
  5051  0584  1283               	bcf	3,5	;RP0=0, select bank0
  5052  0585  1303               	bcf	3,6	;RP1=0, select bank0
  5053  0586  00AC               	movwf	___fladd@b+2
  5054  0587  1683               	bsf	3,5	;RP0=1, select bank1
  5055  0588  1303               	bcf	3,6	;RP1=0, select bank1
  5056  0589  0865               	movf	(_A+1)^(0+128),w
  5057  058A  1283               	bcf	3,5	;RP0=0, select bank0
  5058  058B  1303               	bcf	3,6	;RP1=0, select bank0
  5059  058C  00AB               	movwf	___fladd@b+1
  5060  058D  1683               	bsf	3,5	;RP0=1, select bank1
  5061  058E  1303               	bcf	3,6	;RP1=0, select bank1
  5062  058F  0864               	movf	_A^(0+128),w
  5063  0590  1283               	bcf	3,5	;RP0=0, select bank0
  5064  0591  1303               	bcf	3,6	;RP1=0, select bank0
  5065  0592  00AA               	movwf	___fladd@b
  5066  0593  120A  158A  22D8  120A  118A  	fcall	___fladd
  5067  0598  1283               	bcf	3,5	;RP0=0, select bank0
  5068  0599  1303               	bcf	3,6	;RP1=0, select bank0
  5069  059A  082D               	movf	?___fladd+3,w
  5070  059B  1683               	bsf	3,5	;RP0=1, select bank1
  5071  059C  1303               	bcf	3,6	;RP1=0, select bank1
  5072  059D  00D3               	movwf	(_slave$1602+3)^(0+128)
  5073  059E  1283               	bcf	3,5	;RP0=0, select bank0
  5074  059F  1303               	bcf	3,6	;RP1=0, select bank0
  5075  05A0  082C               	movf	?___fladd+2,w
  5076  05A1  1683               	bsf	3,5	;RP0=1, select bank1
  5077  05A2  1303               	bcf	3,6	;RP1=0, select bank1
  5078  05A3  00D2               	movwf	(_slave$1602+2)^(0+128)
  5079  05A4  1283               	bcf	3,5	;RP0=0, select bank0
  5080  05A5  1303               	bcf	3,6	;RP1=0, select bank0
  5081  05A6  082B               	movf	?___fladd+1,w
  5082  05A7  1683               	bsf	3,5	;RP0=1, select bank1
  5083  05A8  1303               	bcf	3,6	;RP1=0, select bank1
  5084  05A9  00D1               	movwf	(_slave$1602+1)^(0+128)
  5085  05AA  1283               	bcf	3,5	;RP0=0, select bank0
  5086  05AB  1303               	bcf	3,6	;RP1=0, select bank0
  5087  05AC  082A               	movf	?___fladd,w
  5088  05AD  1683               	bsf	3,5	;RP0=1, select bank1
  5089  05AE  1303               	bcf	3,6	;RP1=0, select bank1
  5090  05AF  00D0               	movwf	_slave$1602^(0+128)
  5091  05B0                     i1l3404:
  5092                           
  5093                           ;main_slave_p1.c: 94:             TC = (uint8_t)(273.15 - (1.0 / (A + B * logR2 + C * lo
      +                          gR2 * logR2 * logR2)));
  5094  05B0  303F               	movlw	63
  5095  05B1  1283               	bcf	3,5	;RP0=0, select bank0
  5096  05B2  1303               	bcf	3,6	;RP1=0, select bank0
  5097  05B3  00DF               	movwf	___fldiv@b+3
  5098  05B4  3080               	movlw	128
  5099  05B5  00DE               	movwf	___fldiv@b+2
  5100  05B6  3000               	movlw	0
  5101  05B7  00DD               	movwf	___fldiv@b+1
  5102  05B8  3000               	movlw	0
  5103  05B9  00DC               	movwf	___fldiv@b
  5104  05BA  1683               	bsf	3,5	;RP0=1, select bank1
  5105  05BB  1303               	bcf	3,6	;RP1=0, select bank1
  5106  05BC  0853               	movf	(_slave$1602+3)^(0+128),w
  5107  05BD  1283               	bcf	3,5	;RP0=0, select bank0
  5108  05BE  1303               	bcf	3,6	;RP1=0, select bank0
  5109  05BF  00B1               	movwf	___fladd@a+3
  5110  05C0  1683               	bsf	3,5	;RP0=1, select bank1
  5111  05C1  1303               	bcf	3,6	;RP1=0, select bank1
  5112  05C2  0852               	movf	(_slave$1602+2)^(0+128),w
  5113  05C3  1283               	bcf	3,5	;RP0=0, select bank0
  5114  05C4  1303               	bcf	3,6	;RP1=0, select bank0
  5115  05C5  00B0               	movwf	___fladd@a+2
  5116  05C6  1683               	bsf	3,5	;RP0=1, select bank1
  5117  05C7  1303               	bcf	3,6	;RP1=0, select bank1
  5118  05C8  0851               	movf	(_slave$1602+1)^(0+128),w
  5119  05C9  1283               	bcf	3,5	;RP0=0, select bank0
  5120  05CA  1303               	bcf	3,6	;RP1=0, select bank0
  5121  05CB  00AF               	movwf	___fladd@a+1
  5122  05CC  1683               	bsf	3,5	;RP0=1, select bank1
  5123  05CD  1303               	bcf	3,6	;RP1=0, select bank1
  5124  05CE  0850               	movf	_slave$1602^(0+128),w
  5125  05CF  1283               	bcf	3,5	;RP0=0, select bank0
  5126  05D0  1303               	bcf	3,6	;RP1=0, select bank0
  5127  05D1  00AE               	movwf	___fladd@a
  5128  05D2  1683               	bsf	3,5	;RP0=1, select bank1
  5129  05D3  1303               	bcf	3,6	;RP1=0, select bank1
  5130  05D4  084F               	movf	(_slave$1601+3)^(0+128),w
  5131  05D5  1283               	bcf	3,5	;RP0=0, select bank0
  5132  05D6  1303               	bcf	3,6	;RP1=0, select bank0
  5133  05D7  00C5               	movwf	___flmul@a+3
  5134  05D8  1683               	bsf	3,5	;RP0=1, select bank1
  5135  05D9  1303               	bcf	3,6	;RP1=0, select bank1
  5136  05DA  084E               	movf	(_slave$1601+2)^(0+128),w
  5137  05DB  1283               	bcf	3,5	;RP0=0, select bank0
  5138  05DC  1303               	bcf	3,6	;RP1=0, select bank0
  5139  05DD  00C4               	movwf	___flmul@a+2
  5140  05DE  1683               	bsf	3,5	;RP0=1, select bank1
  5141  05DF  1303               	bcf	3,6	;RP1=0, select bank1
  5142  05E0  084D               	movf	(_slave$1601+1)^(0+128),w
  5143  05E1  1283               	bcf	3,5	;RP0=0, select bank0
  5144  05E2  1303               	bcf	3,6	;RP1=0, select bank0
  5145  05E3  00C3               	movwf	___flmul@a+1
  5146  05E4  1683               	bsf	3,5	;RP0=1, select bank1
  5147  05E5  1303               	bcf	3,6	;RP1=0, select bank1
  5148  05E6  084C               	movf	_slave$1601^(0+128),w
  5149  05E7  1283               	bcf	3,5	;RP0=0, select bank0
  5150  05E8  1303               	bcf	3,6	;RP1=0, select bank0
  5151  05E9  00C2               	movwf	___flmul@a
  5152  05EA  1683               	bsf	3,5	;RP0=1, select bank1
  5153  05EB  1303               	bcf	3,6	;RP1=0, select bank1
  5154  05EC  085F               	movf	(_logR2+3)^(0+128),w
  5155  05ED  1283               	bcf	3,5	;RP0=0, select bank0
  5156  05EE  1303               	bcf	3,6	;RP1=0, select bank0
  5157  05EF  00C1               	movwf	___flmul@b+3
  5158  05F0  1683               	bsf	3,5	;RP0=1, select bank1
  5159  05F1  1303               	bcf	3,6	;RP1=0, select bank1
  5160  05F2  085E               	movf	(_logR2+2)^(0+128),w
  5161  05F3  1283               	bcf	3,5	;RP0=0, select bank0
  5162  05F4  1303               	bcf	3,6	;RP1=0, select bank0
  5163  05F5  00C0               	movwf	___flmul@b+2
  5164  05F6  1683               	bsf	3,5	;RP0=1, select bank1
  5165  05F7  1303               	bcf	3,6	;RP1=0, select bank1
  5166  05F8  085D               	movf	(_logR2+1)^(0+128),w
  5167  05F9  1283               	bcf	3,5	;RP0=0, select bank0
  5168  05FA  1303               	bcf	3,6	;RP1=0, select bank0
  5169  05FB  00BF               	movwf	___flmul@b+1
  5170  05FC  1683               	bsf	3,5	;RP0=1, select bank1
  5171  05FD  1303               	bcf	3,6	;RP1=0, select bank1
  5172  05FE  085C               	movf	_logR2^(0+128),w
  5173  05FF  1283               	bcf	3,5	;RP0=0, select bank0
  5174  0600  1303               	bcf	3,6	;RP1=0, select bank0
  5175  0601  00BE               	movwf	___flmul@b
  5176  0602  120A  118A  204D  120A  118A  	fcall	___flmul
  5177  0607  1283               	bcf	3,5	;RP0=0, select bank0
  5178  0608  1303               	bcf	3,6	;RP1=0, select bank0
  5179  0609  0841               	movf	?___flmul+3,w
  5180  060A  00AD               	movwf	___fladd@b+3
  5181  060B  0840               	movf	?___flmul+2,w
  5182  060C  00AC               	movwf	___fladd@b+2
  5183  060D  083F               	movf	?___flmul+1,w
  5184  060E  00AB               	movwf	___fladd@b+1
  5185  060F  083E               	movf	?___flmul,w
  5186  0610  00AA               	movwf	___fladd@b
  5187  0611  120A  158A  22D8  120A  118A  	fcall	___fladd
  5188  0616  1283               	bcf	3,5	;RP0=0, select bank0
  5189  0617  1303               	bcf	3,6	;RP1=0, select bank0
  5190  0618  082D               	movf	?___fladd+3,w
  5191  0619  00DB               	movwf	___fldiv@a+3
  5192  061A  082C               	movf	?___fladd+2,w
  5193  061B  00DA               	movwf	___fldiv@a+2
  5194  061C  082B               	movf	?___fladd+1,w
  5195  061D  00D9               	movwf	___fldiv@a+1
  5196  061E  082A               	movf	?___fladd,w
  5197  061F  00D8               	movwf	___fldiv@a
  5198  0620  120A  158A  2560  120A  118A  	fcall	___fldiv
  5199  0625  1283               	bcf	3,5	;RP0=0, select bank0
  5200  0626  1303               	bcf	3,6	;RP1=0, select bank0
  5201  0627  085B               	movf	?___fldiv+3,w
  5202  0628  1683               	bsf	3,5	;RP0=1, select bank1
  5203  0629  1303               	bcf	3,6	;RP1=0, select bank1
  5204  062A  00D7               	movwf	(_slave$1603+3)^(0+128)
  5205  062B  1283               	bcf	3,5	;RP0=0, select bank0
  5206  062C  1303               	bcf	3,6	;RP1=0, select bank0
  5207  062D  085A               	movf	?___fldiv+2,w
  5208  062E  1683               	bsf	3,5	;RP0=1, select bank1
  5209  062F  1303               	bcf	3,6	;RP1=0, select bank1
  5210  0630  00D6               	movwf	(_slave$1603+2)^(0+128)
  5211  0631  1283               	bcf	3,5	;RP0=0, select bank0
  5212  0632  1303               	bcf	3,6	;RP1=0, select bank0
  5213  0633  0859               	movf	?___fldiv+1,w
  5214  0634  1683               	bsf	3,5	;RP0=1, select bank1
  5215  0635  1303               	bcf	3,6	;RP1=0, select bank1
  5216  0636  00D5               	movwf	(_slave$1603+1)^(0+128)
  5217  0637  1283               	bcf	3,5	;RP0=0, select bank0
  5218  0638  1303               	bcf	3,6	;RP1=0, select bank0
  5219  0639  0858               	movf	?___fldiv,w
  5220  063A  1683               	bsf	3,5	;RP0=1, select bank1
  5221  063B  1303               	bcf	3,6	;RP1=0, select bank1
  5222  063C  00D4               	movwf	_slave$1603^(0+128)
  5223  063D                     i1l3406:
  5224                           
  5225                           ;main_slave_p1.c: 94:             TC = (uint8_t)(273.15 - (1.0 / (A + B * logR2 + C * lo
      +                          gR2 * logR2 * logR2)));
  5226  063D  3043               	movlw	67
  5227  063E  1283               	bcf	3,5	;RP0=0, select bank0
  5228  063F  1303               	bcf	3,6	;RP1=0, select bank0
  5229  0640  00EC               	movwf	___flsub@b+3
  5230  0641  3088               	movlw	136
  5231  0642  00EB               	movwf	___flsub@b+2
  5232  0643  3093               	movlw	147
  5233  0644  00EA               	movwf	___flsub@b+1
  5234  0645  3033               	movlw	51
  5235  0646  00E9               	movwf	___flsub@b
  5236  0647  1683               	bsf	3,5	;RP0=1, select bank1
  5237  0648  1303               	bcf	3,6	;RP1=0, select bank1
  5238  0649  0857               	movf	(_slave$1603+3)^(0+128),w
  5239  064A  1283               	bcf	3,5	;RP0=0, select bank0
  5240  064B  1303               	bcf	3,6	;RP1=0, select bank0
  5241  064C  00E8               	movwf	___flsub@a+3
  5242  064D  1683               	bsf	3,5	;RP0=1, select bank1
  5243  064E  1303               	bcf	3,6	;RP1=0, select bank1
  5244  064F  0856               	movf	(_slave$1603+2)^(0+128),w
  5245  0650  1283               	bcf	3,5	;RP0=0, select bank0
  5246  0651  1303               	bcf	3,6	;RP1=0, select bank0
  5247  0652  00E7               	movwf	___flsub@a+2
  5248  0653  1683               	bsf	3,5	;RP0=1, select bank1
  5249  0654  1303               	bcf	3,6	;RP1=0, select bank1
  5250  0655  0855               	movf	(_slave$1603+1)^(0+128),w
  5251  0656  1283               	bcf	3,5	;RP0=0, select bank0
  5252  0657  1303               	bcf	3,6	;RP1=0, select bank0
  5253  0658  00E6               	movwf	___flsub@a+1
  5254  0659  1683               	bsf	3,5	;RP0=1, select bank1
  5255  065A  1303               	bcf	3,6	;RP1=0, select bank1
  5256  065B  0854               	movf	_slave$1603^(0+128),w
  5257  065C  1283               	bcf	3,5	;RP0=0, select bank0
  5258  065D  1303               	bcf	3,6	;RP1=0, select bank0
  5259  065E  00E5               	movwf	___flsub@a
  5260  065F  160A  118A  2184  120A  118A  	fcall	___flsub
  5261  0664  1283               	bcf	3,5	;RP0=0, select bank0
  5262  0665  1303               	bcf	3,6	;RP1=0, select bank0
  5263  0666  0868               	movf	?___flsub+3,w
  5264  0667  1683               	bsf	3,5	;RP0=1, select bank1
  5265  0668  1303               	bcf	3,6	;RP1=0, select bank1
  5266  0669  00B0               	movwf	(i1___fltol@f1+3)^(0+128)
  5267  066A  1283               	bcf	3,5	;RP0=0, select bank0
  5268  066B  1303               	bcf	3,6	;RP1=0, select bank0
  5269  066C  0867               	movf	?___flsub+2,w
  5270  066D  1683               	bsf	3,5	;RP0=1, select bank1
  5271  066E  1303               	bcf	3,6	;RP1=0, select bank1
  5272  066F  00AF               	movwf	(i1___fltol@f1+2)^(0+128)
  5273  0670  1283               	bcf	3,5	;RP0=0, select bank0
  5274  0671  1303               	bcf	3,6	;RP1=0, select bank0
  5275  0672  0866               	movf	?___flsub+1,w
  5276  0673  1683               	bsf	3,5	;RP0=1, select bank1
  5277  0674  1303               	bcf	3,6	;RP1=0, select bank1
  5278  0675  00AE               	movwf	(i1___fltol@f1+1)^(0+128)
  5279  0676  1283               	bcf	3,5	;RP0=0, select bank0
  5280  0677  1303               	bcf	3,6	;RP1=0, select bank0
  5281  0678  0865               	movf	?___flsub,w
  5282  0679  1683               	bsf	3,5	;RP0=1, select bank1
  5283  067A  1303               	bcf	3,6	;RP1=0, select bank1
  5284  067B  00AD               	movwf	i1___fltol@f1^(0+128)
  5285  067C  160A  118A  2638  120A  118A  	fcall	i1___fltol
  5286  0681  1683               	bsf	3,5	;RP0=1, select bank1
  5287  0682  1303               	bcf	3,6	;RP1=0, select bank1
  5288  0683  082D               	movf	?i1___fltol^(0+128),w
  5289  0684  00C0               	movwf	??_slave^(0+128)
  5290  0685  01C1               	clrf	(??_slave^(0+128)+1)
  5291  0686  01C2               	clrf	(??_slave^(0+128)+2)
  5292  0687  01C3               	clrf	(??_slave^(0+128)+3)
  5293  0688  0843               	movf	(??_slave+3)^(0+128),w
  5294  0689  00FC               	movwf	___xxtofl@val+3
  5295  068A  0842               	movf	(??_slave+2)^(0+128),w
  5296  068B  00FB               	movwf	___xxtofl@val+2
  5297  068C  0841               	movf	(??_slave+1)^(0+128),w
  5298  068D  00FA               	movwf	___xxtofl@val+1
  5299  068E  0840               	movf	??_slave^(0+128),w
  5300  068F  00F9               	movwf	___xxtofl@val
  5301  0690  3000               	movlw	0
  5302  0691  120A  158A  221C  120A  118A  	fcall	___xxtofl
  5303  0696  087C               	movf	?___xxtofl+3,w
  5304  0697  1683               	bsf	3,5	;RP0=1, select bank3
  5305  0698  1703               	bsf	3,6	;RP1=1, select bank3
  5306  0699  00BB               	movwf	(_TC+3)^(0+384)
  5307  069A  087B               	movf	?___xxtofl+2,w
  5308  069B  00BA               	movwf	(_TC+2)^(0+384)
  5309  069C  087A               	movf	?___xxtofl+1,w
  5310  069D  00B9               	movwf	(_TC+1)^(0+384)
  5311  069E  0879               	movf	?___xxtofl,w
  5312  069F  00B8               	movwf	_TC^(0+384)
  5313  06A0                     i1l3408:
  5314                           
  5315                           ;main_slave_p1.c: 96:         PIR1bits.ADIF = 0;
  5316  06A0  1283               	bcf	3,5	;RP0=0, select bank0
  5317  06A1  1303               	bcf	3,6	;RP1=0, select bank0
  5318  06A2  130C               	bcf	12,6	;volatile
  5319  06A3                     i1l110:
  5320  06A3  1683               	bsf	3,5	;RP0=1, select bank1
  5321  06A4  1303               	bcf	3,6	;RP1=0, select bank1
  5322  06A5  0847               	movf	(??_slave+7)^(0+128),w
  5323  06A6  00FF               	movwf	btemp+1
  5324  06A7  0846               	movf	(??_slave+6)^(0+128),w
  5325  06A8  008A               	movwf	10
  5326  06A9  0845               	movf	(??_slave+5)^(0+128),w
  5327  06AA  0084               	movwf	4
  5328  06AB  0E44               	swapf	(??_slave+4)^(0+128),w
  5329  06AC  0083               	movwf	3
  5330  06AD  0EFE               	swapf	btemp,f
  5331  06AE  0E7E               	swapf	btemp,w
  5332  06AF  0009               	retfie
  5333  06B0                     __end_of_slave:
  5334                           
  5335                           	psect	intentry
  5336  0004                     __pintentry:	
  5337                           ;incstack = 0
  5338                           ; Regs used in _slave: [wreg-fsr0h+status,2+status,0+btemp+1+pclath+cstack]
  5339                           
  5340  0004                     interrupt_function:
  5341  007E                     saved_w	set	btemp
  5342  0004  00FE               	movwf	btemp
  5343  0005  0E03               	swapf	3,w
  5344  0006  1683               	bsf	3,5	;RP0=1, select bank1
  5345  0007  1303               	bcf	3,6	;RP1=0, select bank1
  5346  0008  00C4               	movwf	(??_slave+4)^(0+128)
  5347  0009  0804               	movf	4,w
  5348  000A  00C5               	movwf	(??_slave+5)^(0+128)
  5349  000B  080A               	movf	10,w
  5350  000C  00C6               	movwf	(??_slave+6)^(0+128)
  5351  000D  087F               	movf	btemp+1,w
  5352  000E  00C7               	movwf	(??_slave+7)^(0+128)
  5353  000F  120A  118A  2BAE   	ljmp	_slave
  5354                           
  5355                           	psect	text24
  5356  0963                     __ptext24:	
  5357 ;; *************** function _map *****************
  5358 ;; Defined at:
  5359 ;;		line 120 in file "main_slave_p1.c"
  5360 ;; Parameters:    Size  Location     Type
  5361 ;;  x               2   22[BANK1 ] unsigned int 
  5362 ;;  x0              2   24[BANK1 ] unsigned int 
  5363 ;;  x1              2   26[BANK1 ] unsigned int 
  5364 ;;  y0              2   28[BANK1 ] short 
  5365 ;;  y1              2   30[BANK1 ] short 
  5366 ;; Auto vars:     Size  Location     Type
  5367 ;;		None
  5368 ;; Return value:  Size  Location     Type
  5369 ;;                  2   22[BANK1 ] short 
  5370 ;; Registers used:
  5371 ;;		wreg, status,2, status,0, btemp+1, pclath, cstack
  5372 ;; Tracked objects:
  5373 ;;		On entry : 0/0
  5374 ;;		On exit  : 0/0
  5375 ;;		Unchanged: 0/0
  5376 ;; Data sizes:     COMMON   BANK0   BANK1   BANK3   BANK2
  5377 ;;      Params:         0       0      10       0       0
  5378 ;;      Locals:         0       0       0       0       0
  5379 ;;      Temps:          0       0       0       0       0
  5380 ;;      Totals:         0       0      10       0       0
  5381 ;;Total ram usage:       10 bytes
  5382 ;; Hardware stack levels used: 1
  5383 ;; Hardware stack levels required when called: 2
  5384 ;; This function calls:
  5385 ;;		___fladd
  5386 ;;		___fldiv
  5387 ;;		___flmul
  5388 ;;		___xxtofl
  5389 ;;		i1___fltol
  5390 ;; This function is called by:
  5391 ;;		_slave
  5392 ;; This function uses a non-reentrant model
  5393 ;;
  5394                           
  5395  0963                     _map:	
  5396                           ;psect for function _map
  5397                           
  5398  0963                     i1l3142:	
  5399                           ;incstack = 0
  5400                           ; Regs used in _map: [wreg+status,2+status,0+btemp+1+pclath+cstack]
  5401                           
  5402                           
  5403                           ;main_slave_p1.c: 120: short map(uint16_t x, uint16_t x0, uint16_t x1,;main_slave_p1.c: 
      +                          121:           short y0, short y1){;main_slave_p1.c: 122:     return (short)(y0+((float)
      +                          (y1-y0)/(x1-x0))*(x-x0));
  5404  0963  1683               	bsf	3,5	;RP0=1, select bank1
  5405  0964  1303               	bcf	3,6	;RP1=0, select bank1
  5406  0965  083C               	movf	map@y0^(0+128),w
  5407  0966  00F9               	movwf	___xxtofl@val
  5408  0967  083D               	movf	(map@y0+1)^(0+128),w
  5409  0968  00FA               	movwf	___xxtofl@val+1
  5410  0969  3000               	movlw	0
  5411  096A  1BFA               	btfsc	___xxtofl@val+1,7
  5412  096B  30FF               	movlw	255
  5413  096C  00FB               	movwf	___xxtofl@val+2
  5414  096D  00FC               	movwf	___xxtofl@val+3
  5415  096E  3001               	movlw	1
  5416  096F  120A  158A  221C  120A  158A  	fcall	___xxtofl
  5417  0974  087C               	movf	?___xxtofl+3,w
  5418  0975  1283               	bcf	3,5	;RP0=0, select bank0
  5419  0976  1303               	bcf	3,6	;RP1=0, select bank0
  5420  0977  00B1               	movwf	___fladd@a+3
  5421  0978  087B               	movf	?___xxtofl+2,w
  5422  0979  00B0               	movwf	___fladd@a+2
  5423  097A  087A               	movf	?___xxtofl+1,w
  5424  097B  00AF               	movwf	___fladd@a+1
  5425  097C  0879               	movf	?___xxtofl,w
  5426  097D  00AE               	movwf	___fladd@a
  5427  097E  1683               	bsf	3,5	;RP0=1, select bank1
  5428  097F  1303               	bcf	3,6	;RP1=0, select bank1
  5429  0980  083C               	movf	map@y0^(0+128),w
  5430  0981  023E               	subwf	map@y1^(0+128),w
  5431  0982  00F9               	movwf	___xxtofl@val
  5432  0983  083D               	movf	(map@y0+1)^(0+128),w
  5433  0984  1C03               	skipc
  5434  0985  0A3D               	incf	(map@y0+1)^(0+128),w
  5435  0986  023F               	subwf	(map@y1+1)^(0+128),w
  5436  0987  00FA               	movwf	___xxtofl@val+1
  5437  0988  01FB               	clrf	___xxtofl@val+2
  5438  0989  1BFA               	btfsc	___xxtofl@val+1,7
  5439  098A  03FB               	decf	___xxtofl@val+2,f
  5440  098B  087B               	movf	___xxtofl@val+2,w
  5441  098C  00FC               	movwf	___xxtofl@val+3
  5442  098D  3001               	movlw	1
  5443  098E  120A  158A  221C  120A  158A  	fcall	___xxtofl
  5444  0993  087C               	movf	?___xxtofl+3,w
  5445  0994  1283               	bcf	3,5	;RP0=0, select bank0
  5446  0995  1303               	bcf	3,6	;RP1=0, select bank0
  5447  0996  00DF               	movwf	___fldiv@b+3
  5448  0997  087B               	movf	?___xxtofl+2,w
  5449  0998  00DE               	movwf	___fldiv@b+2
  5450  0999  087A               	movf	?___xxtofl+1,w
  5451  099A  00DD               	movwf	___fldiv@b+1
  5452  099B  0879               	movf	?___xxtofl,w
  5453  099C  00DC               	movwf	___fldiv@b
  5454  099D  1683               	bsf	3,5	;RP0=1, select bank1
  5455  099E  1303               	bcf	3,6	;RP1=0, select bank1
  5456  099F  0838               	movf	map@x0^(0+128),w
  5457  09A0  023A               	subwf	map@x1^(0+128),w
  5458  09A1  00F9               	movwf	___xxtofl@val
  5459  09A2  0839               	movf	(map@x0+1)^(0+128),w
  5460  09A3  1C03               	skipc
  5461  09A4  0A39               	incf	(map@x0+1)^(0+128),w
  5462  09A5  023B               	subwf	(map@x1+1)^(0+128),w
  5463  09A6  00FA               	movwf	___xxtofl@val+1
  5464  09A7  01FB               	clrf	___xxtofl@val+2
  5465  09A8  01FC               	clrf	___xxtofl@val+3
  5466  09A9  3000               	movlw	0
  5467  09AA  120A  158A  221C  120A  158A  	fcall	___xxtofl
  5468  09AF  087C               	movf	?___xxtofl+3,w
  5469  09B0  1283               	bcf	3,5	;RP0=0, select bank0
  5470  09B1  1303               	bcf	3,6	;RP1=0, select bank0
  5471  09B2  00DB               	movwf	___fldiv@a+3
  5472  09B3  087B               	movf	?___xxtofl+2,w
  5473  09B4  00DA               	movwf	___fldiv@a+2
  5474  09B5  087A               	movf	?___xxtofl+1,w
  5475  09B6  00D9               	movwf	___fldiv@a+1
  5476  09B7  0879               	movf	?___xxtofl,w
  5477  09B8  00D8               	movwf	___fldiv@a
  5478  09B9  120A  158A  2560  120A  158A  	fcall	___fldiv
  5479  09BE  1283               	bcf	3,5	;RP0=0, select bank0
  5480  09BF  1303               	bcf	3,6	;RP1=0, select bank0
  5481  09C0  085B               	movf	?___fldiv+3,w
  5482  09C1  00C5               	movwf	___flmul@a+3
  5483  09C2  085A               	movf	?___fldiv+2,w
  5484  09C3  00C4               	movwf	___flmul@a+2
  5485  09C4  0859               	movf	?___fldiv+1,w
  5486  09C5  00C3               	movwf	___flmul@a+1
  5487  09C6  0858               	movf	?___fldiv,w
  5488  09C7  00C2               	movwf	___flmul@a
  5489  09C8  1683               	bsf	3,5	;RP0=1, select bank1
  5490  09C9  1303               	bcf	3,6	;RP1=0, select bank1
  5491  09CA  0838               	movf	map@x0^(0+128),w
  5492  09CB  0236               	subwf	map@x^(0+128),w
  5493  09CC  00F9               	movwf	___xxtofl@val
  5494  09CD  0839               	movf	(map@x0+1)^(0+128),w
  5495  09CE  1C03               	skipc
  5496  09CF  0A39               	incf	(map@x0+1)^(0+128),w
  5497  09D0  0237               	subwf	(map@x+1)^(0+128),w
  5498  09D1  00FA               	movwf	___xxtofl@val+1
  5499  09D2  01FB               	clrf	___xxtofl@val+2
  5500  09D3  01FC               	clrf	___xxtofl@val+3
  5501  09D4  3000               	movlw	0
  5502  09D5  120A  158A  221C  120A  158A  	fcall	___xxtofl
  5503  09DA  087C               	movf	?___xxtofl+3,w
  5504  09DB  1283               	bcf	3,5	;RP0=0, select bank0
  5505  09DC  1303               	bcf	3,6	;RP1=0, select bank0
  5506  09DD  00C1               	movwf	___flmul@b+3
  5507  09DE  087B               	movf	?___xxtofl+2,w
  5508  09DF  00C0               	movwf	___flmul@b+2
  5509  09E0  087A               	movf	?___xxtofl+1,w
  5510  09E1  00BF               	movwf	___flmul@b+1
  5511  09E2  0879               	movf	?___xxtofl,w
  5512  09E3  00BE               	movwf	___flmul@b
  5513  09E4  120A  118A  204D  120A  158A  	fcall	___flmul
  5514  09E9  1283               	bcf	3,5	;RP0=0, select bank0
  5515  09EA  1303               	bcf	3,6	;RP1=0, select bank0
  5516  09EB  0841               	movf	?___flmul+3,w
  5517  09EC  00AD               	movwf	___fladd@b+3
  5518  09ED  0840               	movf	?___flmul+2,w
  5519  09EE  00AC               	movwf	___fladd@b+2
  5520  09EF  083F               	movf	?___flmul+1,w
  5521  09F0  00AB               	movwf	___fladd@b+1
  5522  09F1  083E               	movf	?___flmul,w
  5523  09F2  00AA               	movwf	___fladd@b
  5524  09F3  120A  158A  22D8  120A  158A  	fcall	___fladd
  5525  09F8  1283               	bcf	3,5	;RP0=0, select bank0
  5526  09F9  1303               	bcf	3,6	;RP1=0, select bank0
  5527  09FA  082D               	movf	?___fladd+3,w
  5528  09FB  1683               	bsf	3,5	;RP0=1, select bank1
  5529  09FC  1303               	bcf	3,6	;RP1=0, select bank1
  5530  09FD  00B0               	movwf	(i1___fltol@f1+3)^(0+128)
  5531  09FE  1283               	bcf	3,5	;RP0=0, select bank0
  5532  09FF  1303               	bcf	3,6	;RP1=0, select bank0
  5533  0A00  082C               	movf	?___fladd+2,w
  5534  0A01  1683               	bsf	3,5	;RP0=1, select bank1
  5535  0A02  1303               	bcf	3,6	;RP1=0, select bank1
  5536  0A03  00AF               	movwf	(i1___fltol@f1+2)^(0+128)
  5537  0A04  1283               	bcf	3,5	;RP0=0, select bank0
  5538  0A05  1303               	bcf	3,6	;RP1=0, select bank0
  5539  0A06  082B               	movf	?___fladd+1,w
  5540  0A07  1683               	bsf	3,5	;RP0=1, select bank1
  5541  0A08  1303               	bcf	3,6	;RP1=0, select bank1
  5542  0A09  00AE               	movwf	(i1___fltol@f1+1)^(0+128)
  5543  0A0A  1283               	bcf	3,5	;RP0=0, select bank0
  5544  0A0B  1303               	bcf	3,6	;RP1=0, select bank0
  5545  0A0C  082A               	movf	?___fladd,w
  5546  0A0D  1683               	bsf	3,5	;RP0=1, select bank1
  5547  0A0E  1303               	bcf	3,6	;RP1=0, select bank1
  5548  0A0F  00AD               	movwf	i1___fltol@f1^(0+128)
  5549  0A10  160A  118A  2638  120A  158A  	fcall	i1___fltol
  5550  0A15  1683               	bsf	3,5	;RP0=1, select bank1
  5551  0A16  1303               	bcf	3,6	;RP1=0, select bank1
  5552  0A17  082E               	movf	(?i1___fltol+1)^(0+128),w
  5553  0A18  00B7               	movwf	(?_map+1)^(0+128)
  5554  0A19  082D               	movf	?i1___fltol^(0+128),w
  5555  0A1A  00B6               	movwf	?_map^(0+128)
  5556  0A1B                     i1l121:
  5557  0A1B  0008               	return
  5558  0A1C                     __end_of_map:
  5559                           
  5560                           	psect	text25
  5561  1638                     __ptext25:	
  5562 ;; *************** function i1___fltol *****************
  5563 ;; Defined at:
  5564 ;;		line 43 in file "C:\Program Files\Microchip\xc8\v2.35\pic\sources\c90\common\fltol.c"
  5565 ;; Parameters:    Size  Location     Type
  5566 ;;  f1              4   13[BANK1 ] short 
  5567 ;; Auto vars:     Size  Location     Type
  5568 ;;  exp1            1   78[BANK0 ] unsigned char 
  5569 ;;  sign1           1   77[BANK0 ] unsigned char 
  5570 ;; Return value:  Size  Location     Type
  5571 ;;                  4   13[BANK1 ] long 
  5572 ;; Registers used:
  5573 ;;		wreg, status,2, status,0
  5574 ;; Tracked objects:
  5575 ;;		On entry : 0/0
  5576 ;;		On exit  : 0/0
  5577 ;;		Unchanged: 0/0
  5578 ;; Data sizes:     COMMON   BANK0   BANK1   BANK3   BANK2
  5579 ;;      Params:         0       0       4       0       0
  5580 ;;      Locals:         0       2       0       0       0
  5581 ;;      Temps:          0       0       5       0       0
  5582 ;;      Totals:         0       2       9       0       0
  5583 ;;Total ram usage:       11 bytes
  5584 ;; Hardware stack levels used: 1
  5585 ;; This function calls:
  5586 ;;		Nothing
  5587 ;; This function is called by:
  5588 ;;		_slave
  5589 ;;		_map
  5590 ;; This function uses a non-reentrant model
  5591 ;;
  5592                           
  5593  1638                     i1___fltol:	
  5594                           ;psect for function i1___fltol
  5595                           
  5596  1638                     i1l3100:	
  5597                           ;incstack = 0
  5598                           ; Regs used in i1___fltol: [wreg+status,2+status,0]
  5599                           
  5600  1638  1003               	clrc
  5601  1639  1683               	bsf	3,5	;RP0=1, select bank1
  5602  163A  1303               	bcf	3,6	;RP1=0, select bank1
  5603  163B  0D2F               	rlf	(i1___fltol@f1+2)^(0+128),w
  5604  163C  0D30               	rlf	(i1___fltol@f1+3)^(0+128),w
  5605  163D  00B1               	movwf	??i1___fltol^(0+128)
  5606  163E  0831               	movf	??i1___fltol^(0+128),w
  5607  163F  1283               	bcf	3,5	;RP0=0, select bank0
  5608  1640  1303               	bcf	3,6	;RP1=0, select bank0
  5609  1641  00EE               	movwf	i1___fltol@exp1
  5610  1642  086E               	movf	i1___fltol@exp1,w
  5611  1643  1D03               	btfss	3,2
  5612  1644  2E46               	goto	u377_21
  5613  1645  2E47               	goto	u377_20
  5614  1646                     u377_21:
  5615  1646  2E52               	goto	i1l3106
  5616  1647                     u377_20:
  5617  1647                     i1l3102:
  5618  1647  3000               	movlw	0
  5619  1648  1683               	bsf	3,5	;RP0=1, select bank1
  5620  1649  1303               	bcf	3,6	;RP1=0, select bank1
  5621  164A  00B0               	movwf	(?i1___fltol+3)^(0+128)
  5622  164B  3000               	movlw	0
  5623  164C  00AF               	movwf	(?i1___fltol+2)^(0+128)
  5624  164D  3000               	movlw	0
  5625  164E  00AE               	movwf	(?i1___fltol+1)^(0+128)
  5626  164F  3000               	movlw	0
  5627  1650  00AD               	movwf	?i1___fltol^(0+128)
  5628  1651  2EC9               	goto	i1l588
  5629  1652                     i1l3106:
  5630  1652  1683               	bsf	3,5	;RP0=1, select bank1
  5631  1653  1303               	bcf	3,6	;RP1=0, select bank1
  5632  1654  082D               	movf	i1___fltol@f1^(0+128),w
  5633  1655  00B1               	movwf	??i1___fltol^(0+128)
  5634  1656  082E               	movf	(i1___fltol@f1+1)^(0+128),w
  5635  1657  00B2               	movwf	(??i1___fltol^(0+128)+1)
  5636  1658  082F               	movf	(i1___fltol@f1+2)^(0+128),w
  5637  1659  00B3               	movwf	(??i1___fltol^(0+128)+2)
  5638  165A  0830               	movf	(i1___fltol@f1+3)^(0+128),w
  5639  165B  00B4               	movwf	(??i1___fltol^(0+128)+3)
  5640  165C  301F               	movlw	31
  5641  165D                     u378_25:
  5642  165D  1003               	clrc
  5643  165E  0CB4               	rrf	(??i1___fltol^(0+128)+3),f
  5644  165F  0CB3               	rrf	(??i1___fltol^(0+128)+2),f
  5645  1660  0CB2               	rrf	(??i1___fltol^(0+128)+1),f
  5646  1661  0CB1               	rrf	??i1___fltol^(0+128),f
  5647  1662                     u378_20:
  5648  1662  3EFF               	addlw	-1
  5649  1663  1D03               	skipz
  5650  1664  2E5D               	goto	u378_25
  5651  1665  0831               	movf	??i1___fltol^(0+128),w
  5652  1666  00B5               	movwf	(??i1___fltol+4)^(0+128)
  5653  1667  0835               	movf	(??i1___fltol+4)^(0+128),w
  5654  1668  1283               	bcf	3,5	;RP0=0, select bank0
  5655  1669  1303               	bcf	3,6	;RP1=0, select bank0
  5656  166A  00ED               	movwf	i1___fltol@sign1
  5657  166B                     i1l3108:
  5658  166B  1683               	bsf	3,5	;RP0=1, select bank1
  5659  166C  1303               	bcf	3,6	;RP1=0, select bank1
  5660  166D  17AF               	bsf	(i1___fltol@f1^(0+128)+2),7
  5661  166E                     i1l3110:
  5662  166E  30FF               	movlw	255
  5663  166F  05AD               	andwf	i1___fltol@f1^(0+128),f
  5664  1670  30FF               	movlw	255
  5665  1671  05AE               	andwf	(i1___fltol@f1+1)^(0+128),f
  5666  1672  30FF               	movlw	255
  5667  1673  05AF               	andwf	(i1___fltol@f1+2)^(0+128),f
  5668  1674  3000               	movlw	0
  5669  1675  05B0               	andwf	(i1___fltol@f1+3)^(0+128),f
  5670  1676                     i1l3112:
  5671  1676  3096               	movlw	150
  5672  1677  1283               	bcf	3,5	;RP0=0, select bank0
  5673  1678  1303               	bcf	3,6	;RP1=0, select bank0
  5674  1679  02EE               	subwf	i1___fltol@exp1,f
  5675  167A                     i1l3114:
  5676  167A  1FEE               	btfss	i1___fltol@exp1,7
  5677  167B  2E7D               	goto	u379_21
  5678  167C  2E7E               	goto	u379_20
  5679  167D                     u379_21:
  5680  167D  2E9C               	goto	i1l3124
  5681  167E                     u379_20:
  5682  167E                     i1l3116:
  5683  167E  086E               	movf	i1___fltol@exp1,w
  5684  167F  3A80               	xorlw	128
  5685  1680  3E97               	addlw	151
  5686  1681  1803               	skipnc
  5687  1682  2E84               	goto	u380_21
  5688  1683  2E85               	goto	u380_20
  5689  1684                     u380_21:
  5690  1684  2E86               	goto	i1l3122
  5691  1685                     u380_20:
  5692  1685  2E47               	goto	i1l3102
  5693  1686                     i1l3122:
  5694  1686  3001               	movlw	1
  5695  1687                     u381_25:
  5696  1687  1003               	clrc
  5697  1688  1683               	bsf	3,5	;RP0=1, select bank1
  5698  1689  1303               	bcf	3,6	;RP1=0, select bank1
  5699  168A  0CB0               	rrf	(i1___fltol@f1+3)^(0+128),f
  5700  168B  0CAF               	rrf	(i1___fltol@f1+2)^(0+128),f
  5701  168C  0CAE               	rrf	(i1___fltol@f1+1)^(0+128),f
  5702  168D  0CAD               	rrf	i1___fltol@f1^(0+128),f
  5703  168E  3EFF               	addlw	-1
  5704  168F  1D03               	skipz
  5705  1690  2E87               	goto	u381_25
  5706  1691  3001               	movlw	1
  5707  1692  00B1               	movwf	??i1___fltol^(0+128)
  5708  1693  0831               	movf	??i1___fltol^(0+128),w
  5709  1694  1283               	bcf	3,5	;RP0=0, select bank0
  5710  1695  1303               	bcf	3,6	;RP1=0, select bank0
  5711  1696  07EE               	addwf	i1___fltol@exp1,f
  5712  1697  1D03               	btfss	3,2
  5713  1698  2E9A               	goto	u382_21
  5714  1699  2E9B               	goto	u382_20
  5715  169A                     u382_21:
  5716  169A  2E86               	goto	i1l3122
  5717  169B                     u382_20:
  5718  169B  2EB7               	goto	i1l3132
  5719  169C                     i1l3124:
  5720  169C  3020               	movlw	32
  5721  169D  026E               	subwf	i1___fltol@exp1,w
  5722  169E  1C03               	skipc
  5723  169F  2EA1               	goto	u383_21
  5724  16A0  2EA2               	goto	u383_20
  5725  16A1                     u383_21:
  5726  16A1  2EB2               	goto	i1l595
  5727  16A2                     u383_20:
  5728  16A2  2E47               	goto	i1l3102
  5729  16A3                     i1l3130:
  5730  16A3  3001               	movlw	1
  5731  16A4  1683               	bsf	3,5	;RP0=1, select bank1
  5732  16A5  1303               	bcf	3,6	;RP1=0, select bank1
  5733  16A6  00B1               	movwf	??i1___fltol^(0+128)
  5734  16A7                     u384_25:
  5735  16A7  1003               	clrc
  5736  16A8  0DAD               	rlf	i1___fltol@f1^(0+128),f
  5737  16A9  0DAE               	rlf	(i1___fltol@f1+1)^(0+128),f
  5738  16AA  0DAF               	rlf	(i1___fltol@f1+2)^(0+128),f
  5739  16AB  0DB0               	rlf	(i1___fltol@f1+3)^(0+128),f
  5740  16AC  0BB1               	decfsz	??i1___fltol^(0+128),f
  5741  16AD  2EA7               	goto	u384_25
  5742  16AE  3001               	movlw	1
  5743  16AF  1283               	bcf	3,5	;RP0=0, select bank0
  5744  16B0  1303               	bcf	3,6	;RP1=0, select bank0
  5745  16B1  02EE               	subwf	i1___fltol@exp1,f
  5746  16B2                     i1l595:
  5747  16B2  086E               	movf	i1___fltol@exp1,w
  5748  16B3  1D03               	btfss	3,2
  5749  16B4  2EB6               	goto	u385_21
  5750  16B5  2EB7               	goto	u385_20
  5751  16B6                     u385_21:
  5752  16B6  2EA3               	goto	i1l3130
  5753  16B7                     u385_20:
  5754  16B7                     i1l3132:
  5755  16B7  086D               	movf	i1___fltol@sign1,w
  5756  16B8  1903               	btfsc	3,2
  5757  16B9  2EBB               	goto	u386_21
  5758  16BA  2EBC               	goto	u386_20
  5759  16BB                     u386_21:
  5760  16BB  2EC9               	goto	i1l598
  5761  16BC                     u386_20:
  5762  16BC                     i1l3134:
  5763  16BC  1683               	bsf	3,5	;RP0=1, select bank1
  5764  16BD  1303               	bcf	3,6	;RP1=0, select bank1
  5765  16BE  09AD               	comf	i1___fltol@f1^(0+128),f
  5766  16BF  09AE               	comf	(i1___fltol@f1+1)^(0+128),f
  5767  16C0  09AF               	comf	(i1___fltol@f1+2)^(0+128),f
  5768  16C1  09B0               	comf	(i1___fltol@f1+3)^(0+128),f
  5769  16C2  0AAD               	incf	i1___fltol@f1^(0+128),f
  5770  16C3  1903               	skipnz
  5771  16C4  0AAE               	incf	(i1___fltol@f1+1)^(0+128),f
  5772  16C5  1903               	skipnz
  5773  16C6  0AAF               	incf	(i1___fltol@f1+2)^(0+128),f
  5774  16C7  1903               	skipnz
  5775  16C8  0AB0               	incf	(i1___fltol@f1+3)^(0+128),f
  5776  16C9                     i1l598:
  5777  16C9                     i1l588:
  5778  16C9  0008               	return
  5779  16CA                     __end_ofi1___fltol:
  5780                           
  5781                           	psect	text26
  5782  0D60                     __ptext26:	
  5783 ;; *************** function ___fldiv *****************
  5784 ;; Defined at:
  5785 ;;		line 8 in file "C:\Program Files\Microchip\xc8\v2.35\pic\sources\c90\common\sprcdiv.c"
  5786 ;; Parameters:    Size  Location     Type
  5787 ;;  a               4   56[BANK0 ] long 
  5788 ;;  b               4   60[BANK0 ] long 
  5789 ;; Auto vars:     Size  Location     Type
  5790 ;;  grs             4    7[BANK1 ] unsigned long 
  5791 ;;  rem             4    0[BANK1 ] unsigned long 
  5792 ;;  new_exp         2    5[BANK1 ] int 
  5793 ;;  aexp            1   12[BANK1 ] unsigned char 
  5794 ;;  bexp            1   11[BANK1 ] unsigned char 
  5795 ;;  sign            1    4[BANK1 ] unsigned char 
  5796 ;; Return value:  Size  Location     Type
  5797 ;;                  4   56[BANK0 ] unsigned char 
  5798 ;; Registers used:
  5799 ;;		wreg, status,2, status,0, btemp+1
  5800 ;; Tracked objects:
  5801 ;;		On entry : 0/0
  5802 ;;		On exit  : 0/0
  5803 ;;		Unchanged: 0/0
  5804 ;; Data sizes:     COMMON   BANK0   BANK1   BANK3   BANK2
  5805 ;;      Params:         0       8       0       0       0
  5806 ;;      Locals:         0       0      13       0       0
  5807 ;;      Temps:          0       5       0       0       0
  5808 ;;      Totals:         0      13      13       0       0
  5809 ;;Total ram usage:       26 bytes
  5810 ;; Hardware stack levels used: 1
  5811 ;; This function calls:
  5812 ;;		Nothing
  5813 ;; This function is called by:
  5814 ;;		_slave
  5815 ;;		_map
  5816 ;; This function uses a non-reentrant model
  5817 ;;
  5818                           
  5819  0D60                     ___fldiv:	
  5820                           ;psect for function ___fldiv
  5821                           
  5822  0D60                     i1l2884:	
  5823                           ;incstack = 0
  5824                           ; Regs used in ___fldiv: [wreg+status,2+status,0+btemp+1]
  5825                           
  5826  0D60  1283               	bcf	3,5	;RP0=0, select bank0
  5827  0D61  1303               	bcf	3,6	;RP1=0, select bank0
  5828  0D62  085F               	movf	___fldiv@b+3,w
  5829  0D63  3980               	andlw	128
  5830  0D64  00E0               	movwf	??___fldiv
  5831  0D65  0860               	movf	??___fldiv,w
  5832  0D66  1683               	bsf	3,5	;RP0=1, select bank1
  5833  0D67  1303               	bcf	3,6	;RP1=0, select bank1
  5834  0D68  00A4               	movwf	___fldiv@sign^(0+128)
  5835  0D69                     i1l2886:
  5836  0D69  1283               	bcf	3,5	;RP0=0, select bank0
  5837  0D6A  1303               	bcf	3,6	;RP1=0, select bank0
  5838  0D6B  085F               	movf	___fldiv@b+3,w
  5839  0D6C  00E0               	movwf	??___fldiv
  5840  0D6D  0760               	addwf	??___fldiv,w
  5841  0D6E  00E1               	movwf	??___fldiv+1
  5842  0D6F  0861               	movf	??___fldiv+1,w
  5843  0D70  1683               	bsf	3,5	;RP0=1, select bank1
  5844  0D71  1303               	bcf	3,6	;RP1=0, select bank1
  5845  0D72  00AB               	movwf	___fldiv@bexp^(0+128)
  5846  0D73                     i1l2888:
  5847  0D73  1283               	bcf	3,5	;RP0=0, select bank0
  5848  0D74  1303               	bcf	3,6	;RP1=0, select bank0
  5849  0D75  1FDE               	btfss	___fldiv@b+2,7
  5850  0D76  2D78               	goto	u329_21
  5851  0D77  2D79               	goto	u329_20
  5852  0D78                     u329_21:
  5853  0D78  2D7C               	goto	i1l2892
  5854  0D79                     u329_20:
  5855  0D79                     i1l2890:
  5856  0D79  1683               	bsf	3,5	;RP0=1, select bank1
  5857  0D7A  1303               	bcf	3,6	;RP1=0, select bank1
  5858  0D7B  142B               	bsf	___fldiv@bexp^(0+128),0
  5859  0D7C                     i1l2892:
  5860  0D7C  1683               	bsf	3,5	;RP0=1, select bank1
  5861  0D7D  1303               	bcf	3,6	;RP1=0, select bank1
  5862  0D7E  082B               	movf	___fldiv@bexp^(0+128),w
  5863  0D7F  1903               	btfsc	3,2
  5864  0D80  2D82               	goto	u330_21
  5865  0D81  2D83               	goto	u330_20
  5866  0D82                     u330_21:
  5867  0D82  2D96               	goto	i1l2902
  5868  0D83                     u330_20:
  5869  0D83                     i1l2894:
  5870  0D83  0A2B               	incf	___fldiv@bexp^(0+128),w
  5871  0D84  1D03               	btfss	3,2
  5872  0D85  2D87               	goto	u331_21
  5873  0D86  2D88               	goto	u331_20
  5874  0D87                     u331_21:
  5875  0D87  2D92               	goto	i1l2898
  5876  0D88                     u331_20:
  5877  0D88                     i1l2896:
  5878  0D88  3000               	movlw	0
  5879  0D89  1283               	bcf	3,5	;RP0=0, select bank0
  5880  0D8A  1303               	bcf	3,6	;RP1=0, select bank0
  5881  0D8B  00DF               	movwf	___fldiv@b+3
  5882  0D8C  3000               	movlw	0
  5883  0D8D  00DE               	movwf	___fldiv@b+2
  5884  0D8E  3000               	movlw	0
  5885  0D8F  00DD               	movwf	___fldiv@b+1
  5886  0D90  3000               	movlw	0
  5887  0D91  00DC               	movwf	___fldiv@b
  5888  0D92                     i1l2898:
  5889  0D92  1283               	bcf	3,5	;RP0=0, select bank0
  5890  0D93  17DE               	bsf	___fldiv@b+2,7
  5891  0D94                     i1l2900:
  5892  0D94  01DF               	clrf	___fldiv@b+3
  5893  0D95  2DA0               	goto	i1l2904
  5894  0D96                     i1l2902:
  5895  0D96  3000               	movlw	0
  5896  0D97  1283               	bcf	3,5	;RP0=0, select bank0
  5897  0D98  1303               	bcf	3,6	;RP1=0, select bank0
  5898  0D99  00DF               	movwf	___fldiv@b+3
  5899  0D9A  3000               	movlw	0
  5900  0D9B  00DE               	movwf	___fldiv@b+2
  5901  0D9C  3000               	movlw	0
  5902  0D9D  00DD               	movwf	___fldiv@b+1
  5903  0D9E  3000               	movlw	0
  5904  0D9F  00DC               	movwf	___fldiv@b
  5905  0DA0                     i1l2904:
  5906  0DA0  085B               	movf	___fldiv@a+3,w
  5907  0DA1  3980               	andlw	128
  5908  0DA2  00E0               	movwf	??___fldiv
  5909  0DA3  0860               	movf	??___fldiv,w
  5910  0DA4  1683               	bsf	3,5	;RP0=1, select bank1
  5911  0DA5  1303               	bcf	3,6	;RP1=0, select bank1
  5912  0DA6  06A4               	xorwf	___fldiv@sign^(0+128),f
  5913  0DA7                     i1l2906:
  5914  0DA7  1283               	bcf	3,5	;RP0=0, select bank0
  5915  0DA8  1303               	bcf	3,6	;RP1=0, select bank0
  5916  0DA9  085B               	movf	___fldiv@a+3,w
  5917  0DAA  00E0               	movwf	??___fldiv
  5918  0DAB  0760               	addwf	??___fldiv,w
  5919  0DAC  00E1               	movwf	??___fldiv+1
  5920  0DAD  0861               	movf	??___fldiv+1,w
  5921  0DAE  1683               	bsf	3,5	;RP0=1, select bank1
  5922  0DAF  1303               	bcf	3,6	;RP1=0, select bank1
  5923  0DB0  00AC               	movwf	___fldiv@aexp^(0+128)
  5924  0DB1                     i1l2908:
  5925  0DB1  1283               	bcf	3,5	;RP0=0, select bank0
  5926  0DB2  1303               	bcf	3,6	;RP1=0, select bank0
  5927  0DB3  1FDA               	btfss	___fldiv@a+2,7
  5928  0DB4  2DB6               	goto	u332_21
  5929  0DB5  2DB7               	goto	u332_20
  5930  0DB6                     u332_21:
  5931  0DB6  2DBA               	goto	i1l2912
  5932  0DB7                     u332_20:
  5933  0DB7                     i1l2910:
  5934  0DB7  1683               	bsf	3,5	;RP0=1, select bank1
  5935  0DB8  1303               	bcf	3,6	;RP1=0, select bank1
  5936  0DB9  142C               	bsf	___fldiv@aexp^(0+128),0
  5937  0DBA                     i1l2912:
  5938  0DBA  1683               	bsf	3,5	;RP0=1, select bank1
  5939  0DBB  1303               	bcf	3,6	;RP1=0, select bank1
  5940  0DBC  082C               	movf	___fldiv@aexp^(0+128),w
  5941  0DBD  1903               	btfsc	3,2
  5942  0DBE  2DC0               	goto	u333_21
  5943  0DBF  2DC1               	goto	u333_20
  5944  0DC0                     u333_21:
  5945  0DC0  2DD4               	goto	i1l2922
  5946  0DC1                     u333_20:
  5947  0DC1                     i1l2914:
  5948  0DC1  0A2C               	incf	___fldiv@aexp^(0+128),w
  5949  0DC2  1D03               	btfss	3,2
  5950  0DC3  2DC5               	goto	u334_21
  5951  0DC4  2DC6               	goto	u334_20
  5952  0DC5                     u334_21:
  5953  0DC5  2DD0               	goto	i1l2918
  5954  0DC6                     u334_20:
  5955  0DC6                     i1l2916:
  5956  0DC6  3000               	movlw	0
  5957  0DC7  1283               	bcf	3,5	;RP0=0, select bank0
  5958  0DC8  1303               	bcf	3,6	;RP1=0, select bank0
  5959  0DC9  00DB               	movwf	___fldiv@a+3
  5960  0DCA  3000               	movlw	0
  5961  0DCB  00DA               	movwf	___fldiv@a+2
  5962  0DCC  3000               	movlw	0
  5963  0DCD  00D9               	movwf	___fldiv@a+1
  5964  0DCE  3000               	movlw	0
  5965  0DCF  00D8               	movwf	___fldiv@a
  5966  0DD0                     i1l2918:
  5967  0DD0  1283               	bcf	3,5	;RP0=0, select bank0
  5968  0DD1  17DA               	bsf	___fldiv@a+2,7
  5969  0DD2                     i1l2920:
  5970  0DD2  01DB               	clrf	___fldiv@a+3
  5971  0DD3  2DDE               	goto	i1l751
  5972  0DD4                     i1l2922:
  5973  0DD4  3000               	movlw	0
  5974  0DD5  1283               	bcf	3,5	;RP0=0, select bank0
  5975  0DD6  1303               	bcf	3,6	;RP1=0, select bank0
  5976  0DD7  00DB               	movwf	___fldiv@a+3
  5977  0DD8  3000               	movlw	0
  5978  0DD9  00DA               	movwf	___fldiv@a+2
  5979  0DDA  3000               	movlw	0
  5980  0DDB  00D9               	movwf	___fldiv@a+1
  5981  0DDC  3000               	movlw	0
  5982  0DDD  00D8               	movwf	___fldiv@a
  5983  0DDE                     i1l751:
  5984  0DDE  085B               	movf	___fldiv@a+3,w
  5985  0DDF  045A               	iorwf	___fldiv@a+2,w
  5986  0DE0  0459               	iorwf	___fldiv@a+1,w
  5987  0DE1  0458               	iorwf	___fldiv@a,w
  5988  0DE2  1D03               	skipz
  5989  0DE3  2DE5               	goto	u335_21
  5990  0DE4  2DE6               	goto	u335_20
  5991  0DE5                     u335_21:
  5992  0DE5  2E03               	goto	i1l2932
  5993  0DE6                     u335_20:
  5994  0DE6                     i1l2924:
  5995  0DE6  3000               	movlw	0
  5996  0DE7  00DF               	movwf	___fldiv@b+3
  5997  0DE8  3000               	movlw	0
  5998  0DE9  00DE               	movwf	___fldiv@b+2
  5999  0DEA  3000               	movlw	0
  6000  0DEB  00DD               	movwf	___fldiv@b+1
  6001  0DEC  3000               	movlw	0
  6002  0DED  00DC               	movwf	___fldiv@b
  6003  0DEE  3080               	movlw	128
  6004  0DEF  04DE               	iorwf	___fldiv@b+2,f
  6005  0DF0  307F               	movlw	127
  6006  0DF1  04DF               	iorwf	___fldiv@b+3,f
  6007  0DF2                     i1l2926:
  6008  0DF2  1683               	bsf	3,5	;RP0=1, select bank1
  6009  0DF3  1303               	bcf	3,6	;RP1=0, select bank1
  6010  0DF4  0824               	movf	___fldiv@sign^(0+128),w
  6011  0DF5  1283               	bcf	3,5	;RP0=0, select bank0
  6012  0DF6  1303               	bcf	3,6	;RP1=0, select bank0
  6013  0DF7  00E0               	movwf	??___fldiv
  6014  0DF8  0860               	movf	??___fldiv,w
  6015  0DF9  04DF               	iorwf	___fldiv@b+3,f
  6016  0DFA                     i1l2928:
  6017  0DFA  085F               	movf	___fldiv@b+3,w
  6018  0DFB  00DB               	movwf	?___fldiv+3
  6019  0DFC  085E               	movf	___fldiv@b+2,w
  6020  0DFD  00DA               	movwf	?___fldiv+2
  6021  0DFE  085D               	movf	___fldiv@b+1,w
  6022  0DFF  00D9               	movwf	?___fldiv+1
  6023  0E00  085C               	movf	___fldiv@b,w
  6024  0E01  00D8               	movwf	?___fldiv
  6025  0E02  2FFF               	goto	i1l753
  6026  0E03                     i1l2932:
  6027  0E03  1683               	bsf	3,5	;RP0=1, select bank1
  6028  0E04  1303               	bcf	3,6	;RP1=0, select bank1
  6029  0E05  082B               	movf	___fldiv@bexp^(0+128),w
  6030  0E06  1D03               	btfss	3,2
  6031  0E07  2E09               	goto	u336_21
  6032  0E08  2E0A               	goto	u336_20
  6033  0E09                     u336_21:
  6034  0E09  2E15               	goto	i1l2938
  6035  0E0A                     u336_20:
  6036  0E0A                     i1l2934:
  6037  0E0A  3000               	movlw	0
  6038  0E0B  1283               	bcf	3,5	;RP0=0, select bank0
  6039  0E0C  1303               	bcf	3,6	;RP1=0, select bank0
  6040  0E0D  00DB               	movwf	?___fldiv+3
  6041  0E0E  3000               	movlw	0
  6042  0E0F  00DA               	movwf	?___fldiv+2
  6043  0E10  3000               	movlw	0
  6044  0E11  00D9               	movwf	?___fldiv+1
  6045  0E12  3000               	movlw	0
  6046  0E13  00D8               	movwf	?___fldiv
  6047  0E14  2FFF               	goto	i1l753
  6048  0E15                     i1l2938:
  6049  0E15  082B               	movf	___fldiv@bexp^(0+128),w
  6050  0E16  1283               	bcf	3,5	;RP0=0, select bank0
  6051  0E17  1303               	bcf	3,6	;RP1=0, select bank0
  6052  0E18  00E0               	movwf	??___fldiv
  6053  0E19  01E1               	clrf	??___fldiv+1
  6054  0E1A  0861               	movf	??___fldiv+1,w
  6055  0E1B  00E3               	movwf	??___fldiv+3
  6056  0E1C  1683               	bsf	3,5	;RP0=1, select bank1
  6057  0E1D  1303               	bcf	3,6	;RP1=0, select bank1
  6058  0E1E  082C               	movf	___fldiv@aexp^(0+128),w
  6059  0E1F  1283               	bcf	3,5	;RP0=0, select bank0
  6060  0E20  1303               	bcf	3,6	;RP1=0, select bank0
  6061  0E21  0260               	subwf	??___fldiv,w
  6062  0E22  00E2               	movwf	??___fldiv+2
  6063  0E23  1C03               	skipc
  6064  0E24  03E3               	decf	??___fldiv+3,f
  6065  0E25  0862               	movf	??___fldiv+2,w
  6066  0E26  3E7F               	addlw	127
  6067  0E27  1683               	bsf	3,5	;RP0=1, select bank1
  6068  0E28  1303               	bcf	3,6	;RP1=0, select bank1
  6069  0E29  00A5               	movwf	___fldiv@new_exp^(0+128)
  6070  0E2A  1283               	bcf	3,5	;RP0=0, select bank0
  6071  0E2B  1303               	bcf	3,6	;RP1=0, select bank0
  6072  0E2C  0863               	movf	??___fldiv+3,w
  6073  0E2D  1803               	skipnc
  6074  0E2E  3E01               	addlw	1
  6075  0E2F  3E00               	addlw	0
  6076  0E30  1683               	bsf	3,5	;RP0=1, select bank1
  6077  0E31  1303               	bcf	3,6	;RP1=0, select bank1
  6078  0E32  00A6               	movwf	(___fldiv@new_exp+1)^(0+128)
  6079  0E33                     i1l2940:
  6080  0E33  1283               	bcf	3,5	;RP0=0, select bank0
  6081  0E34  1303               	bcf	3,6	;RP1=0, select bank0
  6082  0E35  085F               	movf	___fldiv@b+3,w
  6083  0E36  1683               	bsf	3,5	;RP0=1, select bank1
  6084  0E37  1303               	bcf	3,6	;RP1=0, select bank1
  6085  0E38  00A3               	movwf	(___fldiv@rem+3)^(0+128)
  6086  0E39  1283               	bcf	3,5	;RP0=0, select bank0
  6087  0E3A  1303               	bcf	3,6	;RP1=0, select bank0
  6088  0E3B  085E               	movf	___fldiv@b+2,w
  6089  0E3C  1683               	bsf	3,5	;RP0=1, select bank1
  6090  0E3D  1303               	bcf	3,6	;RP1=0, select bank1
  6091  0E3E  00A2               	movwf	(___fldiv@rem+2)^(0+128)
  6092  0E3F  1283               	bcf	3,5	;RP0=0, select bank0
  6093  0E40  1303               	bcf	3,6	;RP1=0, select bank0
  6094  0E41  085D               	movf	___fldiv@b+1,w
  6095  0E42  1683               	bsf	3,5	;RP0=1, select bank1
  6096  0E43  1303               	bcf	3,6	;RP1=0, select bank1
  6097  0E44  00A1               	movwf	(___fldiv@rem+1)^(0+128)
  6098  0E45  1283               	bcf	3,5	;RP0=0, select bank0
  6099  0E46  1303               	bcf	3,6	;RP1=0, select bank0
  6100  0E47  085C               	movf	___fldiv@b,w
  6101  0E48  1683               	bsf	3,5	;RP0=1, select bank1
  6102  0E49  1303               	bcf	3,6	;RP1=0, select bank1
  6103  0E4A  00A0               	movwf	___fldiv@rem^(0+128)
  6104  0E4B                     i1l2942:
  6105  0E4B  3000               	movlw	0
  6106  0E4C  1283               	bcf	3,5	;RP0=0, select bank0
  6107  0E4D  1303               	bcf	3,6	;RP1=0, select bank0
  6108  0E4E  00DF               	movwf	___fldiv@b+3
  6109  0E4F  3000               	movlw	0
  6110  0E50  00DE               	movwf	___fldiv@b+2
  6111  0E51  3000               	movlw	0
  6112  0E52  00DD               	movwf	___fldiv@b+1
  6113  0E53  3000               	movlw	0
  6114  0E54  00DC               	movwf	___fldiv@b
  6115  0E55                     i1l2944:
  6116  0E55  3000               	movlw	0
  6117  0E56  1683               	bsf	3,5	;RP0=1, select bank1
  6118  0E57  1303               	bcf	3,6	;RP1=0, select bank1
  6119  0E58  00AA               	movwf	(___fldiv@grs+3)^(0+128)
  6120  0E59  3000               	movlw	0
  6121  0E5A  00A9               	movwf	(___fldiv@grs+2)^(0+128)
  6122  0E5B  3000               	movlw	0
  6123  0E5C  00A8               	movwf	(___fldiv@grs+1)^(0+128)
  6124  0E5D  3000               	movlw	0
  6125  0E5E  00A7               	movwf	___fldiv@grs^(0+128)
  6126  0E5F                     i1l2946:
  6127  0E5F  01AC               	clrf	___fldiv@aexp^(0+128)
  6128  0E60  2EE7               	goto	i1l2966
  6129  0E61                     i1l2948:
  6130  0E61  082C               	movf	___fldiv@aexp^(0+128),w
  6131  0E62  1903               	btfsc	3,2
  6132  0E63  2E65               	goto	u337_21
  6133  0E64  2E66               	goto	u337_20
  6134  0E65                     u337_21:
  6135  0E65  2E95               	goto	i1l2958
  6136  0E66                     u337_20:
  6137  0E66                     i1l2950:
  6138  0E66  3001               	movlw	1
  6139  0E67  1283               	bcf	3,5	;RP0=0, select bank0
  6140  0E68  1303               	bcf	3,6	;RP1=0, select bank0
  6141  0E69  00E0               	movwf	??___fldiv
  6142  0E6A                     u338_25:
  6143  0E6A  1003               	clrc
  6144  0E6B  1683               	bsf	3,5	;RP0=1, select bank1
  6145  0E6C  1303               	bcf	3,6	;RP1=0, select bank1
  6146  0E6D  0DA0               	rlf	___fldiv@rem^(0+128),f
  6147  0E6E  0DA1               	rlf	(___fldiv@rem+1)^(0+128),f
  6148  0E6F  0DA2               	rlf	(___fldiv@rem+2)^(0+128),f
  6149  0E70  0DA3               	rlf	(___fldiv@rem+3)^(0+128),f
  6150  0E71  1283               	bcf	3,5	;RP0=0, select bank0
  6151  0E72  1303               	bcf	3,6	;RP1=0, select bank0
  6152  0E73  0BE0               	decfsz	??___fldiv,f
  6153  0E74  2E6A               	goto	u338_25
  6154  0E75  3001               	movlw	1
  6155  0E76  00E0               	movwf	??___fldiv
  6156  0E77                     u339_25:
  6157  0E77  1003               	clrc
  6158  0E78  0DDC               	rlf	___fldiv@b,f
  6159  0E79  0DDD               	rlf	___fldiv@b+1,f
  6160  0E7A  0DDE               	rlf	___fldiv@b+2,f
  6161  0E7B  0DDF               	rlf	___fldiv@b+3,f
  6162  0E7C  0BE0               	decfsz	??___fldiv,f
  6163  0E7D  2E77               	goto	u339_25
  6164  0E7E                     i1l2952:
  6165  0E7E  1683               	bsf	3,5	;RP0=1, select bank1
  6166  0E7F  1303               	bcf	3,6	;RP1=0, select bank1
  6167  0E80  1FAA               	btfss	(___fldiv@grs+3)^(0+128),7
  6168  0E81  2E83               	goto	u340_21
  6169  0E82  2E84               	goto	u340_20
  6170  0E83                     u340_21:
  6171  0E83  2E87               	goto	i1l2956
  6172  0E84                     u340_20:
  6173  0E84                     i1l2954:
  6174  0E84  1283               	bcf	3,5	;RP0=0, select bank0
  6175  0E85  1303               	bcf	3,6	;RP1=0, select bank0
  6176  0E86  145C               	bsf	___fldiv@b,0
  6177  0E87                     i1l2956:
  6178  0E87  3001               	movlw	1
  6179  0E88  1283               	bcf	3,5	;RP0=0, select bank0
  6180  0E89  00E0               	movwf	??___fldiv
  6181  0E8A                     u341_25:
  6182  0E8A  1003               	clrc
  6183  0E8B  1683               	bsf	3,5	;RP0=1, select bank1
  6184  0E8C  1303               	bcf	3,6	;RP1=0, select bank1
  6185  0E8D  0DA7               	rlf	___fldiv@grs^(0+128),f
  6186  0E8E  0DA8               	rlf	(___fldiv@grs+1)^(0+128),f
  6187  0E8F  0DA9               	rlf	(___fldiv@grs+2)^(0+128),f
  6188  0E90  0DAA               	rlf	(___fldiv@grs+3)^(0+128),f
  6189  0E91  1283               	bcf	3,5	;RP0=0, select bank0
  6190  0E92  1303               	bcf	3,6	;RP1=0, select bank0
  6191  0E93  0BE0               	decfsz	??___fldiv,f
  6192  0E94  2E8A               	goto	u341_25
  6193  0E95                     i1l2958:
  6194  0E95  1283               	bcf	3,5	;RP0=0, select bank0
  6195  0E96  085B               	movf	___fldiv@a+3,w
  6196  0E97  1683               	bsf	3,5	;RP0=1, select bank1
  6197  0E98  1303               	bcf	3,6	;RP1=0, select bank1
  6198  0E99  0223               	subwf	(___fldiv@rem+3)^(0+128),w
  6199  0E9A  1D03               	skipz
  6200  0E9B  2EB2               	goto	u342_25
  6201  0E9C  1283               	bcf	3,5	;RP0=0, select bank0
  6202  0E9D  1303               	bcf	3,6	;RP1=0, select bank0
  6203  0E9E  085A               	movf	___fldiv@a+2,w
  6204  0E9F  1683               	bsf	3,5	;RP0=1, select bank1
  6205  0EA0  1303               	bcf	3,6	;RP1=0, select bank1
  6206  0EA1  0222               	subwf	(___fldiv@rem+2)^(0+128),w
  6207  0EA2  1D03               	skipz
  6208  0EA3  2EB2               	goto	u342_25
  6209  0EA4  1283               	bcf	3,5	;RP0=0, select bank0
  6210  0EA5  1303               	bcf	3,6	;RP1=0, select bank0
  6211  0EA6  0859               	movf	___fldiv@a+1,w
  6212  0EA7  1683               	bsf	3,5	;RP0=1, select bank1
  6213  0EA8  1303               	bcf	3,6	;RP1=0, select bank1
  6214  0EA9  0221               	subwf	(___fldiv@rem+1)^(0+128),w
  6215  0EAA  1D03               	skipz
  6216  0EAB  2EB2               	goto	u342_25
  6217  0EAC  1283               	bcf	3,5	;RP0=0, select bank0
  6218  0EAD  1303               	bcf	3,6	;RP1=0, select bank0
  6219  0EAE  0858               	movf	___fldiv@a,w
  6220  0EAF  1683               	bsf	3,5	;RP0=1, select bank1
  6221  0EB0  1303               	bcf	3,6	;RP1=0, select bank1
  6222  0EB1  0220               	subwf	___fldiv@rem^(0+128),w
  6223  0EB2                     u342_25:
  6224  0EB2  1C03               	skipc
  6225  0EB3  2EB5               	goto	u342_21
  6226  0EB4  2EB6               	goto	u342_20
  6227  0EB5                     u342_21:
  6228  0EB5  2EDF               	goto	i1l2964
  6229  0EB6                     u342_20:
  6230  0EB6                     i1l2960:
  6231  0EB6  172A               	bsf	(___fldiv@grs^(0+128)+3),6
  6232  0EB7                     i1l2962:
  6233  0EB7  1283               	bcf	3,5	;RP0=0, select bank0
  6234  0EB8  1303               	bcf	3,6	;RP1=0, select bank0
  6235  0EB9  0858               	movf	___fldiv@a,w
  6236  0EBA  1683               	bsf	3,5	;RP0=1, select bank1
  6237  0EBB  1303               	bcf	3,6	;RP1=0, select bank1
  6238  0EBC  02A0               	subwf	___fldiv@rem^(0+128),f
  6239  0EBD  1283               	bcf	3,5	;RP0=0, select bank0
  6240  0EBE  1303               	bcf	3,6	;RP1=0, select bank0
  6241  0EBF  0859               	movf	___fldiv@a+1,w
  6242  0EC0  1C03               	skipc
  6243  0EC1  0F59               	incfsz	___fldiv@a+1,w
  6244  0EC2  2EC4               	goto	u343_25
  6245  0EC3  2EC7               	goto	u343_26
  6246  0EC4                     u343_25:
  6247  0EC4  1683               	bsf	3,5	;RP0=1, select bank1
  6248  0EC5  1303               	bcf	3,6	;RP1=0, select bank1
  6249  0EC6  02A1               	subwf	(___fldiv@rem+1)^(0+128),f
  6250  0EC7                     u343_26:
  6251  0EC7  1283               	bcf	3,5	;RP0=0, select bank0
  6252  0EC8  1303               	bcf	3,6	;RP1=0, select bank0
  6253  0EC9  085A               	movf	___fldiv@a+2,w
  6254  0ECA  1C03               	skipc
  6255  0ECB  0F5A               	incfsz	___fldiv@a+2,w
  6256  0ECC  2ECE               	goto	u343_27
  6257  0ECD  2ED1               	goto	u343_28
  6258  0ECE                     u343_27:
  6259  0ECE  1683               	bsf	3,5	;RP0=1, select bank1
  6260  0ECF  1303               	bcf	3,6	;RP1=0, select bank1
  6261  0ED0  02A2               	subwf	(___fldiv@rem+2)^(0+128),f
  6262  0ED1                     u343_28:
  6263  0ED1  1283               	bcf	3,5	;RP0=0, select bank0
  6264  0ED2  1303               	bcf	3,6	;RP1=0, select bank0
  6265  0ED3  085B               	movf	___fldiv@a+3,w
  6266  0ED4  1C03               	skipc
  6267  0ED5  0F5B               	incfsz	___fldiv@a+3,w
  6268  0ED6  2ED8               	goto	u343_29
  6269  0ED7  2EDB               	goto	u343_20
  6270  0ED8                     u343_29:
  6271  0ED8  1683               	bsf	3,5	;RP0=1, select bank1
  6272  0ED9  1303               	bcf	3,6	;RP1=0, select bank1
  6273  0EDA  02A3               	subwf	(___fldiv@rem+3)^(0+128),f
  6274  0EDB                     u343_20:
  6275  0EDB  1283               	bcf	3,5	;RP0=0, select bank0
  6276  0EDC  1303               	bcf	3,6	;RP1=0, select bank0
  6277  0EDD  1683               	bsf	3,5	;RP0=1, select bank1
  6278  0EDE  1303               	bcf	3,6	;RP1=0, select bank1
  6279  0EDF                     i1l2964:
  6280  0EDF  3001               	movlw	1
  6281  0EE0  1283               	bcf	3,5	;RP0=0, select bank0
  6282  0EE1  1303               	bcf	3,6	;RP1=0, select bank0
  6283  0EE2  00E0               	movwf	??___fldiv
  6284  0EE3  0860               	movf	??___fldiv,w
  6285  0EE4  1683               	bsf	3,5	;RP0=1, select bank1
  6286  0EE5  1303               	bcf	3,6	;RP1=0, select bank1
  6287  0EE6  07AC               	addwf	___fldiv@aexp^(0+128),f
  6288  0EE7                     i1l2966:
  6289  0EE7  301A               	movlw	26
  6290  0EE8  022C               	subwf	___fldiv@aexp^(0+128),w
  6291  0EE9  1C03               	skipc
  6292  0EEA  2EEC               	goto	u344_21
  6293  0EEB  2EED               	goto	u344_20
  6294  0EEC                     u344_21:
  6295  0EEC  2E61               	goto	i1l2948
  6296  0EED                     u344_20:
  6297  0EED                     i1l2968:
  6298  0EED  0823               	movf	(___fldiv@rem+3)^(0+128),w
  6299  0EEE  0422               	iorwf	(___fldiv@rem+2)^(0+128),w
  6300  0EEF  0421               	iorwf	(___fldiv@rem+1)^(0+128),w
  6301  0EF0  0420               	iorwf	___fldiv@rem^(0+128),w
  6302  0EF1  1903               	skipnz
  6303  0EF2  2EF4               	goto	u345_21
  6304  0EF3  2EF5               	goto	u345_20
  6305  0EF4                     u345_21:
  6306  0EF4  2F1F               	goto	i1l2982
  6307  0EF5                     u345_20:
  6308  0EF5                     i1l2970:
  6309  0EF5  1427               	bsf	___fldiv@grs^(0+128),0
  6310  0EF6  2F1F               	goto	i1l2982
  6311  0EF7                     i1l2972:
  6312  0EF7  3001               	movlw	1
  6313  0EF8  00E0               	movwf	??___fldiv
  6314  0EF9                     u346_25:
  6315  0EF9  1003               	clrc
  6316  0EFA  0DDC               	rlf	___fldiv@b,f
  6317  0EFB  0DDD               	rlf	___fldiv@b+1,f
  6318  0EFC  0DDE               	rlf	___fldiv@b+2,f
  6319  0EFD  0DDF               	rlf	___fldiv@b+3,f
  6320  0EFE  0BE0               	decfsz	??___fldiv,f
  6321  0EFF  2EF9               	goto	u346_25
  6322  0F00                     i1l2974:
  6323  0F00  1683               	bsf	3,5	;RP0=1, select bank1
  6324  0F01  1303               	bcf	3,6	;RP1=0, select bank1
  6325  0F02  1FAA               	btfss	(___fldiv@grs+3)^(0+128),7
  6326  0F03  2F05               	goto	u347_21
  6327  0F04  2F06               	goto	u347_20
  6328  0F05                     u347_21:
  6329  0F05  2F09               	goto	i1l2978
  6330  0F06                     u347_20:
  6331  0F06                     i1l2976:
  6332  0F06  1283               	bcf	3,5	;RP0=0, select bank0
  6333  0F07  1303               	bcf	3,6	;RP1=0, select bank0
  6334  0F08  145C               	bsf	___fldiv@b,0
  6335  0F09                     i1l2978:
  6336  0F09  3001               	movlw	1
  6337  0F0A  1283               	bcf	3,5	;RP0=0, select bank0
  6338  0F0B  00E0               	movwf	??___fldiv
  6339  0F0C                     u348_25:
  6340  0F0C  1003               	clrc
  6341  0F0D  1683               	bsf	3,5	;RP0=1, select bank1
  6342  0F0E  1303               	bcf	3,6	;RP1=0, select bank1
  6343  0F0F  0DA7               	rlf	___fldiv@grs^(0+128),f
  6344  0F10  0DA8               	rlf	(___fldiv@grs+1)^(0+128),f
  6345  0F11  0DA9               	rlf	(___fldiv@grs+2)^(0+128),f
  6346  0F12  0DAA               	rlf	(___fldiv@grs+3)^(0+128),f
  6347  0F13  1283               	bcf	3,5	;RP0=0, select bank0
  6348  0F14  1303               	bcf	3,6	;RP1=0, select bank0
  6349  0F15  0BE0               	decfsz	??___fldiv,f
  6350  0F16  2F0C               	goto	u348_25
  6351  0F17                     i1l2980:
  6352  0F17  30FF               	movlw	255
  6353  0F18  1683               	bsf	3,5	;RP0=1, select bank1
  6354  0F19  1303               	bcf	3,6	;RP1=0, select bank1
  6355  0F1A  07A5               	addwf	___fldiv@new_exp^(0+128),f
  6356  0F1B  1803               	skipnc
  6357  0F1C  0AA6               	incf	(___fldiv@new_exp+1)^(0+128),f
  6358  0F1D  30FF               	movlw	255
  6359  0F1E  07A6               	addwf	(___fldiv@new_exp+1)^(0+128),f
  6360  0F1F                     i1l2982:
  6361  0F1F  1283               	bcf	3,5	;RP0=0, select bank0
  6362  0F20  1303               	bcf	3,6	;RP1=0, select bank0
  6363  0F21  1FDE               	btfss	___fldiv@b+2,7
  6364  0F22  2F24               	goto	u349_21
  6365  0F23  2F25               	goto	u349_20
  6366  0F24                     u349_21:
  6367  0F24  2EF7               	goto	i1l2972
  6368  0F25                     u349_20:
  6369  0F25                     i1l2984:
  6370  0F25  1683               	bsf	3,5	;RP0=1, select bank1
  6371  0F26  1303               	bcf	3,6	;RP1=0, select bank1
  6372  0F27  01AC               	clrf	___fldiv@aexp^(0+128)
  6373  0F28                     i1l2986:
  6374  0F28  1FAA               	btfss	(___fldiv@grs+3)^(0+128),7
  6375  0F29  2F2B               	goto	u350_21
  6376  0F2A  2F2C               	goto	u350_20
  6377  0F2B                     u350_21:
  6378  0F2B  2F58               	goto	i1l2994
  6379  0F2C                     u350_20:
  6380  0F2C                     i1l2988:
  6381  0F2C  30FF               	movlw	255
  6382  0F2D  0527               	andwf	___fldiv@grs^(0+128),w
  6383  0F2E  1283               	bcf	3,5	;RP0=0, select bank0
  6384  0F2F  1303               	bcf	3,6	;RP1=0, select bank0
  6385  0F30  00E0               	movwf	??___fldiv
  6386  0F31  30FF               	movlw	255
  6387  0F32  1683               	bsf	3,5	;RP0=1, select bank1
  6388  0F33  1303               	bcf	3,6	;RP1=0, select bank1
  6389  0F34  0528               	andwf	(___fldiv@grs+1)^(0+128),w
  6390  0F35  1283               	bcf	3,5	;RP0=0, select bank0
  6391  0F36  1303               	bcf	3,6	;RP1=0, select bank0
  6392  0F37  00E1               	movwf	??___fldiv+1
  6393  0F38  30FF               	movlw	255
  6394  0F39  1683               	bsf	3,5	;RP0=1, select bank1
  6395  0F3A  1303               	bcf	3,6	;RP1=0, select bank1
  6396  0F3B  0529               	andwf	(___fldiv@grs+2)^(0+128),w
  6397  0F3C  1283               	bcf	3,5	;RP0=0, select bank0
  6398  0F3D  1303               	bcf	3,6	;RP1=0, select bank0
  6399  0F3E  00E2               	movwf	??___fldiv+2
  6400  0F3F  307F               	movlw	127
  6401  0F40  1683               	bsf	3,5	;RP0=1, select bank1
  6402  0F41  1303               	bcf	3,6	;RP1=0, select bank1
  6403  0F42  052A               	andwf	(___fldiv@grs+3)^(0+128),w
  6404  0F43  1283               	bcf	3,5	;RP0=0, select bank0
  6405  0F44  1303               	bcf	3,6	;RP1=0, select bank0
  6406  0F45  00E3               	movwf	??___fldiv+3
  6407  0F46  0863               	movf	??___fldiv+3,w
  6408  0F47  0462               	iorwf	??___fldiv+2,w
  6409  0F48  0461               	iorwf	??___fldiv+1,w
  6410  0F49  0460               	iorwf	??___fldiv,w
  6411  0F4A  1903               	skipnz
  6412  0F4B  2F4D               	goto	u351_21
  6413  0F4C  2F4E               	goto	u351_20
  6414  0F4D                     u351_21:
  6415  0F4D  2F53               	goto	i1l767
  6416  0F4E                     u351_20:
  6417  0F4E                     i1l2990:
  6418  0F4E  1683               	bsf	3,5	;RP0=1, select bank1
  6419  0F4F  1303               	bcf	3,6	;RP1=0, select bank1
  6420  0F50  01AC               	clrf	___fldiv@aexp^(0+128)
  6421  0F51  0AAC               	incf	___fldiv@aexp^(0+128),f
  6422  0F52  2F58               	goto	i1l2994
  6423  0F53                     i1l767:
  6424  0F53  1C5C               	btfss	___fldiv@b,0
  6425  0F54  2F56               	goto	u352_21
  6426  0F55  2F57               	goto	u352_20
  6427  0F56                     u352_21:
  6428  0F56  2F58               	goto	i1l2994
  6429  0F57                     u352_20:
  6430  0F57  2F4E               	goto	i1l2990
  6431  0F58                     i1l2994:
  6432  0F58  1683               	bsf	3,5	;RP0=1, select bank1
  6433  0F59  1303               	bcf	3,6	;RP1=0, select bank1
  6434  0F5A  082C               	movf	___fldiv@aexp^(0+128),w
  6435  0F5B  1903               	btfsc	3,2
  6436  0F5C  2F5E               	goto	u353_21
  6437  0F5D  2F5F               	goto	u353_20
  6438  0F5E                     u353_21:
  6439  0F5E  2F94               	goto	i1l3004
  6440  0F5F                     u353_20:
  6441  0F5F                     i1l2996:
  6442  0F5F  3001               	movlw	1
  6443  0F60  1283               	bcf	3,5	;RP0=0, select bank0
  6444  0F61  1303               	bcf	3,6	;RP1=0, select bank0
  6445  0F62  07DC               	addwf	___fldiv@b,f
  6446  0F63  3000               	movlw	0
  6447  0F64  1803               	skipnc
  6448  0F65  3001               	movlw	1
  6449  0F66  07DD               	addwf	___fldiv@b+1,f
  6450  0F67  3000               	movlw	0
  6451  0F68  1803               	skipnc
  6452  0F69  3001               	movlw	1
  6453  0F6A  07DE               	addwf	___fldiv@b+2,f
  6454  0F6B  3000               	movlw	0
  6455  0F6C  1803               	skipnc
  6456  0F6D  3001               	movlw	1
  6457  0F6E  07DF               	addwf	___fldiv@b+3,f
  6458  0F6F                     i1l2998:
  6459  0F6F  1C5F               	btfss	___fldiv@b+3,0
  6460  0F70  2F72               	goto	u354_21
  6461  0F71  2F73               	goto	u354_20
  6462  0F72                     u354_21:
  6463  0F72  2F94               	goto	i1l3004
  6464  0F73                     u354_20:
  6465  0F73                     i1l3000:
  6466  0F73  085C               	movf	___fldiv@b,w
  6467  0F74  00E0               	movwf	??___fldiv
  6468  0F75  085D               	movf	___fldiv@b+1,w
  6469  0F76  00E1               	movwf	??___fldiv+1
  6470  0F77  085E               	movf	___fldiv@b+2,w
  6471  0F78  00E2               	movwf	??___fldiv+2
  6472  0F79  085F               	movf	___fldiv@b+3,w
  6473  0F7A  00E3               	movwf	??___fldiv+3
  6474  0F7B  3001               	movlw	1
  6475  0F7C  00E4               	movwf	??___fldiv+4
  6476  0F7D                     u355_25:
  6477  0F7D  0D63               	rlf	??___fldiv+3,w
  6478  0F7E  0CE3               	rrf	??___fldiv+3,f
  6479  0F7F  0CE2               	rrf	??___fldiv+2,f
  6480  0F80  0CE1               	rrf	??___fldiv+1,f
  6481  0F81  0CE0               	rrf	??___fldiv,f
  6482  0F82                     u355_20:
  6483  0F82  0BE4               	decfsz	??___fldiv+4,f
  6484  0F83  2F7D               	goto	u355_25
  6485  0F84  0863               	movf	??___fldiv+3,w
  6486  0F85  00DF               	movwf	___fldiv@b+3
  6487  0F86  0862               	movf	??___fldiv+2,w
  6488  0F87  00DE               	movwf	___fldiv@b+2
  6489  0F88  0861               	movf	??___fldiv+1,w
  6490  0F89  00DD               	movwf	___fldiv@b+1
  6491  0F8A  0860               	movf	??___fldiv,w
  6492  0F8B  00DC               	movwf	___fldiv@b
  6493  0F8C                     i1l3002:
  6494  0F8C  3001               	movlw	1
  6495  0F8D  1683               	bsf	3,5	;RP0=1, select bank1
  6496  0F8E  1303               	bcf	3,6	;RP1=0, select bank1
  6497  0F8F  07A5               	addwf	___fldiv@new_exp^(0+128),f
  6498  0F90  1803               	skipnc
  6499  0F91  0AA6               	incf	(___fldiv@new_exp+1)^(0+128),f
  6500  0F92  3000               	movlw	0
  6501  0F93  07A6               	addwf	(___fldiv@new_exp+1)^(0+128),f
  6502  0F94                     i1l3004:
  6503  0F94  1683               	bsf	3,5	;RP0=1, select bank1
  6504  0F95  1303               	bcf	3,6	;RP1=0, select bank1
  6505  0F96  0826               	movf	(___fldiv@new_exp+1)^(0+128),w
  6506  0F97  3A80               	xorlw	128
  6507  0F98  00FF               	movwf	btemp+1
  6508  0F99  3080               	movlw	128
  6509  0F9A  027F               	subwf	btemp+1,w
  6510  0F9B  1D03               	skipz
  6511  0F9C  2F9F               	goto	u356_25
  6512  0F9D  30FF               	movlw	255
  6513  0F9E  0225               	subwf	___fldiv@new_exp^(0+128),w
  6514  0F9F                     u356_25:
  6515  0F9F  1C03               	skipc
  6516  0FA0  2FA2               	goto	u356_21
  6517  0FA1  2FA3               	goto	u356_20
  6518  0FA2                     u356_21:
  6519  0FA2  2FB3               	goto	i1l3008
  6520  0FA3                     u356_20:
  6521  0FA3                     i1l3006:
  6522  0FA3  30FF               	movlw	255
  6523  0FA4  1683               	bsf	3,5	;RP0=1, select bank1
  6524  0FA5  1303               	bcf	3,6	;RP1=0, select bank1
  6525  0FA6  00A5               	movwf	___fldiv@new_exp^(0+128)
  6526  0FA7  3000               	movlw	0
  6527  0FA8  00A6               	movwf	(___fldiv@new_exp^(0+128)+1)
  6528  0FA9  3000               	movlw	0
  6529  0FAA  1283               	bcf	3,5	;RP0=0, select bank0
  6530  0FAB  1303               	bcf	3,6	;RP1=0, select bank0
  6531  0FAC  00DF               	movwf	___fldiv@b+3
  6532  0FAD  3000               	movlw	0
  6533  0FAE  00DE               	movwf	___fldiv@b+2
  6534  0FAF  3000               	movlw	0
  6535  0FB0  00DD               	movwf	___fldiv@b+1
  6536  0FB1  3000               	movlw	0
  6537  0FB2  00DC               	movwf	___fldiv@b
  6538  0FB3                     i1l3008:
  6539  0FB3  1683               	bsf	3,5	;RP0=1, select bank1
  6540  0FB4  1303               	bcf	3,6	;RP1=0, select bank1
  6541  0FB5  0826               	movf	(___fldiv@new_exp+1)^(0+128),w
  6542  0FB6  3A80               	xorlw	128
  6543  0FB7  00FF               	movwf	btemp+1
  6544  0FB8  3080               	movlw	128
  6545  0FB9  027F               	subwf	btemp+1,w
  6546  0FBA  1D03               	skipz
  6547  0FBB  2FBE               	goto	u357_25
  6548  0FBC  3001               	movlw	1
  6549  0FBD  0225               	subwf	___fldiv@new_exp^(0+128),w
  6550  0FBE                     u357_25:
  6551  0FBE  1803               	skipnc
  6552  0FBF  2FC1               	goto	u357_21
  6553  0FC0  2FC2               	goto	u357_20
  6554  0FC1                     u357_21:
  6555  0FC1  2FD3               	goto	i1l773
  6556  0FC2                     u357_20:
  6557  0FC2                     i1l3010:
  6558  0FC2  1683               	bsf	3,5	;RP0=1, select bank1
  6559  0FC3  1303               	bcf	3,6	;RP1=0, select bank1
  6560  0FC4  01A5               	clrf	___fldiv@new_exp^(0+128)
  6561  0FC5  01A6               	clrf	(___fldiv@new_exp+1)^(0+128)
  6562  0FC6                     i1l3012:
  6563  0FC6  3000               	movlw	0
  6564  0FC7  1283               	bcf	3,5	;RP0=0, select bank0
  6565  0FC8  1303               	bcf	3,6	;RP1=0, select bank0
  6566  0FC9  00DF               	movwf	___fldiv@b+3
  6567  0FCA  3000               	movlw	0
  6568  0FCB  00DE               	movwf	___fldiv@b+2
  6569  0FCC  3000               	movlw	0
  6570  0FCD  00DD               	movwf	___fldiv@b+1
  6571  0FCE  3000               	movlw	0
  6572  0FCF  00DC               	movwf	___fldiv@b
  6573  0FD0                     i1l3014:
  6574  0FD0  1683               	bsf	3,5	;RP0=1, select bank1
  6575  0FD1  1303               	bcf	3,6	;RP1=0, select bank1
  6576  0FD2  01A4               	clrf	___fldiv@sign^(0+128)
  6577  0FD3                     i1l773:
  6578  0FD3  1683               	bsf	3,5	;RP0=1, select bank1
  6579  0FD4  1303               	bcf	3,6	;RP1=0, select bank1
  6580  0FD5  0825               	movf	___fldiv@new_exp^(0+128),w
  6581  0FD6  1283               	bcf	3,5	;RP0=0, select bank0
  6582  0FD7  1303               	bcf	3,6	;RP1=0, select bank0
  6583  0FD8  00E0               	movwf	??___fldiv
  6584  0FD9  0860               	movf	??___fldiv,w
  6585  0FDA  1683               	bsf	3,5	;RP0=1, select bank1
  6586  0FDB  1303               	bcf	3,6	;RP1=0, select bank1
  6587  0FDC  00AB               	movwf	___fldiv@bexp^(0+128)
  6588  0FDD                     i1l3016:
  6589  0FDD  1C2B               	btfss	___fldiv@bexp^(0+128),0
  6590  0FDE  2FE0               	goto	u358_21
  6591  0FDF  2FE1               	goto	u358_20
  6592  0FE0                     u358_21:
  6593  0FE0  2FE5               	goto	i1l3020
  6594  0FE1                     u358_20:
  6595  0FE1                     i1l3018:
  6596  0FE1  1283               	bcf	3,5	;RP0=0, select bank0
  6597  0FE2  1303               	bcf	3,6	;RP1=0, select bank0
  6598  0FE3  17DE               	bsf	___fldiv@b+2,7
  6599  0FE4  2FEB               	goto	i1l775
  6600  0FE5                     i1l3020:
  6601  0FE5  307F               	movlw	127
  6602  0FE6  1283               	bcf	3,5	;RP0=0, select bank0
  6603  0FE7  1303               	bcf	3,6	;RP1=0, select bank0
  6604  0FE8  00E0               	movwf	??___fldiv
  6605  0FE9  0860               	movf	??___fldiv,w
  6606  0FEA  05DE               	andwf	___fldiv@b+2,f
  6607  0FEB                     i1l775:
  6608  0FEB  1683               	bsf	3,5	;RP0=1, select bank1
  6609  0FEC  1303               	bcf	3,6	;RP1=0, select bank1
  6610  0FED  082B               	movf	___fldiv@bexp^(0+128),w
  6611  0FEE  1283               	bcf	3,5	;RP0=0, select bank0
  6612  0FEF  1303               	bcf	3,6	;RP1=0, select bank0
  6613  0FF0  00E0               	movwf	??___fldiv
  6614  0FF1  1003               	clrc
  6615  0FF2  0C60               	rrf	??___fldiv,w
  6616  0FF3  00E1               	movwf	??___fldiv+1
  6617  0FF4  0861               	movf	??___fldiv+1,w
  6618  0FF5  00DF               	movwf	___fldiv@b+3
  6619  0FF6  1683               	bsf	3,5	;RP0=1, select bank1
  6620  0FF7  1303               	bcf	3,6	;RP1=0, select bank1
  6621  0FF8  0824               	movf	___fldiv@sign^(0+128),w
  6622  0FF9  1283               	bcf	3,5	;RP0=0, select bank0
  6623  0FFA  1303               	bcf	3,6	;RP1=0, select bank0
  6624  0FFB  00E0               	movwf	??___fldiv
  6625  0FFC  0860               	movf	??___fldiv,w
  6626  0FFD  04DF               	iorwf	___fldiv@b+3,f
  6627  0FFE  2DFA               	goto	i1l2928
  6628  0FFF                     i1l753:
  6629  0FFF  0008               	return
  6630  1000                     __end_of___fldiv:
  6631                           
  6632                           	psect	text27
  6633  06B0                     __ptext27:	
  6634 ;; *************** function _log *****************
  6635 ;; Defined at:
  6636 ;;		line 5 in file "C:\Program Files\Microchip\xc8\v2.35\pic\sources\c90\common\log.c"
  6637 ;; Parameters:    Size  Location     Type
  6638 ;;  x               4   72[BANK0 ] unsigned char 
  6639 ;; Auto vars:     Size  Location     Type
  6640 ;;  exponent        2   77[BANK0 ] int 
  6641 ;; Return value:  Size  Location     Type
  6642 ;;                  4   72[BANK0 ] int 
  6643 ;; Registers used:
  6644 ;;		wreg, fsr0l, fsr0h, status,2, status,0, btemp+1, pclath, cstack
  6645 ;; Tracked objects:
  6646 ;;		On entry : 0/0
  6647 ;;		On exit  : 0/0
  6648 ;;		Unchanged: 0/0
  6649 ;; Data sizes:     COMMON   BANK0   BANK1   BANK3   BANK2
  6650 ;;      Params:         0       4       0       0       0
  6651 ;;      Locals:         0       2       0       0       0
  6652 ;;      Temps:          0       1       0       0       0
  6653 ;;      Totals:         0       7       0       0       0
  6654 ;;Total ram usage:        7 bytes
  6655 ;; Hardware stack levels used: 1
  6656 ;; Hardware stack levels required when called: 3
  6657 ;; This function calls:
  6658 ;;		___fladd
  6659 ;;		___fleq
  6660 ;;		___flge
  6661 ;;		___flmul
  6662 ;;		___xxtofl
  6663 ;;		_eval_poly
  6664 ;;		_frexp
  6665 ;; This function is called by:
  6666 ;;		_slave
  6667 ;; This function uses a non-reentrant model
  6668 ;;
  6669                           
  6670  06B0                     _log:	
  6671                           ;psect for function _log
  6672                           
  6673  06B0                     i1l3146:	
  6674                           ;incstack = 0
  6675                           ; Regs used in _log: [wreg-fsr0h+status,2+status,0+btemp+1+pclath+cstack]
  6676                           
  6677  06B0  1283               	bcf	3,5	;RP0=0, select bank0
  6678  06B1  1303               	bcf	3,6	;RP1=0, select bank0
  6679  06B2  086B               	movf	log@x+3,w
  6680  06B3  00F3               	movwf	___flge@ff1+3
  6681  06B4  086A               	movf	log@x+2,w
  6682  06B5  00F2               	movwf	___flge@ff1+2
  6683  06B6  0869               	movf	log@x+1,w
  6684  06B7  00F1               	movwf	___flge@ff1+1
  6685  06B8  0868               	movf	log@x,w
  6686  06B9  00F0               	movwf	___flge@ff1
  6687  06BA  3000               	movlw	0
  6688  06BB  00F7               	movwf	___flge@ff2+3
  6689  06BC  3000               	movlw	0
  6690  06BD  00F6               	movwf	___flge@ff2+2
  6691  06BE  3000               	movlw	0
  6692  06BF  00F5               	movwf	___flge@ff2+1
  6693  06C0  3000               	movlw	0
  6694  06C1  00F4               	movwf	___flge@ff2
  6695  06C2  120A  158A  200A  120A  118A  	fcall	___flge
  6696  06C7  1803               	btfsc	3,0
  6697  06C8  2ECA               	goto	u387_21
  6698  06C9  2ECB               	goto	u387_20
  6699  06CA                     u387_21:
  6700  06CA  2EDC               	goto	i1l3152
  6701  06CB                     u387_20:
  6702  06CB                     i1l3148:
  6703  06CB  3021               	movlw	33
  6704  06CC  1683               	bsf	3,5	;RP0=1, select bank1
  6705  06CD  1303               	bcf	3,6	;RP1=0, select bank1
  6706  06CE  00E0               	movwf	_errno^(0+128)
  6707  06CF  3000               	movlw	0
  6708  06D0  00E1               	movwf	(_errno^(0+128)+1)
  6709  06D1  3000               	movlw	0
  6710  06D2  1283               	bcf	3,5	;RP0=0, select bank0
  6711  06D3  1303               	bcf	3,6	;RP1=0, select bank0
  6712  06D4  00EB               	movwf	?_log+3
  6713  06D5  3000               	movlw	0
  6714  06D6  00EA               	movwf	?_log+2
  6715  06D7  3000               	movlw	0
  6716  06D8  00E9               	movwf	?_log+1
  6717  06D9  3000               	movlw	0
  6718  06DA  00E8               	movwf	?_log
  6719  06DB  2FBF               	goto	i1l862
  6720  06DC                     i1l3152:
  6721  06DC  1283               	bcf	3,5	;RP0=0, select bank0
  6722  06DD  1303               	bcf	3,6	;RP1=0, select bank0
  6723  06DE  086B               	movf	log@x+3,w
  6724  06DF  00F3               	movwf	___fleq@ff1+3
  6725  06E0  086A               	movf	log@x+2,w
  6726  06E1  00F2               	movwf	___fleq@ff1+2
  6727  06E2  0869               	movf	log@x+1,w
  6728  06E3  00F1               	movwf	___fleq@ff1+1
  6729  06E4  0868               	movf	log@x,w
  6730  06E5  00F0               	movwf	___fleq@ff1
  6731  06E6  3000               	movlw	0
  6732  06E7  00F7               	movwf	___fleq@ff2+3
  6733  06E8  3000               	movlw	0
  6734  06E9  00F6               	movwf	___fleq@ff2+2
  6735  06EA  3000               	movlw	0
  6736  06EB  00F5               	movwf	___fleq@ff2+1
  6737  06EC  3000               	movlw	0
  6738  06ED  00F4               	movwf	___fleq@ff2
  6739  06EE  160A  118A  2364  120A  118A  	fcall	___fleq
  6740  06F3  1C03               	btfss	3,0
  6741  06F4  2EF6               	goto	u388_21
  6742  06F5  2EF7               	goto	u388_20
  6743  06F6                     u388_21:
  6744  06F6  2F08               	goto	i1l3158
  6745  06F7                     u388_20:
  6746  06F7                     i1l3154:
  6747  06F7  3022               	movlw	34
  6748  06F8  1683               	bsf	3,5	;RP0=1, select bank1
  6749  06F9  1303               	bcf	3,6	;RP1=0, select bank1
  6750  06FA  00E0               	movwf	_errno^(0+128)
  6751  06FB  3000               	movlw	0
  6752  06FC  00E1               	movwf	(_errno^(0+128)+1)
  6753  06FD  3000               	movlw	0
  6754  06FE  1283               	bcf	3,5	;RP0=0, select bank0
  6755  06FF  1303               	bcf	3,6	;RP1=0, select bank0
  6756  0700  00EB               	movwf	?_log+3
  6757  0701  3000               	movlw	0
  6758  0702  00EA               	movwf	?_log+2
  6759  0703  3000               	movlw	0
  6760  0704  00E9               	movwf	?_log+1
  6761  0705  3000               	movlw	0
  6762  0706  00E8               	movwf	?_log
  6763  0707  2FBF               	goto	i1l862
  6764  0708                     i1l3158:
  6765  0708  30BF               	movlw	191
  6766  0709  1283               	bcf	3,5	;RP0=0, select bank0
  6767  070A  1303               	bcf	3,6	;RP1=0, select bank0
  6768  070B  00AD               	movwf	___fladd@b+3
  6769  070C  3080               	movlw	128
  6770  070D  00AC               	movwf	___fladd@b+2
  6771  070E  3000               	movlw	0
  6772  070F  00AB               	movwf	___fladd@b+1
  6773  0710  3000               	movlw	0
  6774  0711  00AA               	movwf	___fladd@b
  6775  0712  3040               	movlw	64
  6776  0713  00C1               	movwf	___flmul@b+3
  6777  0714  3000               	movlw	0
  6778  0715  00C0               	movwf	___flmul@b+2
  6779  0716  3000               	movlw	0
  6780  0717  00BF               	movwf	___flmul@b+1
  6781  0718  3000               	movlw	0
  6782  0719  00BE               	movwf	___flmul@b
  6783  071A  306D               	movlw	(low (log@exponent| 0))& (0+255)
  6784  071B  00EC               	movwf	??_log
  6785  071C  086C               	movf	??_log,w
  6786  071D  00A4               	movwf	frexp@eptr
  6787  071E  086B               	movf	log@x+3,w
  6788  071F  00A3               	movwf	frexp@value+3
  6789  0720  086A               	movf	log@x+2,w
  6790  0721  00A2               	movwf	frexp@value+2
  6791  0722  0869               	movf	log@x+1,w
  6792  0723  00A1               	movwf	frexp@value+1
  6793  0724  0868               	movf	log@x,w
  6794  0725  00A0               	movwf	frexp@value
  6795  0726  160A  118A  240B  120A  118A  	fcall	_frexp
  6796  072B  1283               	bcf	3,5	;RP0=0, select bank0
  6797  072C  1303               	bcf	3,6	;RP1=0, select bank0
  6798  072D  0823               	movf	?_frexp+3,w
  6799  072E  00C5               	movwf	___flmul@a+3
  6800  072F  0822               	movf	?_frexp+2,w
  6801  0730  00C4               	movwf	___flmul@a+2
  6802  0731  0821               	movf	?_frexp+1,w
  6803  0732  00C3               	movwf	___flmul@a+1
  6804  0733  0820               	movf	?_frexp,w
  6805  0734  00C2               	movwf	___flmul@a
  6806  0735  120A  118A  204D  120A  118A  	fcall	___flmul
  6807  073A  1283               	bcf	3,5	;RP0=0, select bank0
  6808  073B  1303               	bcf	3,6	;RP1=0, select bank0
  6809  073C  0841               	movf	?___flmul+3,w
  6810  073D  00B1               	movwf	___fladd@a+3
  6811  073E  0840               	movf	?___flmul+2,w
  6812  073F  00B0               	movwf	___fladd@a+2
  6813  0740  083F               	movf	?___flmul+1,w
  6814  0741  00AF               	movwf	___fladd@a+1
  6815  0742  083E               	movf	?___flmul,w
  6816  0743  00AE               	movwf	___fladd@a
  6817  0744  120A  158A  22D8  120A  118A  	fcall	___fladd
  6818  0749  1283               	bcf	3,5	;RP0=0, select bank0
  6819  074A  1303               	bcf	3,6	;RP1=0, select bank0
  6820  074B  082D               	movf	?___fladd+3,w
  6821  074C  00EB               	movwf	log@x+3
  6822  074D  082C               	movf	?___fladd+2,w
  6823  074E  00EA               	movwf	log@x+2
  6824  074F  082B               	movf	?___fladd+1,w
  6825  0750  00E9               	movwf	log@x+1
  6826  0751  082A               	movf	?___fladd,w
  6827  0752  00E8               	movwf	log@x
  6828  0753                     i1l3160:
  6829  0753  30FF               	movlw	255
  6830  0754  07ED               	addwf	log@exponent,f
  6831  0755  1803               	skipnc
  6832  0756  0AEE               	incf	log@exponent+1,f
  6833  0757  30FF               	movlw	255
  6834  0758  07EE               	addwf	log@exponent+1,f
  6835  0759                     i1l3162:
  6836  0759  086B               	movf	log@x+3,w
  6837  075A  00DB               	movwf	eval_poly@x+3
  6838  075B  086A               	movf	log@x+2,w
  6839  075C  00DA               	movwf	eval_poly@x+2
  6840  075D  0869               	movf	log@x+1,w
  6841  075E  00D9               	movwf	eval_poly@x+1
  6842  075F  0868               	movf	log@x,w
  6843  0760  00D8               	movwf	eval_poly@x
  6844  0761  3001               	movlw	(low ((log@coeff-__stringbase)| (0+32768)))& (0+255)
  6845  0762  00EC               	movwf	??_log
  6846  0763  086C               	movf	??_log,w
  6847  0764  00DC               	movwf	eval_poly@d
  6848  0765  3008               	movlw	8
  6849  0766  00DD               	movwf	eval_poly@n
  6850  0767  3000               	movlw	0
  6851  0768  00DE               	movwf	eval_poly@n+1
  6852  0769  160A  118A  2762  120A  118A  	fcall	_eval_poly
  6853  076E  1283               	bcf	3,5	;RP0=0, select bank0
  6854  076F  1303               	bcf	3,6	;RP1=0, select bank0
  6855  0770  085B               	movf	?_eval_poly+3,w
  6856  0771  00EB               	movwf	log@x+3
  6857  0772  085A               	movf	?_eval_poly+2,w
  6858  0773  00EA               	movwf	log@x+2
  6859  0774  0859               	movf	?_eval_poly+1,w
  6860  0775  00E9               	movwf	log@x+1
  6861  0776  0858               	movf	?_eval_poly,w
  6862  0777  00E8               	movwf	log@x
  6863  0778                     i1l3164:
  6864  0778  086B               	movf	log@x+3,w
  6865  0779  00AD               	movwf	___fladd@b+3
  6866  077A  086A               	movf	log@x+2,w
  6867  077B  00AC               	movwf	___fladd@b+2
  6868  077C  0869               	movf	log@x+1,w
  6869  077D  00AB               	movwf	___fladd@b+1
  6870  077E  0868               	movf	log@x,w
  6871  077F  00AA               	movwf	___fladd@b
  6872  0780  303F               	movlw	63
  6873  0781  00C1               	movwf	___flmul@b+3
  6874  0782  3031               	movlw	49
  6875  0783  00C0               	movwf	___flmul@b+2
  6876  0784  3072               	movlw	114
  6877  0785  00BF               	movwf	___flmul@b+1
  6878  0786  3018               	movlw	24
  6879  0787  00BE               	movwf	___flmul@b
  6880  0788  086D               	movf	log@exponent,w
  6881  0789  00F9               	movwf	___xxtofl@val
  6882  078A  086E               	movf	log@exponent+1,w
  6883  078B  00FA               	movwf	___xxtofl@val+1
  6884  078C  3000               	movlw	0
  6885  078D  1BFA               	btfsc	___xxtofl@val+1,7
  6886  078E  30FF               	movlw	255
  6887  078F  00FB               	movwf	___xxtofl@val+2
  6888  0790  00FC               	movwf	___xxtofl@val+3
  6889  0791  3001               	movlw	1
  6890  0792  120A  158A  221C  120A  118A  	fcall	___xxtofl
  6891  0797  087C               	movf	?___xxtofl+3,w
  6892  0798  1283               	bcf	3,5	;RP0=0, select bank0
  6893  0799  1303               	bcf	3,6	;RP1=0, select bank0
  6894  079A  00C5               	movwf	___flmul@a+3
  6895  079B  087B               	movf	?___xxtofl+2,w
  6896  079C  00C4               	movwf	___flmul@a+2
  6897  079D  087A               	movf	?___xxtofl+1,w
  6898  079E  00C3               	movwf	___flmul@a+1
  6899  079F  0879               	movf	?___xxtofl,w
  6900  07A0  00C2               	movwf	___flmul@a
  6901  07A1  120A  118A  204D  120A  118A  	fcall	___flmul
  6902  07A6  1283               	bcf	3,5	;RP0=0, select bank0
  6903  07A7  1303               	bcf	3,6	;RP1=0, select bank0
  6904  07A8  0841               	movf	?___flmul+3,w
  6905  07A9  00B1               	movwf	___fladd@a+3
  6906  07AA  0840               	movf	?___flmul+2,w
  6907  07AB  00B0               	movwf	___fladd@a+2
  6908  07AC  083F               	movf	?___flmul+1,w
  6909  07AD  00AF               	movwf	___fladd@a+1
  6910  07AE  083E               	movf	?___flmul,w
  6911  07AF  00AE               	movwf	___fladd@a
  6912  07B0  120A  158A  22D8  120A  118A  	fcall	___fladd
  6913  07B5  1283               	bcf	3,5	;RP0=0, select bank0
  6914  07B6  1303               	bcf	3,6	;RP1=0, select bank0
  6915  07B7  082D               	movf	?___fladd+3,w
  6916  07B8  00EB               	movwf	?_log+3
  6917  07B9  082C               	movf	?___fladd+2,w
  6918  07BA  00EA               	movwf	?_log+2
  6919  07BB  082B               	movf	?___fladd+1,w
  6920  07BC  00E9               	movwf	?_log+1
  6921  07BD  082A               	movf	?___fladd,w
  6922  07BE  00E8               	movwf	?_log
  6923  07BF                     i1l862:
  6924  07BF  0008               	return
  6925  07C0                     __end_of_log:
  6926                           
  6927                           	psect	text28
  6928  140B                     __ptext28:	
  6929 ;; *************** function _frexp *****************
  6930 ;; Defined at:
  6931 ;;		line 254 in file "C:\Program Files\Microchip\xc8\v2.35\pic\sources\c90\common\frexp.c"
  6932 ;; Parameters:    Size  Location     Type
  6933 ;;  value           4    0[BANK0 ] int 
  6934 ;;  eptr            1    4[BANK0 ] PTR int 
  6935 ;;		 -> log@exponent(2), 
  6936 ;; Auto vars:     Size  Location     Type
  6937 ;;		None
  6938 ;; Return value:  Size  Location     Type
  6939 ;;                  4    0[BANK0 ] PTR int 
  6940 ;; Registers used:
  6941 ;;		wreg, fsr0l, fsr0h, status,2, status,0, btemp+1, pclath, cstack
  6942 ;; Tracked objects:
  6943 ;;		On entry : 0/0
  6944 ;;		On exit  : 0/0
  6945 ;;		Unchanged: 0/0
  6946 ;; Data sizes:     COMMON   BANK0   BANK1   BANK3   BANK2
  6947 ;;      Params:         0       5       0       0       0
  6948 ;;      Locals:         0       0       0       0       0
  6949 ;;      Temps:          2       0       0       0       0
  6950 ;;      Totals:         2       5       0       0       0
  6951 ;;Total ram usage:        7 bytes
  6952 ;; Hardware stack levels used: 1
  6953 ;; Hardware stack levels required when called: 1
  6954 ;; This function calls:
  6955 ;;		___fleq
  6956 ;; This function is called by:
  6957 ;;		_log
  6958 ;; This function uses a non-reentrant model
  6959 ;;
  6960                           
  6961  140B                     _frexp:	
  6962                           ;psect for function _frexp
  6963                           
  6964  140B                     i1l3070:	
  6965                           ;incstack = 0
  6966                           ; Regs used in _frexp: [wreg-fsr0h+status,2+status,0+btemp+1+pclath+cstack]
  6967                           
  6968  140B  1283               	bcf	3,5	;RP0=0, select bank0
  6969  140C  1303               	bcf	3,6	;RP1=0, select bank0
  6970  140D  0823               	movf	frexp@value+3,w
  6971  140E  00F3               	movwf	___fleq@ff1+3
  6972  140F  0822               	movf	frexp@value+2,w
  6973  1410  00F2               	movwf	___fleq@ff1+2
  6974  1411  0821               	movf	frexp@value+1,w
  6975  1412  00F1               	movwf	___fleq@ff1+1
  6976  1413  0820               	movf	frexp@value,w
  6977  1414  00F0               	movwf	___fleq@ff1
  6978  1415  3000               	movlw	0
  6979  1416  00F7               	movwf	___fleq@ff2+3
  6980  1417  3000               	movlw	0
  6981  1418  00F6               	movwf	___fleq@ff2+2
  6982  1419  3000               	movlw	0
  6983  141A  00F5               	movwf	___fleq@ff2+1
  6984  141B  3000               	movlw	0
  6985  141C  00F4               	movwf	___fleq@ff2
  6986  141D  160A  118A  2364  160A  118A  	fcall	___fleq
  6987  1422  1C03               	btfss	3,0
  6988  1423  2C25               	goto	u373_21
  6989  1424  2C26               	goto	u373_20
  6990  1425                     u373_21:
  6991  1425  2C37               	goto	i1l3078
  6992  1426                     u373_20:
  6993  1426                     i1l3072:
  6994  1426  1283               	bcf	3,5	;RP0=0, select bank0
  6995  1427  1303               	bcf	3,6	;RP1=0, select bank0
  6996  1428  0824               	movf	frexp@eptr,w
  6997  1429  0084               	movwf	4
  6998  142A  1383               	bcf	3,7	;select IRP bank0
  6999  142B  0180               	clrf	0
  7000  142C  0A84               	incf	4,f
  7001  142D  0180               	clrf	0
  7002  142E                     i1l3074:
  7003  142E  3000               	movlw	0
  7004  142F  00A3               	movwf	?_frexp+3
  7005  1430  3000               	movlw	0
  7006  1431  00A2               	movwf	?_frexp+2
  7007  1432  3000               	movlw	0
  7008  1433  00A1               	movwf	?_frexp+1
  7009  1434  3000               	movlw	0
  7010  1435  00A0               	movwf	?_frexp
  7011  1436  2C66               	goto	i1l880
  7012  1437                     i1l3078:
  7013  1437  1283               	bcf	3,5	;RP0=0, select bank0
  7014  1438  1303               	bcf	3,6	;RP1=0, select bank0
  7015  1439  0823               	movf	frexp@value+3,w
  7016  143A  397F               	andlw	127
  7017  143B  00FC               	movwf	??_frexp
  7018  143C  01FD               	clrf	??_frexp+1
  7019  143D  1003               	clrc
  7020  143E  0DFC               	rlf	??_frexp,f
  7021  143F  0DFD               	rlf	??_frexp+1,f
  7022  1440  0824               	movf	frexp@eptr,w
  7023  1441  0084               	movwf	4
  7024  1442  087C               	movf	??_frexp,w
  7025  1443  1383               	bcf	3,7	;select IRP bank0
  7026  1444  0080               	movwf	0
  7027  1445  0A84               	incf	4,f
  7028  1446  087D               	movf	??_frexp+1,w
  7029  1447  0080               	movwf	0
  7030  1448  0D22               	rlf	frexp@value+2,w
  7031  1449  0D22               	rlf	frexp@value+2,w
  7032  144A  3901               	andlw	1
  7033  144B  00FC               	movwf	??_frexp
  7034  144C  01FD               	clrf	??_frexp+1
  7035  144D  0824               	movf	frexp@eptr,w
  7036  144E  0084               	movwf	4
  7037  144F  087C               	movf	??_frexp,w
  7038  1450  0480               	iorwf	0,f
  7039  1451  0A84               	incf	4,f
  7040  1452  087D               	movf	??_frexp+1,w
  7041  1453  0480               	iorwf	0,f
  7042  1454                     i1l3080:
  7043  1454  0824               	movf	frexp@eptr,w
  7044  1455  0084               	movwf	4
  7045  1456  3082               	movlw	130
  7046  1457  0780               	addwf	0,f
  7047  1458  0F84               	incfsz	4,f
  7048  1459  0800               	movf	0,w
  7049  145A  1803               	skipnc
  7050  145B  0A00               	incf	0,w
  7051  145C  00FF               	movwf	btemp+1
  7052  145D  30FF               	movlw	255
  7053  145E  077F               	addwf	btemp+1,w
  7054  145F  0080               	movwf	0
  7055  1460  0384               	decf	4,f
  7056  1461                     i1l3082:
  7057  1461  0823               	movf	frexp@value+3,w
  7058  1462  3980               	andlw	-128
  7059  1463  383F               	iorlw	63
  7060  1464  00A3               	movwf	frexp@value+3
  7061  1465                     i1l3084:
  7062  1465  13A2               	bcf	frexp@value+2,7
  7063  1466                     i1l3086:
  7064  1466                     i1l880:
  7065  1466  0008               	return
  7066  1467                     __end_of_frexp:
  7067                           
  7068                           	psect	text29
  7069  1364                     __ptext29:	
  7070 ;; *************** function ___fleq *****************
  7071 ;; Defined at:
  7072 ;;		line 4 in file "C:\Program Files\Microchip\xc8\v2.35\pic\sources\c90\common\fleq.c"
  7073 ;; Parameters:    Size  Location     Type
  7074 ;;  ff1             4    0[COMMON] PTR int 
  7075 ;;  ff2             4    4[COMMON] PTR int 
  7076 ;; Auto vars:     Size  Location     Type
  7077 ;;		None
  7078 ;; Return value:  Size  Location     Type
  7079 ;;		None               void
  7080 ;; Registers used:
  7081 ;;		wreg, status,2, status,0
  7082 ;; Tracked objects:
  7083 ;;		On entry : 0/0
  7084 ;;		On exit  : 0/0
  7085 ;;		Unchanged: 0/0
  7086 ;; Data sizes:     COMMON   BANK0   BANK1   BANK3   BANK2
  7087 ;;      Params:         8       0       0       0       0
  7088 ;;      Locals:         0       0       0       0       0
  7089 ;;      Temps:          4       0       0       0       0
  7090 ;;      Totals:        12       0       0       0       0
  7091 ;;Total ram usage:       12 bytes
  7092 ;; Hardware stack levels used: 1
  7093 ;; This function calls:
  7094 ;;		Nothing
  7095 ;; This function is called by:
  7096 ;;		_log
  7097 ;;		_frexp
  7098 ;; This function uses a non-reentrant model
  7099 ;;
  7100                           
  7101  1364                     ___fleq:	
  7102                           ;psect for function ___fleq
  7103                           
  7104  1364                     i1l2356:	
  7105                           ;incstack = 0
  7106                           ; Regs used in ___fleq: [wreg+status,2+status,0]
  7107                           
  7108  1364  3000               	movlw	0
  7109  1365  0570               	andwf	___fleq@ff1,w
  7110  1366  00F8               	movwf	??___fleq
  7111  1367  3000               	movlw	0
  7112  1368  0571               	andwf	___fleq@ff1+1,w
  7113  1369  00F9               	movwf	??___fleq+1
  7114  136A  3080               	movlw	128
  7115  136B  0572               	andwf	___fleq@ff1+2,w
  7116  136C  00FA               	movwf	??___fleq+2
  7117  136D  307F               	movlw	127
  7118  136E  0573               	andwf	___fleq@ff1+3,w
  7119  136F  00FB               	movwf	??___fleq+3
  7120  1370  087B               	movf	??___fleq+3,w
  7121  1371  047A               	iorwf	??___fleq+2,w
  7122  1372  0479               	iorwf	??___fleq+1,w
  7123  1373  0478               	iorwf	??___fleq,w
  7124  1374  1D03               	skipz
  7125  1375  2B77               	goto	u228_21
  7126  1376  2B78               	goto	u228_20
  7127  1377                     u228_21:
  7128  1377  2B80               	goto	i1l571
  7129  1378                     u228_20:
  7130  1378                     i1l2358:
  7131  1378  3000               	movlw	0
  7132  1379  00F3               	movwf	___fleq@ff1+3
  7133  137A  3000               	movlw	0
  7134  137B  00F2               	movwf	___fleq@ff1+2
  7135  137C  3000               	movlw	0
  7136  137D  00F1               	movwf	___fleq@ff1+1
  7137  137E  3000               	movlw	0
  7138  137F  00F0               	movwf	___fleq@ff1
  7139  1380                     i1l571:
  7140  1380  3000               	movlw	0
  7141  1381  0574               	andwf	___fleq@ff2,w
  7142  1382  00F8               	movwf	??___fleq
  7143  1383  3000               	movlw	0
  7144  1384  0575               	andwf	___fleq@ff2+1,w
  7145  1385  00F9               	movwf	??___fleq+1
  7146  1386  3080               	movlw	128
  7147  1387  0576               	andwf	___fleq@ff2+2,w
  7148  1388  00FA               	movwf	??___fleq+2
  7149  1389  307F               	movlw	127
  7150  138A  0577               	andwf	___fleq@ff2+3,w
  7151  138B  00FB               	movwf	??___fleq+3
  7152  138C  087B               	movf	??___fleq+3,w
  7153  138D  047A               	iorwf	??___fleq+2,w
  7154  138E  0479               	iorwf	??___fleq+1,w
  7155  138F  0478               	iorwf	??___fleq,w
  7156  1390  1D03               	skipz
  7157  1391  2B93               	goto	u229_21
  7158  1392  2B94               	goto	u229_20
  7159  1393                     u229_21:
  7160  1393  2B9C               	goto	i1l572
  7161  1394                     u229_20:
  7162  1394                     i1l2360:
  7163  1394  3000               	movlw	0
  7164  1395  00F7               	movwf	___fleq@ff2+3
  7165  1396  3000               	movlw	0
  7166  1397  00F6               	movwf	___fleq@ff2+2
  7167  1398  3000               	movlw	0
  7168  1399  00F5               	movwf	___fleq@ff2+1
  7169  139A  3000               	movlw	0
  7170  139B  00F4               	movwf	___fleq@ff2
  7171  139C                     i1l572:
  7172  139C  0877               	movf	___fleq@ff2+3,w
  7173  139D  0673               	xorwf	___fleq@ff1+3,w
  7174  139E  1D03               	skipz
  7175  139F  2BAA               	goto	u230_25
  7176  13A0  0876               	movf	___fleq@ff2+2,w
  7177  13A1  0672               	xorwf	___fleq@ff1+2,w
  7178  13A2  1D03               	skipz
  7179  13A3  2BAA               	goto	u230_25
  7180  13A4  0875               	movf	___fleq@ff2+1,w
  7181  13A5  0671               	xorwf	___fleq@ff1+1,w
  7182  13A6  1D03               	skipz
  7183  13A7  2BAA               	goto	u230_25
  7184  13A8  0874               	movf	___fleq@ff2,w
  7185  13A9  0670               	xorwf	___fleq@ff1,w
  7186  13AA                     u230_25:
  7187  13AA  1903               	skipnz
  7188  13AB  2BAD               	goto	u230_21
  7189  13AC  2BAE               	goto	u230_20
  7190  13AD                     u230_21:
  7191  13AD  2BB0               	goto	i1l2364
  7192  13AE                     u230_20:
  7193  13AE                     i1l2362:
  7194  13AE  1003               	clrc
  7195  13AF  2BB1               	goto	i1l573
  7196  13B0                     i1l2364:
  7197  13B0  1403               	setc
  7198  13B1                     i1l573:
  7199  13B1  0008               	return
  7200  13B2                     __end_of___fleq:
  7201                           
  7202                           	psect	text30
  7203  1762                     __ptext30:	
  7204 ;; *************** function _eval_poly *****************
  7205 ;; Defined at:
  7206 ;;		line 4 in file "C:\Program Files\Microchip\xc8\v2.35\pic\sources\c90\common\evalpoly.c"
  7207 ;; Parameters:    Size  Location     Type
  7208 ;;  x               4   56[BANK0 ] PTR int 
  7209 ;;  d               1   60[BANK0 ] PTR const 
  7210 ;;		 -> log@coeff(36), 
  7211 ;;  n               2   61[BANK0 ] int 
  7212 ;; Auto vars:     Size  Location     Type
  7213 ;;  res             4   68[BANK0 ] int 
  7214 ;; Return value:  Size  Location     Type
  7215 ;;                  4   56[BANK0 ] int 
  7216 ;; Registers used:
  7217 ;;		wreg, fsr0l, fsr0h, status,2, status,0, btemp+1, pclath, cstack
  7218 ;; Tracked objects:
  7219 ;;		On entry : 0/0
  7220 ;;		On exit  : 0/0
  7221 ;;		Unchanged: 0/0
  7222 ;; Data sizes:     COMMON   BANK0   BANK1   BANK3   BANK2
  7223 ;;      Params:         0       7       0       0       0
  7224 ;;      Locals:         0       4       0       0       0
  7225 ;;      Temps:          0       5       0       0       0
  7226 ;;      Totals:         0      16       0       0       0
  7227 ;;Total ram usage:       16 bytes
  7228 ;; Hardware stack levels used: 1
  7229 ;; Hardware stack levels required when called: 2
  7230 ;; This function calls:
  7231 ;;		___fladd
  7232 ;;		___flmul
  7233 ;; This function is called by:
  7234 ;;		_log
  7235 ;; This function uses a non-reentrant model
  7236 ;;
  7237                           
  7238  1762                     _eval_poly:	
  7239                           ;psect for function _eval_poly
  7240                           
  7241  1762                     i1l3090:	
  7242                           ;incstack = 0
  7243 ;; using string table level
  7244                           ; Regs used in _eval_poly: [wreg-fsr0h+status,2+status,0+btemp+1+pclath+cstack]
  7245                           
  7246  1762  1283               	bcf	3,5	;RP0=0, select bank0
  7247  1763  1303               	bcf	3,6	;RP1=0, select bank0
  7248  1764  085D               	movf	eval_poly@n,w
  7249  1765  00DF               	movwf	??_eval_poly
  7250  1766  3001               	movlw	1
  7251  1767                     u374_25:
  7252  1767  1003               	clrc
  7253  1768  0DDF               	rlf	??_eval_poly,f
  7254  1769  3EFF               	addlw	-1
  7255  176A  1D03               	skipz
  7256  176B  2F67               	goto	u374_25
  7257  176C  1003               	clrc
  7258  176D  0D5F               	rlf	??_eval_poly,w
  7259  176E  075C               	addwf	eval_poly@d,w
  7260  176F  0084               	movwf	4
  7261  1770  160A  118A  2000  160A  118A  	fcall	stringdir
  7262  1775  00E0               	movwf	??_eval_poly+1
  7263  1776  160A  118A  2000  160A  118A  	fcall	stringdir
  7264  177B  00E1               	movwf	??_eval_poly+2
  7265  177C  160A  118A  2000  160A  118A  	fcall	stringdir
  7266  1781  00E2               	movwf	??_eval_poly+3
  7267  1782  160A  118A  2000  160A  118A  	fcall	stringdir
  7268  1787  00E3               	movwf	??_eval_poly+4
  7269  1788  0863               	movf	??_eval_poly+4,w
  7270  1789  00E7               	movwf	eval_poly@res+3
  7271  178A  0862               	movf	??_eval_poly+3,w
  7272  178B  00E6               	movwf	eval_poly@res+2
  7273  178C  0861               	movf	??_eval_poly+2,w
  7274  178D  00E5               	movwf	eval_poly@res+1
  7275  178E  0860               	movf	??_eval_poly+1,w
  7276  178F  00E4               	movwf	eval_poly@res
  7277  1790  2FF1               	goto	i1l3094
  7278  1791                     i1l3092:
  7279  1791  30FF               	movlw	255
  7280  1792  07DD               	addwf	eval_poly@n,f
  7281  1793  1803               	skipnc
  7282  1794  0ADE               	incf	eval_poly@n+1,f
  7283  1795  30FF               	movlw	255
  7284  1796  07DE               	addwf	eval_poly@n+1,f
  7285  1797  085D               	movf	eval_poly@n,w
  7286  1798  00DF               	movwf	??_eval_poly
  7287  1799  3001               	movlw	1
  7288  179A                     u375_25:
  7289  179A  1003               	clrc
  7290  179B  0DDF               	rlf	??_eval_poly,f
  7291  179C  3EFF               	addlw	-1
  7292  179D  1D03               	skipz
  7293  179E  2F9A               	goto	u375_25
  7294  179F  1003               	clrc
  7295  17A0  0D5F               	rlf	??_eval_poly,w
  7296  17A1  075C               	addwf	eval_poly@d,w
  7297  17A2  0084               	movwf	4
  7298  17A3  160A  118A  2000  160A  118A  	fcall	stringdir
  7299  17A8  00E0               	movwf	??_eval_poly+1
  7300  17A9  160A  118A  2000  160A  118A  	fcall	stringdir
  7301  17AE  00E1               	movwf	??_eval_poly+2
  7302  17AF  160A  118A  2000  160A  118A  	fcall	stringdir
  7303  17B4  00E2               	movwf	??_eval_poly+3
  7304  17B5  160A  118A  2000  160A  118A  	fcall	stringdir
  7305  17BA  00E3               	movwf	??_eval_poly+4
  7306  17BB  0863               	movf	??_eval_poly+4,w
  7307  17BC  00AD               	movwf	___fladd@b+3
  7308  17BD  0862               	movf	??_eval_poly+3,w
  7309  17BE  00AC               	movwf	___fladd@b+2
  7310  17BF  0861               	movf	??_eval_poly+2,w
  7311  17C0  00AB               	movwf	___fladd@b+1
  7312  17C1  0860               	movf	??_eval_poly+1,w
  7313  17C2  00AA               	movwf	___fladd@b
  7314  17C3  0867               	movf	eval_poly@res+3,w
  7315  17C4  00C1               	movwf	___flmul@b+3
  7316  17C5  0866               	movf	eval_poly@res+2,w
  7317  17C6  00C0               	movwf	___flmul@b+2
  7318  17C7  0865               	movf	eval_poly@res+1,w
  7319  17C8  00BF               	movwf	___flmul@b+1
  7320  17C9  0864               	movf	eval_poly@res,w
  7321  17CA  00BE               	movwf	___flmul@b
  7322  17CB  085B               	movf	eval_poly@x+3,w
  7323  17CC  00C5               	movwf	___flmul@a+3
  7324  17CD  085A               	movf	eval_poly@x+2,w
  7325  17CE  00C4               	movwf	___flmul@a+2
  7326  17CF  0859               	movf	eval_poly@x+1,w
  7327  17D0  00C3               	movwf	___flmul@a+1
  7328  17D1  0858               	movf	eval_poly@x,w
  7329  17D2  00C2               	movwf	___flmul@a
  7330  17D3  120A  118A  204D  160A  118A  	fcall	___flmul
  7331  17D8  1283               	bcf	3,5	;RP0=0, select bank0
  7332  17D9  1303               	bcf	3,6	;RP1=0, select bank0
  7333  17DA  0841               	movf	?___flmul+3,w
  7334  17DB  00B1               	movwf	___fladd@a+3
  7335  17DC  0840               	movf	?___flmul+2,w
  7336  17DD  00B0               	movwf	___fladd@a+2
  7337  17DE  083F               	movf	?___flmul+1,w
  7338  17DF  00AF               	movwf	___fladd@a+1
  7339  17E0  083E               	movf	?___flmul,w
  7340  17E1  00AE               	movwf	___fladd@a
  7341  17E2  120A  158A  22D8  160A  118A  	fcall	___fladd
  7342  17E7  1283               	bcf	3,5	;RP0=0, select bank0
  7343  17E8  1303               	bcf	3,6	;RP1=0, select bank0
  7344  17E9  082D               	movf	?___fladd+3,w
  7345  17EA  00E7               	movwf	eval_poly@res+3
  7346  17EB  082C               	movf	?___fladd+2,w
  7347  17EC  00E6               	movwf	eval_poly@res+2
  7348  17ED  082B               	movf	?___fladd+1,w
  7349  17EE  00E5               	movwf	eval_poly@res+1
  7350  17EF  082A               	movf	?___fladd,w
  7351  17F0  00E4               	movwf	eval_poly@res
  7352  17F1                     i1l3094:
  7353  17F1  085D               	movf	eval_poly@n,w
  7354  17F2  045E               	iorwf	eval_poly@n+1,w
  7355  17F3  1D03               	btfss	3,2
  7356  17F4  2FF6               	goto	u376_21
  7357  17F5  2FF7               	goto	u376_20
  7358  17F6                     u376_21:
  7359  17F6  2F91               	goto	i1l3092
  7360  17F7                     u376_20:
  7361  17F7                     i1l3096:
  7362  17F7  0867               	movf	eval_poly@res+3,w
  7363  17F8  00DB               	movwf	?_eval_poly+3
  7364  17F9  0866               	movf	eval_poly@res+2,w
  7365  17FA  00DA               	movwf	?_eval_poly+2
  7366  17FB  0865               	movf	eval_poly@res+1,w
  7367  17FC  00D9               	movwf	?_eval_poly+1
  7368  17FD  0864               	movf	eval_poly@res,w
  7369  17FE  00D8               	movwf	?_eval_poly
  7370  17FF                     i1l874:
  7371  17FF  0008               	return
  7372  1800                     __end_of_eval_poly:
  7373                           
  7374                           	psect	text31
  7375  004D                     __ptext31:	
  7376 ;; *************** function ___flmul *****************
  7377 ;; Defined at:
  7378 ;;		line 8 in file "C:\Program Files\Microchip\xc8\v2.35\pic\sources\c90\common\sprcmul.c"
  7379 ;; Parameters:    Size  Location     Type
  7380 ;;  b               4   30[BANK0 ] int 
  7381 ;;  a               4   34[BANK0 ] int 
  7382 ;; Auto vars:     Size  Location     Type
  7383 ;;  prod            4   50[BANK0 ] struct .
  7384 ;;  grs             4   44[BANK0 ] unsigned long 
  7385 ;;  temp            2   54[BANK0 ] struct .
  7386 ;;  bexp            1   49[BANK0 ] unsigned char 
  7387 ;;  aexp            1   48[BANK0 ] unsigned char 
  7388 ;;  sign            1   43[BANK0 ] unsigned char 
  7389 ;; Return value:  Size  Location     Type
  7390 ;;                  4   30[BANK0 ] unsigned char 
  7391 ;; Registers used:
  7392 ;;		wreg, status,2, status,0, btemp+1, pclath, cstack
  7393 ;; Tracked objects:
  7394 ;;		On entry : 0/0
  7395 ;;		On exit  : 0/0
  7396 ;;		Unchanged: 0/0
  7397 ;; Data sizes:     COMMON   BANK0   BANK1   BANK3   BANK2
  7398 ;;      Params:         0       8       0       0       0
  7399 ;;      Locals:         0      13       0       0       0
  7400 ;;      Temps:          0       5       0       0       0
  7401 ;;      Totals:         0      26       0       0       0
  7402 ;;Total ram usage:       26 bytes
  7403 ;; Hardware stack levels used: 1
  7404 ;; Hardware stack levels required when called: 1
  7405 ;; This function calls:
  7406 ;;		__Umul8_16
  7407 ;; This function is called by:
  7408 ;;		_slave
  7409 ;;		_map
  7410 ;;		_log
  7411 ;;		_eval_poly
  7412 ;; This function uses a non-reentrant model
  7413 ;;
  7414                           
  7415  004D                     ___flmul:	
  7416                           ;psect for function ___flmul
  7417                           
  7418  004D                     i1l2562:	
  7419                           ;incstack = 0
  7420                           ; Regs used in ___flmul: [wreg+status,2+status,0+btemp+1+pclath+cstack]
  7421                           
  7422  004D  1283               	bcf	3,5	;RP0=0, select bank0
  7423  004E  1303               	bcf	3,6	;RP1=0, select bank0
  7424  004F  0841               	movf	___flmul@b+3,w
  7425  0050  3980               	andlw	128
  7426  0051  00C6               	movwf	??___flmul
  7427  0052  0846               	movf	??___flmul,w
  7428  0053  00CB               	movwf	___flmul@sign
  7429  0054                     i1l2564:
  7430  0054  0841               	movf	___flmul@b+3,w
  7431  0055  00C6               	movwf	??___flmul
  7432  0056  0746               	addwf	??___flmul,w
  7433  0057  00C7               	movwf	??___flmul+1
  7434  0058  0847               	movf	??___flmul+1,w
  7435  0059  00D1               	movwf	___flmul@bexp
  7436  005A                     i1l2566:
  7437  005A  1FC0               	btfss	___flmul@b+2,7
  7438  005B  285D               	goto	u277_21
  7439  005C  285E               	goto	u277_20
  7440  005D                     u277_21:
  7441  005D  285F               	goto	i1l2570
  7442  005E                     u277_20:
  7443  005E                     i1l2568:
  7444  005E  1451               	bsf	___flmul@bexp,0
  7445  005F                     i1l2570:
  7446  005F  0851               	movf	___flmul@bexp,w
  7447  0060  1903               	btfsc	3,2
  7448  0061  2863               	goto	u278_21
  7449  0062  2864               	goto	u278_20
  7450  0063                     u278_21:
  7451  0063  2873               	goto	i1l2578
  7452  0064                     u278_20:
  7453  0064                     i1l2572:
  7454  0064  0A51               	incf	___flmul@bexp,w
  7455  0065  1D03               	btfss	3,2
  7456  0066  2868               	goto	u279_21
  7457  0067  2869               	goto	u279_20
  7458  0068                     u279_21:
  7459  0068  2871               	goto	i1l2576
  7460  0069                     u279_20:
  7461  0069                     i1l2574:
  7462  0069  3000               	movlw	0
  7463  006A  00C1               	movwf	___flmul@b+3
  7464  006B  3000               	movlw	0
  7465  006C  00C0               	movwf	___flmul@b+2
  7466  006D  3000               	movlw	0
  7467  006E  00BF               	movwf	___flmul@b+1
  7468  006F  3000               	movlw	0
  7469  0070  00BE               	movwf	___flmul@b
  7470  0071                     i1l2576:
  7471  0071  17C0               	bsf	___flmul@b+2,7
  7472  0072  287B               	goto	i1l2580
  7473  0073                     i1l2578:
  7474  0073  3000               	movlw	0
  7475  0074  00C1               	movwf	___flmul@b+3
  7476  0075  3000               	movlw	0
  7477  0076  00C0               	movwf	___flmul@b+2
  7478  0077  3000               	movlw	0
  7479  0078  00BF               	movwf	___flmul@b+1
  7480  0079  3000               	movlw	0
  7481  007A  00BE               	movwf	___flmul@b
  7482  007B                     i1l2580:
  7483  007B  0845               	movf	___flmul@a+3,w
  7484  007C  3980               	andlw	128
  7485  007D  00C6               	movwf	??___flmul
  7486  007E  0846               	movf	??___flmul,w
  7487  007F  06CB               	xorwf	___flmul@sign,f
  7488  0080                     i1l2582:
  7489  0080  0845               	movf	___flmul@a+3,w
  7490  0081  00C6               	movwf	??___flmul
  7491  0082  0746               	addwf	??___flmul,w
  7492  0083  00C7               	movwf	??___flmul+1
  7493  0084  0847               	movf	??___flmul+1,w
  7494  0085  00D0               	movwf	___flmul@aexp
  7495  0086                     i1l2584:
  7496  0086  1FC4               	btfss	___flmul@a+2,7
  7497  0087  2889               	goto	u280_21
  7498  0088  288A               	goto	u280_20
  7499  0089                     u280_21:
  7500  0089  288B               	goto	i1l2588
  7501  008A                     u280_20:
  7502  008A                     i1l2586:
  7503  008A  1450               	bsf	___flmul@aexp,0
  7504  008B                     i1l2588:
  7505  008B  0850               	movf	___flmul@aexp,w
  7506  008C  1903               	btfsc	3,2
  7507  008D  288F               	goto	u281_21
  7508  008E  2890               	goto	u281_20
  7509  008F                     u281_21:
  7510  008F  289F               	goto	i1l2596
  7511  0090                     u281_20:
  7512  0090                     i1l2590:
  7513  0090  0A50               	incf	___flmul@aexp,w
  7514  0091  1D03               	btfss	3,2
  7515  0092  2894               	goto	u282_21
  7516  0093  2895               	goto	u282_20
  7517  0094                     u282_21:
  7518  0094  289D               	goto	i1l2594
  7519  0095                     u282_20:
  7520  0095                     i1l2592:
  7521  0095  3000               	movlw	0
  7522  0096  00C5               	movwf	___flmul@a+3
  7523  0097  3000               	movlw	0
  7524  0098  00C4               	movwf	___flmul@a+2
  7525  0099  3000               	movlw	0
  7526  009A  00C3               	movwf	___flmul@a+1
  7527  009B  3000               	movlw	0
  7528  009C  00C2               	movwf	___flmul@a
  7529  009D                     i1l2594:
  7530  009D  17C4               	bsf	___flmul@a+2,7
  7531  009E  28A7               	goto	i1l2598
  7532  009F                     i1l2596:
  7533  009F  3000               	movlw	0
  7534  00A0  00C5               	movwf	___flmul@a+3
  7535  00A1  3000               	movlw	0
  7536  00A2  00C4               	movwf	___flmul@a+2
  7537  00A3  3000               	movlw	0
  7538  00A4  00C3               	movwf	___flmul@a+1
  7539  00A5  3000               	movlw	0
  7540  00A6  00C2               	movwf	___flmul@a
  7541  00A7                     i1l2598:
  7542  00A7  0850               	movf	___flmul@aexp,w
  7543  00A8  1903               	btfsc	3,2
  7544  00A9  28AB               	goto	u283_21
  7545  00AA  28AC               	goto	u283_20
  7546  00AB                     u283_21:
  7547  00AB  28B1               	goto	i1l2602
  7548  00AC                     u283_20:
  7549  00AC                     i1l2600:
  7550  00AC  0851               	movf	___flmul@bexp,w
  7551  00AD  1D03               	btfss	3,2
  7552  00AE  28B0               	goto	u284_21
  7553  00AF  28B1               	goto	u284_20
  7554  00B0                     u284_21:
  7555  00B0  28BA               	goto	i1l2606
  7556  00B1                     u284_20:
  7557  00B1                     i1l2602:
  7558  00B1  3000               	movlw	0
  7559  00B2  00C1               	movwf	?___flmul+3
  7560  00B3  3000               	movlw	0
  7561  00B4  00C0               	movwf	?___flmul+2
  7562  00B5  3000               	movlw	0
  7563  00B6  00BF               	movwf	?___flmul+1
  7564  00B7  3000               	movlw	0
  7565  00B8  00BE               	movwf	?___flmul
  7566  00B9  2BAD               	goto	i1l791
  7567  00BA                     i1l2606:
  7568  00BA  083E               	movf	___flmul@b,w
  7569  00BB  00C6               	movwf	??___flmul
  7570  00BC  0846               	movf	??___flmul,w
  7571  00BD  00F0               	movwf	__Umul8_16@multiplicand
  7572  00BE  0844               	movf	___flmul@a+2,w
  7573  00BF  160A  118A  21A8  120A  118A  	fcall	__Umul8_16
  7574  00C4  0871               	movf	?__Umul8_16+1,w
  7575  00C5  1283               	bcf	3,5	;RP0=0, select bank0
  7576  00C6  1303               	bcf	3,6	;RP1=0, select bank0
  7577  00C7  00D7               	movwf	___flmul@temp+1
  7578  00C8  0870               	movf	?__Umul8_16,w
  7579  00C9  00D6               	movwf	___flmul@temp
  7580  00CA                     i1l2608:
  7581  00CA  0856               	movf	___flmul@temp,w
  7582  00CB  00C6               	movwf	??___flmul
  7583  00CC  01C7               	clrf	??___flmul+1
  7584  00CD  01C8               	clrf	??___flmul+2
  7585  00CE  01C9               	clrf	??___flmul+3
  7586  00CF  0849               	movf	??___flmul+3,w
  7587  00D0  00CF               	movwf	___flmul@grs+3
  7588  00D1  0848               	movf	??___flmul+2,w
  7589  00D2  00CE               	movwf	___flmul@grs+2
  7590  00D3  0847               	movf	??___flmul+1,w
  7591  00D4  00CD               	movwf	___flmul@grs+1
  7592  00D5  0846               	movf	??___flmul,w
  7593  00D6  00CC               	movwf	___flmul@grs
  7594  00D7                     i1l2610:
  7595  00D7  0857               	movf	___flmul@temp+1,w
  7596  00D8  00C6               	movwf	??___flmul
  7597  00D9  01C7               	clrf	??___flmul+1
  7598  00DA  01C8               	clrf	??___flmul+2
  7599  00DB  01C9               	clrf	??___flmul+3
  7600  00DC  0849               	movf	??___flmul+3,w
  7601  00DD  00D5               	movwf	___flmul@prod+3
  7602  00DE  0848               	movf	??___flmul+2,w
  7603  00DF  00D4               	movwf	___flmul@prod+2
  7604  00E0  0847               	movf	??___flmul+1,w
  7605  00E1  00D3               	movwf	___flmul@prod+1
  7606  00E2  0846               	movf	??___flmul,w
  7607  00E3  00D2               	movwf	___flmul@prod
  7608  00E4  083F               	movf	___flmul@b+1,w
  7609  00E5  00C6               	movwf	??___flmul
  7610  00E6  0846               	movf	??___flmul,w
  7611  00E7  00F0               	movwf	__Umul8_16@multiplicand
  7612  00E8  0843               	movf	___flmul@a+1,w
  7613  00E9  160A  118A  21A8  120A  118A  	fcall	__Umul8_16
  7614  00EE  0871               	movf	?__Umul8_16+1,w
  7615  00EF  1283               	bcf	3,5	;RP0=0, select bank0
  7616  00F0  1303               	bcf	3,6	;RP1=0, select bank0
  7617  00F1  00D7               	movwf	___flmul@temp+1
  7618  00F2  0870               	movf	?__Umul8_16,w
  7619  00F3  00D6               	movwf	___flmul@temp
  7620  00F4                     i1l2612:
  7621  00F4  0856               	movf	___flmul@temp,w
  7622  00F5  00C6               	movwf	??___flmul
  7623  00F6  01C7               	clrf	??___flmul+1
  7624  00F7  01C8               	clrf	??___flmul+2
  7625  00F8  01C9               	clrf	??___flmul+3
  7626  00F9  0846               	movf	??___flmul,w
  7627  00FA  07CC               	addwf	___flmul@grs,f
  7628  00FB  0847               	movf	??___flmul+1,w
  7629  00FC  1103               	clrz
  7630  00FD  1803               	skipnc
  7631  00FE  3E01               	addlw	1
  7632  00FF  1903               	skipnz
  7633  0100  2902               	goto	u285_21
  7634  0101  07CD               	addwf	___flmul@grs+1,f
  7635  0102                     u285_21:
  7636  0102  0848               	movf	??___flmul+2,w
  7637  0103  1103               	clrz
  7638  0104  1803               	skipnc
  7639  0105  3E01               	addlw	1
  7640  0106  1903               	skipnz
  7641  0107  2909               	goto	u285_22
  7642  0108  07CE               	addwf	___flmul@grs+2,f
  7643  0109                     u285_22:
  7644  0109  0849               	movf	??___flmul+3,w
  7645  010A  1103               	clrz
  7646  010B  1803               	skipnc
  7647  010C  3E01               	addlw	1
  7648  010D  1903               	skipnz
  7649  010E  2910               	goto	u285_23
  7650  010F  07CF               	addwf	___flmul@grs+3,f
  7651  0110                     u285_23:
  7652  0110                     i1l2614:
  7653  0110  0857               	movf	___flmul@temp+1,w
  7654  0111  00C6               	movwf	??___flmul
  7655  0112  01C7               	clrf	??___flmul+1
  7656  0113  01C8               	clrf	??___flmul+2
  7657  0114  01C9               	clrf	??___flmul+3
  7658  0115  0846               	movf	??___flmul,w
  7659  0116  07D2               	addwf	___flmul@prod,f
  7660  0117  0847               	movf	??___flmul+1,w
  7661  0118  1103               	clrz
  7662  0119  1803               	skipnc
  7663  011A  3E01               	addlw	1
  7664  011B  1903               	skipnz
  7665  011C  291E               	goto	u286_21
  7666  011D  07D3               	addwf	___flmul@prod+1,f
  7667  011E                     u286_21:
  7668  011E  0848               	movf	??___flmul+2,w
  7669  011F  1103               	clrz
  7670  0120  1803               	skipnc
  7671  0121  3E01               	addlw	1
  7672  0122  1903               	skipnz
  7673  0123  2925               	goto	u286_22
  7674  0124  07D4               	addwf	___flmul@prod+2,f
  7675  0125                     u286_22:
  7676  0125  0849               	movf	??___flmul+3,w
  7677  0126  1103               	clrz
  7678  0127  1803               	skipnc
  7679  0128  3E01               	addlw	1
  7680  0129  1903               	skipnz
  7681  012A  292C               	goto	u286_23
  7682  012B  07D5               	addwf	___flmul@prod+3,f
  7683  012C                     u286_23:
  7684  012C  0840               	movf	___flmul@b+2,w
  7685  012D  00C6               	movwf	??___flmul
  7686  012E  0846               	movf	??___flmul,w
  7687  012F  00F0               	movwf	__Umul8_16@multiplicand
  7688  0130  0842               	movf	___flmul@a,w
  7689  0131  160A  118A  21A8  120A  118A  	fcall	__Umul8_16
  7690  0136  0871               	movf	?__Umul8_16+1,w
  7691  0137  1283               	bcf	3,5	;RP0=0, select bank0
  7692  0138  1303               	bcf	3,6	;RP1=0, select bank0
  7693  0139  00D7               	movwf	___flmul@temp+1
  7694  013A  0870               	movf	?__Umul8_16,w
  7695  013B  00D6               	movwf	___flmul@temp
  7696  013C                     i1l2616:
  7697  013C  0856               	movf	___flmul@temp,w
  7698  013D  00C6               	movwf	??___flmul
  7699  013E  01C7               	clrf	??___flmul+1
  7700  013F  01C8               	clrf	??___flmul+2
  7701  0140  01C9               	clrf	??___flmul+3
  7702  0141  0846               	movf	??___flmul,w
  7703  0142  07CC               	addwf	___flmul@grs,f
  7704  0143  0847               	movf	??___flmul+1,w
  7705  0144  1103               	clrz
  7706  0145  1803               	skipnc
  7707  0146  3E01               	addlw	1
  7708  0147  1903               	skipnz
  7709  0148  294A               	goto	u287_21
  7710  0149  07CD               	addwf	___flmul@grs+1,f
  7711  014A                     u287_21:
  7712  014A  0848               	movf	??___flmul+2,w
  7713  014B  1103               	clrz
  7714  014C  1803               	skipnc
  7715  014D  3E01               	addlw	1
  7716  014E  1903               	skipnz
  7717  014F  2951               	goto	u287_22
  7718  0150  07CE               	addwf	___flmul@grs+2,f
  7719  0151                     u287_22:
  7720  0151  0849               	movf	??___flmul+3,w
  7721  0152  1103               	clrz
  7722  0153  1803               	skipnc
  7723  0154  3E01               	addlw	1
  7724  0155  1903               	skipnz
  7725  0156  2958               	goto	u287_23
  7726  0157  07CF               	addwf	___flmul@grs+3,f
  7727  0158                     u287_23:
  7728  0158                     i1l2618:
  7729  0158  0857               	movf	___flmul@temp+1,w
  7730  0159  00C6               	movwf	??___flmul
  7731  015A  01C7               	clrf	??___flmul+1
  7732  015B  01C8               	clrf	??___flmul+2
  7733  015C  01C9               	clrf	??___flmul+3
  7734  015D  0846               	movf	??___flmul,w
  7735  015E  07D2               	addwf	___flmul@prod,f
  7736  015F  0847               	movf	??___flmul+1,w
  7737  0160  1103               	clrz
  7738  0161  1803               	skipnc
  7739  0162  3E01               	addlw	1
  7740  0163  1903               	skipnz
  7741  0164  2966               	goto	u288_21
  7742  0165  07D3               	addwf	___flmul@prod+1,f
  7743  0166                     u288_21:
  7744  0166  0848               	movf	??___flmul+2,w
  7745  0167  1103               	clrz
  7746  0168  1803               	skipnc
  7747  0169  3E01               	addlw	1
  7748  016A  1903               	skipnz
  7749  016B  296D               	goto	u288_22
  7750  016C  07D4               	addwf	___flmul@prod+2,f
  7751  016D                     u288_22:
  7752  016D  0849               	movf	??___flmul+3,w
  7753  016E  1103               	clrz
  7754  016F  1803               	skipnc
  7755  0170  3E01               	addlw	1
  7756  0171  1903               	skipnz
  7757  0172  2974               	goto	u288_23
  7758  0173  07D5               	addwf	___flmul@prod+3,f
  7759  0174                     u288_23:
  7760  0174                     i1l2620:
  7761  0174  3008               	movlw	8
  7762  0175  00C6               	movwf	??___flmul
  7763  0176                     u289_25:
  7764  0176  1003               	clrc
  7765  0177  0DCC               	rlf	___flmul@grs,f
  7766  0178  0DCD               	rlf	___flmul@grs+1,f
  7767  0179  0DCE               	rlf	___flmul@grs+2,f
  7768  017A  0DCF               	rlf	___flmul@grs+3,f
  7769  017B  0BC6               	decfsz	??___flmul,f
  7770  017C  2976               	goto	u289_25
  7771  017D                     i1l2622:
  7772  017D  083F               	movf	___flmul@b+1,w
  7773  017E  00C6               	movwf	??___flmul
  7774  017F  0846               	movf	??___flmul,w
  7775  0180  00F0               	movwf	__Umul8_16@multiplicand
  7776  0181  0842               	movf	___flmul@a,w
  7777  0182  160A  118A  21A8  120A  118A  	fcall	__Umul8_16
  7778  0187  0871               	movf	?__Umul8_16+1,w
  7779  0188  1283               	bcf	3,5	;RP0=0, select bank0
  7780  0189  1303               	bcf	3,6	;RP1=0, select bank0
  7781  018A  00D7               	movwf	___flmul@temp+1
  7782  018B  0870               	movf	?__Umul8_16,w
  7783  018C  00D6               	movwf	___flmul@temp
  7784  018D                     i1l2624:
  7785  018D  0856               	movf	___flmul@temp,w
  7786  018E  00C6               	movwf	??___flmul
  7787  018F  0857               	movf	___flmul@temp+1,w
  7788  0190  00C7               	movwf	??___flmul+1
  7789  0191  01C8               	clrf	??___flmul+2
  7790  0192  01C9               	clrf	??___flmul+3
  7791  0193  0846               	movf	??___flmul,w
  7792  0194  07CC               	addwf	___flmul@grs,f
  7793  0195  0847               	movf	??___flmul+1,w
  7794  0196  1103               	clrz
  7795  0197  1803               	skipnc
  7796  0198  3E01               	addlw	1
  7797  0199  1903               	skipnz
  7798  019A  299C               	goto	u290_21
  7799  019B  07CD               	addwf	___flmul@grs+1,f
  7800  019C                     u290_21:
  7801  019C  0848               	movf	??___flmul+2,w
  7802  019D  1103               	clrz
  7803  019E  1803               	skipnc
  7804  019F  3E01               	addlw	1
  7805  01A0  1903               	skipnz
  7806  01A1  29A3               	goto	u290_22
  7807  01A2  07CE               	addwf	___flmul@grs+2,f
  7808  01A3                     u290_22:
  7809  01A3  0849               	movf	??___flmul+3,w
  7810  01A4  1103               	clrz
  7811  01A5  1803               	skipnc
  7812  01A6  3E01               	addlw	1
  7813  01A7  1903               	skipnz
  7814  01A8  29AA               	goto	u290_23
  7815  01A9  07CF               	addwf	___flmul@grs+3,f
  7816  01AA                     u290_23:
  7817  01AA                     i1l2626:
  7818  01AA  083E               	movf	___flmul@b,w
  7819  01AB  00C6               	movwf	??___flmul
  7820  01AC  0846               	movf	??___flmul,w
  7821  01AD  00F0               	movwf	__Umul8_16@multiplicand
  7822  01AE  0843               	movf	___flmul@a+1,w
  7823  01AF  160A  118A  21A8  120A  118A  	fcall	__Umul8_16
  7824  01B4  0871               	movf	?__Umul8_16+1,w
  7825  01B5  1283               	bcf	3,5	;RP0=0, select bank0
  7826  01B6  1303               	bcf	3,6	;RP1=0, select bank0
  7827  01B7  00D7               	movwf	___flmul@temp+1
  7828  01B8  0870               	movf	?__Umul8_16,w
  7829  01B9  00D6               	movwf	___flmul@temp
  7830  01BA                     i1l2628:
  7831  01BA  0856               	movf	___flmul@temp,w
  7832  01BB  00C6               	movwf	??___flmul
  7833  01BC  0857               	movf	___flmul@temp+1,w
  7834  01BD  00C7               	movwf	??___flmul+1
  7835  01BE  01C8               	clrf	??___flmul+2
  7836  01BF  01C9               	clrf	??___flmul+3
  7837  01C0  0846               	movf	??___flmul,w
  7838  01C1  07CC               	addwf	___flmul@grs,f
  7839  01C2  0847               	movf	??___flmul+1,w
  7840  01C3  1103               	clrz
  7841  01C4  1803               	skipnc
  7842  01C5  3E01               	addlw	1
  7843  01C6  1903               	skipnz
  7844  01C7  29C9               	goto	u291_21
  7845  01C8  07CD               	addwf	___flmul@grs+1,f
  7846  01C9                     u291_21:
  7847  01C9  0848               	movf	??___flmul+2,w
  7848  01CA  1103               	clrz
  7849  01CB  1803               	skipnc
  7850  01CC  3E01               	addlw	1
  7851  01CD  1903               	skipnz
  7852  01CE  29D0               	goto	u291_22
  7853  01CF  07CE               	addwf	___flmul@grs+2,f
  7854  01D0                     u291_22:
  7855  01D0  0849               	movf	??___flmul+3,w
  7856  01D1  1103               	clrz
  7857  01D2  1803               	skipnc
  7858  01D3  3E01               	addlw	1
  7859  01D4  1903               	skipnz
  7860  01D5  29D7               	goto	u291_23
  7861  01D6  07CF               	addwf	___flmul@grs+3,f
  7862  01D7                     u291_23:
  7863  01D7                     i1l2630:
  7864  01D7  3008               	movlw	8
  7865  01D8  00C6               	movwf	??___flmul
  7866  01D9                     u292_25:
  7867  01D9  1003               	clrc
  7868  01DA  0DCC               	rlf	___flmul@grs,f
  7869  01DB  0DCD               	rlf	___flmul@grs+1,f
  7870  01DC  0DCE               	rlf	___flmul@grs+2,f
  7871  01DD  0DCF               	rlf	___flmul@grs+3,f
  7872  01DE  0BC6               	decfsz	??___flmul,f
  7873  01DF  29D9               	goto	u292_25
  7874  01E0  083E               	movf	___flmul@b,w
  7875  01E1  00C6               	movwf	??___flmul
  7876  01E2  0846               	movf	??___flmul,w
  7877  01E3  00F0               	movwf	__Umul8_16@multiplicand
  7878  01E4  0842               	movf	___flmul@a,w
  7879  01E5  160A  118A  21A8  120A  118A  	fcall	__Umul8_16
  7880  01EA  0871               	movf	?__Umul8_16+1,w
  7881  01EB  1283               	bcf	3,5	;RP0=0, select bank0
  7882  01EC  1303               	bcf	3,6	;RP1=0, select bank0
  7883  01ED  00D7               	movwf	___flmul@temp+1
  7884  01EE  0870               	movf	?__Umul8_16,w
  7885  01EF  00D6               	movwf	___flmul@temp
  7886  01F0                     i1l2632:
  7887  01F0  0856               	movf	___flmul@temp,w
  7888  01F1  00C6               	movwf	??___flmul
  7889  01F2  0857               	movf	___flmul@temp+1,w
  7890  01F3  00C7               	movwf	??___flmul+1
  7891  01F4  01C8               	clrf	??___flmul+2
  7892  01F5  01C9               	clrf	??___flmul+3
  7893  01F6  0846               	movf	??___flmul,w
  7894  01F7  07CC               	addwf	___flmul@grs,f
  7895  01F8  0847               	movf	??___flmul+1,w
  7896  01F9  1103               	clrz
  7897  01FA  1803               	skipnc
  7898  01FB  3E01               	addlw	1
  7899  01FC  1903               	skipnz
  7900  01FD  29FF               	goto	u293_21
  7901  01FE  07CD               	addwf	___flmul@grs+1,f
  7902  01FF                     u293_21:
  7903  01FF  0848               	movf	??___flmul+2,w
  7904  0200  1103               	clrz
  7905  0201  1803               	skipnc
  7906  0202  3E01               	addlw	1
  7907  0203  1903               	skipnz
  7908  0204  2A06               	goto	u293_22
  7909  0205  07CE               	addwf	___flmul@grs+2,f
  7910  0206                     u293_22:
  7911  0206  0849               	movf	??___flmul+3,w
  7912  0207  1103               	clrz
  7913  0208  1803               	skipnc
  7914  0209  3E01               	addlw	1
  7915  020A  1903               	skipnz
  7916  020B  2A0D               	goto	u293_23
  7917  020C  07CF               	addwf	___flmul@grs+3,f
  7918  020D                     u293_23:
  7919  020D                     i1l2634:
  7920  020D  083F               	movf	___flmul@b+1,w
  7921  020E  00C6               	movwf	??___flmul
  7922  020F  0846               	movf	??___flmul,w
  7923  0210  00F0               	movwf	__Umul8_16@multiplicand
  7924  0211  0844               	movf	___flmul@a+2,w
  7925  0212  160A  118A  21A8  120A  118A  	fcall	__Umul8_16
  7926  0217  0871               	movf	?__Umul8_16+1,w
  7927  0218  1283               	bcf	3,5	;RP0=0, select bank0
  7928  0219  1303               	bcf	3,6	;RP1=0, select bank0
  7929  021A  00D7               	movwf	___flmul@temp+1
  7930  021B  0870               	movf	?__Umul8_16,w
  7931  021C  00D6               	movwf	___flmul@temp
  7932  021D  0856               	movf	___flmul@temp,w
  7933  021E  00C6               	movwf	??___flmul
  7934  021F  0857               	movf	___flmul@temp+1,w
  7935  0220  00C7               	movwf	??___flmul+1
  7936  0221  01C8               	clrf	??___flmul+2
  7937  0222  01C9               	clrf	??___flmul+3
  7938  0223  0846               	movf	??___flmul,w
  7939  0224  07D2               	addwf	___flmul@prod,f
  7940  0225  0847               	movf	??___flmul+1,w
  7941  0226  1103               	clrz
  7942  0227  1803               	skipnc
  7943  0228  3E01               	addlw	1
  7944  0229  1903               	skipnz
  7945  022A  2A2C               	goto	u294_21
  7946  022B  07D3               	addwf	___flmul@prod+1,f
  7947  022C                     u294_21:
  7948  022C  0848               	movf	??___flmul+2,w
  7949  022D  1103               	clrz
  7950  022E  1803               	skipnc
  7951  022F  3E01               	addlw	1
  7952  0230  1903               	skipnz
  7953  0231  2A33               	goto	u294_22
  7954  0232  07D4               	addwf	___flmul@prod+2,f
  7955  0233                     u294_22:
  7956  0233  0849               	movf	??___flmul+3,w
  7957  0234  1103               	clrz
  7958  0235  1803               	skipnc
  7959  0236  3E01               	addlw	1
  7960  0237  1903               	skipnz
  7961  0238  2A3A               	goto	u294_23
  7962  0239  07D5               	addwf	___flmul@prod+3,f
  7963  023A                     u294_23:
  7964  023A                     i1l2636:
  7965  023A  0840               	movf	___flmul@b+2,w
  7966  023B  00C6               	movwf	??___flmul
  7967  023C  0846               	movf	??___flmul,w
  7968  023D  00F0               	movwf	__Umul8_16@multiplicand
  7969  023E  0843               	movf	___flmul@a+1,w
  7970  023F  160A  118A  21A8  120A  118A  	fcall	__Umul8_16
  7971  0244  0871               	movf	?__Umul8_16+1,w
  7972  0245  1283               	bcf	3,5	;RP0=0, select bank0
  7973  0246  1303               	bcf	3,6	;RP1=0, select bank0
  7974  0247  00D7               	movwf	___flmul@temp+1
  7975  0248  0870               	movf	?__Umul8_16,w
  7976  0249  00D6               	movwf	___flmul@temp
  7977  024A                     i1l2638:
  7978  024A  0856               	movf	___flmul@temp,w
  7979  024B  00C6               	movwf	??___flmul
  7980  024C  0857               	movf	___flmul@temp+1,w
  7981  024D  00C7               	movwf	??___flmul+1
  7982  024E  01C8               	clrf	??___flmul+2
  7983  024F  01C9               	clrf	??___flmul+3
  7984  0250  0846               	movf	??___flmul,w
  7985  0251  07D2               	addwf	___flmul@prod,f
  7986  0252  0847               	movf	??___flmul+1,w
  7987  0253  1103               	clrz
  7988  0254  1803               	skipnc
  7989  0255  3E01               	addlw	1
  7990  0256  1903               	skipnz
  7991  0257  2A59               	goto	u295_21
  7992  0258  07D3               	addwf	___flmul@prod+1,f
  7993  0259                     u295_21:
  7994  0259  0848               	movf	??___flmul+2,w
  7995  025A  1103               	clrz
  7996  025B  1803               	skipnc
  7997  025C  3E01               	addlw	1
  7998  025D  1903               	skipnz
  7999  025E  2A60               	goto	u295_22
  8000  025F  07D4               	addwf	___flmul@prod+2,f
  8001  0260                     u295_22:
  8002  0260  0849               	movf	??___flmul+3,w
  8003  0261  1103               	clrz
  8004  0262  1803               	skipnc
  8005  0263  3E01               	addlw	1
  8006  0264  1903               	skipnz
  8007  0265  2A67               	goto	u295_23
  8008  0266  07D5               	addwf	___flmul@prod+3,f
  8009  0267                     u295_23:
  8010  0267  0840               	movf	___flmul@b+2,w
  8011  0268  00C6               	movwf	??___flmul
  8012  0269  0846               	movf	??___flmul,w
  8013  026A  00F0               	movwf	__Umul8_16@multiplicand
  8014  026B  0844               	movf	___flmul@a+2,w
  8015  026C  160A  118A  21A8  120A  118A  	fcall	__Umul8_16
  8016  0271  0871               	movf	?__Umul8_16+1,w
  8017  0272  1283               	bcf	3,5	;RP0=0, select bank0
  8018  0273  1303               	bcf	3,6	;RP1=0, select bank0
  8019  0274  00D7               	movwf	___flmul@temp+1
  8020  0275  0870               	movf	?__Umul8_16,w
  8021  0276  00D6               	movwf	___flmul@temp
  8022  0277                     i1l2640:
  8023  0277  0856               	movf	___flmul@temp,w
  8024  0278  00C6               	movwf	??___flmul
  8025  0279  0857               	movf	___flmul@temp+1,w
  8026  027A  00C7               	movwf	??___flmul+1
  8027  027B  01C8               	clrf	??___flmul+2
  8028  027C  01C9               	clrf	??___flmul+3
  8029  027D  3008               	movlw	8
  8030  027E                     u296_25:
  8031  027E  1003               	clrc
  8032  027F  0DC6               	rlf	??___flmul,f
  8033  0280  0DC7               	rlf	??___flmul+1,f
  8034  0281  0DC8               	rlf	??___flmul+2,f
  8035  0282  0DC9               	rlf	??___flmul+3,f
  8036  0283                     u296_20:
  8037  0283  3EFF               	addlw	-1
  8038  0284  1D03               	skipz
  8039  0285  2A7E               	goto	u296_25
  8040  0286  0846               	movf	??___flmul,w
  8041  0287  07D2               	addwf	___flmul@prod,f
  8042  0288  0847               	movf	??___flmul+1,w
  8043  0289  1103               	clrz
  8044  028A  1803               	skipnc
  8045  028B  3E01               	addlw	1
  8046  028C  1903               	skipnz
  8047  028D  2A8F               	goto	u297_21
  8048  028E  07D3               	addwf	___flmul@prod+1,f
  8049  028F                     u297_21:
  8050  028F  0848               	movf	??___flmul+2,w
  8051  0290  1103               	clrz
  8052  0291  1803               	skipnc
  8053  0292  3E01               	addlw	1
  8054  0293  1903               	skipnz
  8055  0294  2A96               	goto	u297_22
  8056  0295  07D4               	addwf	___flmul@prod+2,f
  8057  0296                     u297_22:
  8058  0296  0849               	movf	??___flmul+3,w
  8059  0297  1103               	clrz
  8060  0298  1803               	skipnc
  8061  0299  3E01               	addlw	1
  8062  029A  1903               	skipnz
  8063  029B  2A9D               	goto	u297_23
  8064  029C  07D5               	addwf	___flmul@prod+3,f
  8065  029D                     u297_23:
  8066  029D                     i1l2642:
  8067  029D  084C               	movf	___flmul@grs,w
  8068  029E  00C6               	movwf	??___flmul
  8069  029F  084D               	movf	___flmul@grs+1,w
  8070  02A0  00C7               	movwf	??___flmul+1
  8071  02A1  084E               	movf	___flmul@grs+2,w
  8072  02A2  00C8               	movwf	??___flmul+2
  8073  02A3  084F               	movf	___flmul@grs+3,w
  8074  02A4  00C9               	movwf	??___flmul+3
  8075  02A5  3018               	movlw	24
  8076  02A6                     u298_25:
  8077  02A6  1003               	clrc
  8078  02A7  0CC9               	rrf	??___flmul+3,f
  8079  02A8  0CC8               	rrf	??___flmul+2,f
  8080  02A9  0CC7               	rrf	??___flmul+1,f
  8081  02AA  0CC6               	rrf	??___flmul,f
  8082  02AB                     u298_20:
  8083  02AB  3EFF               	addlw	-1
  8084  02AC  1D03               	skipz
  8085  02AD  2AA6               	goto	u298_25
  8086  02AE  0846               	movf	??___flmul,w
  8087  02AF  07D2               	addwf	___flmul@prod,f
  8088  02B0  0847               	movf	??___flmul+1,w
  8089  02B1  1103               	clrz
  8090  02B2  1803               	skipnc
  8091  02B3  3E01               	addlw	1
  8092  02B4  1903               	skipnz
  8093  02B5  2AB7               	goto	u299_21
  8094  02B6  07D3               	addwf	___flmul@prod+1,f
  8095  02B7                     u299_21:
  8096  02B7  0848               	movf	??___flmul+2,w
  8097  02B8  1103               	clrz
  8098  02B9  1803               	skipnc
  8099  02BA  3E01               	addlw	1
  8100  02BB  1903               	skipnz
  8101  02BC  2ABE               	goto	u299_22
  8102  02BD  07D4               	addwf	___flmul@prod+2,f
  8103  02BE                     u299_22:
  8104  02BE  0849               	movf	??___flmul+3,w
  8105  02BF  1103               	clrz
  8106  02C0  1803               	skipnc
  8107  02C1  3E01               	addlw	1
  8108  02C2  1903               	skipnz
  8109  02C3  2AC5               	goto	u299_23
  8110  02C4  07D5               	addwf	___flmul@prod+3,f
  8111  02C5                     u299_23:
  8112  02C5                     i1l2644:
  8113  02C5  3008               	movlw	8
  8114  02C6  00C6               	movwf	??___flmul
  8115  02C7                     u300_25:
  8116  02C7  1003               	clrc
  8117  02C8  0DCC               	rlf	___flmul@grs,f
  8118  02C9  0DCD               	rlf	___flmul@grs+1,f
  8119  02CA  0DCE               	rlf	___flmul@grs+2,f
  8120  02CB  0DCF               	rlf	___flmul@grs+3,f
  8121  02CC  0BC6               	decfsz	??___flmul,f
  8122  02CD  2AC7               	goto	u300_25
  8123  02CE                     i1l2646:
  8124  02CE  0851               	movf	___flmul@bexp,w
  8125  02CF  0750               	addwf	___flmul@aexp,w
  8126  02D0  00C6               	movwf	??___flmul
  8127  02D1  01C7               	clrf	??___flmul+1
  8128  02D2  0DC7               	rlf	??___flmul+1,f
  8129  02D3  0846               	movf	??___flmul,w
  8130  02D4  3E82               	addlw	130
  8131  02D5  00D6               	movwf	___flmul@temp
  8132  02D6  0847               	movf	??___flmul+1,w
  8133  02D7  1803               	skipnc
  8134  02D8  3E01               	addlw	1
  8135  02D9  3EFF               	addlw	255
  8136  02DA  00D7               	movwf	___flmul@temp+1
  8137  02DB  2AF9               	goto	i1l2658
  8138  02DC                     i1l2648:
  8139  02DC  3001               	movlw	1
  8140  02DD  00C6               	movwf	??___flmul
  8141  02DE                     u301_25:
  8142  02DE  1003               	clrc
  8143  02DF  0DD2               	rlf	___flmul@prod,f
  8144  02E0  0DD3               	rlf	___flmul@prod+1,f
  8145  02E1  0DD4               	rlf	___flmul@prod+2,f
  8146  02E2  0DD5               	rlf	___flmul@prod+3,f
  8147  02E3  0BC6               	decfsz	??___flmul,f
  8148  02E4  2ADE               	goto	u301_25
  8149  02E5                     i1l2650:
  8150  02E5  1FCF               	btfss	___flmul@grs+3,7
  8151  02E6  2AE8               	goto	u302_21
  8152  02E7  2AE9               	goto	u302_20
  8153  02E8                     u302_21:
  8154  02E8  2AEA               	goto	i1l2654
  8155  02E9                     u302_20:
  8156  02E9                     i1l2652:
  8157  02E9  1452               	bsf	___flmul@prod,0
  8158  02EA                     i1l2654:
  8159  02EA  3001               	movlw	1
  8160  02EB  00C6               	movwf	??___flmul
  8161  02EC                     u303_25:
  8162  02EC  1003               	clrc
  8163  02ED  0DCC               	rlf	___flmul@grs,f
  8164  02EE  0DCD               	rlf	___flmul@grs+1,f
  8165  02EF  0DCE               	rlf	___flmul@grs+2,f
  8166  02F0  0DCF               	rlf	___flmul@grs+3,f
  8167  02F1  0BC6               	decfsz	??___flmul,f
  8168  02F2  2AEC               	goto	u303_25
  8169  02F3                     i1l2656:
  8170  02F3  30FF               	movlw	255
  8171  02F4  07D6               	addwf	___flmul@temp,f
  8172  02F5  1803               	skipnc
  8173  02F6  0AD7               	incf	___flmul@temp+1,f
  8174  02F7  30FF               	movlw	255
  8175  02F8  07D7               	addwf	___flmul@temp+1,f
  8176  02F9                     i1l2658:
  8177  02F9  1FD4               	btfss	___flmul@prod+2,7
  8178  02FA  2AFC               	goto	u304_21
  8179  02FB  2AFD               	goto	u304_20
  8180  02FC                     u304_21:
  8181  02FC  2ADC               	goto	i1l2648
  8182  02FD                     u304_20:
  8183  02FD                     i1l2660:
  8184  02FD  01D0               	clrf	___flmul@aexp
  8185  02FE                     i1l2662:
  8186  02FE  1FCF               	btfss	___flmul@grs+3,7
  8187  02FF  2B01               	goto	u305_21
  8188  0300  2B02               	goto	u305_20
  8189  0301                     u305_21:
  8190  0301  2B1E               	goto	i1l2670
  8191  0302                     u305_20:
  8192  0302                     i1l2664:
  8193  0302  30FF               	movlw	255
  8194  0303  054C               	andwf	___flmul@grs,w
  8195  0304  00C6               	movwf	??___flmul
  8196  0305  30FF               	movlw	255
  8197  0306  054D               	andwf	___flmul@grs+1,w
  8198  0307  00C7               	movwf	??___flmul+1
  8199  0308  30FF               	movlw	255
  8200  0309  054E               	andwf	___flmul@grs+2,w
  8201  030A  00C8               	movwf	??___flmul+2
  8202  030B  307F               	movlw	127
  8203  030C  054F               	andwf	___flmul@grs+3,w
  8204  030D  00C9               	movwf	??___flmul+3
  8205  030E  0849               	movf	??___flmul+3,w
  8206  030F  0448               	iorwf	??___flmul+2,w
  8207  0310  0447               	iorwf	??___flmul+1,w
  8208  0311  0446               	iorwf	??___flmul,w
  8209  0312  1903               	skipnz
  8210  0313  2B15               	goto	u306_21
  8211  0314  2B16               	goto	u306_20
  8212  0315                     u306_21:
  8213  0315  2B19               	goto	i1l797
  8214  0316                     u306_20:
  8215  0316                     i1l2666:
  8216  0316  01D0               	clrf	___flmul@aexp
  8217  0317  0AD0               	incf	___flmul@aexp,f
  8218  0318  2B1E               	goto	i1l2670
  8219  0319                     i1l797:
  8220  0319  1C52               	btfss	___flmul@prod,0
  8221  031A  2B1C               	goto	u307_21
  8222  031B  2B1D               	goto	u307_20
  8223  031C                     u307_21:
  8224  031C  2B1E               	goto	i1l2670
  8225  031D                     u307_20:
  8226  031D  2B16               	goto	i1l2666
  8227  031E                     i1l2670:
  8228  031E  0850               	movf	___flmul@aexp,w
  8229  031F  1903               	btfsc	3,2
  8230  0320  2B22               	goto	u308_21
  8231  0321  2B23               	goto	u308_20
  8232  0322                     u308_21:
  8233  0322  2B54               	goto	i1l2680
  8234  0323                     u308_20:
  8235  0323                     i1l2672:
  8236  0323  3001               	movlw	1
  8237  0324  07D2               	addwf	___flmul@prod,f
  8238  0325  3000               	movlw	0
  8239  0326  1803               	skipnc
  8240  0327  3001               	movlw	1
  8241  0328  07D3               	addwf	___flmul@prod+1,f
  8242  0329  3000               	movlw	0
  8243  032A  1803               	skipnc
  8244  032B  3001               	movlw	1
  8245  032C  07D4               	addwf	___flmul@prod+2,f
  8246  032D  3000               	movlw	0
  8247  032E  1803               	skipnc
  8248  032F  3001               	movlw	1
  8249  0330  07D5               	addwf	___flmul@prod+3,f
  8250  0331                     i1l2674:
  8251  0331  1C55               	btfss	___flmul@prod+3,0
  8252  0332  2B34               	goto	u309_21
  8253  0333  2B35               	goto	u309_20
  8254  0334                     u309_21:
  8255  0334  2B54               	goto	i1l2680
  8256  0335                     u309_20:
  8257  0335                     i1l2676:
  8258  0335  0852               	movf	___flmul@prod,w
  8259  0336  00C6               	movwf	??___flmul
  8260  0337  0853               	movf	___flmul@prod+1,w
  8261  0338  00C7               	movwf	??___flmul+1
  8262  0339  0854               	movf	___flmul@prod+2,w
  8263  033A  00C8               	movwf	??___flmul+2
  8264  033B  0855               	movf	___flmul@prod+3,w
  8265  033C  00C9               	movwf	??___flmul+3
  8266  033D  3001               	movlw	1
  8267  033E  00CA               	movwf	??___flmul+4
  8268  033F                     u310_25:
  8269  033F  0D49               	rlf	??___flmul+3,w
  8270  0340  0CC9               	rrf	??___flmul+3,f
  8271  0341  0CC8               	rrf	??___flmul+2,f
  8272  0342  0CC7               	rrf	??___flmul+1,f
  8273  0343  0CC6               	rrf	??___flmul,f
  8274  0344                     u310_20:
  8275  0344  0BCA               	decfsz	??___flmul+4,f
  8276  0345  2B3F               	goto	u310_25
  8277  0346  0849               	movf	??___flmul+3,w
  8278  0347  00D5               	movwf	___flmul@prod+3
  8279  0348  0848               	movf	??___flmul+2,w
  8280  0349  00D4               	movwf	___flmul@prod+2
  8281  034A  0847               	movf	??___flmul+1,w
  8282  034B  00D3               	movwf	___flmul@prod+1
  8283  034C  0846               	movf	??___flmul,w
  8284  034D  00D2               	movwf	___flmul@prod
  8285  034E                     i1l2678:
  8286  034E  3001               	movlw	1
  8287  034F  07D6               	addwf	___flmul@temp,f
  8288  0350  1803               	skipnc
  8289  0351  0AD7               	incf	___flmul@temp+1,f
  8290  0352  3000               	movlw	0
  8291  0353  07D7               	addwf	___flmul@temp+1,f
  8292  0354                     i1l2680:
  8293  0354  0857               	movf	___flmul@temp+1,w
  8294  0355  3A80               	xorlw	128
  8295  0356  00FF               	movwf	btemp+1
  8296  0357  3080               	movlw	128
  8297  0358  027F               	subwf	btemp+1,w
  8298  0359  1D03               	skipz
  8299  035A  2B5D               	goto	u311_25
  8300  035B  30FF               	movlw	255
  8301  035C  0256               	subwf	___flmul@temp,w
  8302  035D                     u311_25:
  8303  035D  1C03               	skipc
  8304  035E  2B60               	goto	u311_21
  8305  035F  2B61               	goto	u311_20
  8306  0360                     u311_21:
  8307  0360  2B6C               	goto	i1l2684
  8308  0361                     u311_20:
  8309  0361                     i1l2682:
  8310  0361  307F               	movlw	127
  8311  0362  1283               	bcf	3,5	;RP0=0, select bank0
  8312  0363  1303               	bcf	3,6	;RP1=0, select bank0
  8313  0364  00D5               	movwf	___flmul@prod+3
  8314  0365  3080               	movlw	128
  8315  0366  00D4               	movwf	___flmul@prod+2
  8316  0367  3000               	movlw	0
  8317  0368  00D3               	movwf	___flmul@prod+1
  8318  0369  3000               	movlw	0
  8319  036A  00D2               	movwf	___flmul@prod
  8320  036B  2BA1               	goto	i1l803
  8321  036C                     i1l2684:
  8322  036C  1283               	bcf	3,5	;RP0=0, select bank0
  8323  036D  1303               	bcf	3,6	;RP1=0, select bank0
  8324  036E  0857               	movf	___flmul@temp+1,w
  8325  036F  3A80               	xorlw	128
  8326  0370  00FF               	movwf	btemp+1
  8327  0371  3080               	movlw	128
  8328  0372  027F               	subwf	btemp+1,w
  8329  0373  1D03               	skipz
  8330  0374  2B77               	goto	u312_25
  8331  0375  3001               	movlw	1
  8332  0376  0256               	subwf	___flmul@temp,w
  8333  0377                     u312_25:
  8334  0377  1803               	skipnc
  8335  0378  2B7A               	goto	u312_21
  8336  0379  2B7B               	goto	u312_20
  8337  037A                     u312_21:
  8338  037A  2B87               	goto	i1l2690
  8339  037B                     u312_20:
  8340  037B                     i1l2686:
  8341  037B  3000               	movlw	0
  8342  037C  1283               	bcf	3,5	;RP0=0, select bank0
  8343  037D  1303               	bcf	3,6	;RP1=0, select bank0
  8344  037E  00D5               	movwf	___flmul@prod+3
  8345  037F  3000               	movlw	0
  8346  0380  00D4               	movwf	___flmul@prod+2
  8347  0381  3000               	movlw	0
  8348  0382  00D3               	movwf	___flmul@prod+1
  8349  0383  3000               	movlw	0
  8350  0384  00D2               	movwf	___flmul@prod
  8351  0385                     i1l2688:
  8352  0385  01CB               	clrf	___flmul@sign
  8353  0386  2BA1               	goto	i1l803
  8354  0387                     i1l2690:
  8355  0387  1283               	bcf	3,5	;RP0=0, select bank0
  8356  0388  1303               	bcf	3,6	;RP1=0, select bank0
  8357  0389  0856               	movf	___flmul@temp,w
  8358  038A  00C6               	movwf	??___flmul
  8359  038B  0846               	movf	??___flmul,w
  8360  038C  00D1               	movwf	___flmul@bexp
  8361  038D  30FF               	movlw	255
  8362  038E  05D2               	andwf	___flmul@prod,f
  8363  038F  30FF               	movlw	255
  8364  0390  05D3               	andwf	___flmul@prod+1,f
  8365  0391  307F               	movlw	127
  8366  0392  05D4               	andwf	___flmul@prod+2,f
  8367  0393  3000               	movlw	0
  8368  0394  05D5               	andwf	___flmul@prod+3,f
  8369  0395                     i1l2692:
  8370  0395  1C51               	btfss	___flmul@bexp,0
  8371  0396  2B98               	goto	u313_21
  8372  0397  2B99               	goto	u313_20
  8373  0398                     u313_21:
  8374  0398  2B9A               	goto	i1l2696
  8375  0399                     u313_20:
  8376  0399                     i1l2694:
  8377  0399  17D4               	bsf	___flmul@prod+2,7
  8378  039A                     i1l2696:
  8379  039A  0851               	movf	___flmul@bexp,w
  8380  039B  00C6               	movwf	??___flmul
  8381  039C  1003               	clrc
  8382  039D  0C46               	rrf	??___flmul,w
  8383  039E  00C7               	movwf	??___flmul+1
  8384  039F  0847               	movf	??___flmul+1,w
  8385  03A0  00D5               	movwf	___flmul@prod+3
  8386  03A1                     i1l803:
  8387  03A1  084B               	movf	___flmul@sign,w
  8388  03A2  00C6               	movwf	??___flmul
  8389  03A3  0846               	movf	??___flmul,w
  8390  03A4  04D5               	iorwf	___flmul@prod+3,f
  8391  03A5                     i1l2698:
  8392  03A5  0855               	movf	___flmul@prod+3,w
  8393  03A6  00C1               	movwf	?___flmul+3
  8394  03A7  0854               	movf	___flmul@prod+2,w
  8395  03A8  00C0               	movwf	?___flmul+2
  8396  03A9  0853               	movf	___flmul@prod+1,w
  8397  03AA  00BF               	movwf	?___flmul+1
  8398  03AB  0852               	movf	___flmul@prod,w
  8399  03AC  00BE               	movwf	?___flmul
  8400  03AD                     i1l791:
  8401  03AD  0008               	return
  8402  03AE                     __end_of___flmul:
  8403                           
  8404                           	psect	text32
  8405  11A8                     __ptext32:	
  8406 ;; *************** function __Umul8_16 *****************
  8407 ;; Defined at:
  8408 ;;		line 4 in file "C:\Program Files\Microchip\xc8\v2.35\pic\sources\c90\common\Umul8_16.c"
  8409 ;; Parameters:    Size  Location     Type
  8410 ;;  multiplier      1    wreg     unsigned char 
  8411 ;;  multiplicand    1    0[COMMON] unsigned char 
  8412 ;; Auto vars:     Size  Location     Type
  8413 ;;  multiplier      1    8[COMMON] unsigned char 
  8414 ;;  word_mpld       2    6[COMMON] unsigned int 
  8415 ;;  product         2    4[COMMON] unsigned int 
  8416 ;; Return value:  Size  Location     Type
  8417 ;;                  2    0[COMMON] unsigned int 
  8418 ;; Registers used:
  8419 ;;		wreg, status,2, status,0
  8420 ;; Tracked objects:
  8421 ;;		On entry : 0/0
  8422 ;;		On exit  : 0/0
  8423 ;;		Unchanged: 0/0
  8424 ;; Data sizes:     COMMON   BANK0   BANK1   BANK3   BANK2
  8425 ;;      Params:         2       0       0       0       0
  8426 ;;      Locals:         5       0       0       0       0
  8427 ;;      Temps:          2       0       0       0       0
  8428 ;;      Totals:         9       0       0       0       0
  8429 ;;Total ram usage:        9 bytes
  8430 ;; Hardware stack levels used: 1
  8431 ;; This function calls:
  8432 ;;		Nothing
  8433 ;; This function is called by:
  8434 ;;		___flmul
  8435 ;; This function uses a non-reentrant model
  8436 ;;
  8437                           
  8438  11A8                     __Umul8_16:	
  8439                           ;psect for function __Umul8_16
  8440                           
  8441                           
  8442                           ;incstack = 0
  8443                           ; Regs used in __Umul8_16: [wreg+status,2+status,0]
  8444                           ;__Umul8_16@multiplier stored from wreg
  8445  11A8  00F8               	movwf	__Umul8_16@multiplier
  8446  11A9                     i1l2300:
  8447  11A9  01F4               	clrf	__Umul8_16@product
  8448  11AA  01F5               	clrf	__Umul8_16@product+1
  8449  11AB                     i1l2302:
  8450  11AB  0870               	movf	__Umul8_16@multiplicand,w
  8451  11AC  00F2               	movwf	??__Umul8_16
  8452  11AD  01F3               	clrf	??__Umul8_16+1
  8453  11AE  0872               	movf	??__Umul8_16,w
  8454  11AF  00F6               	movwf	__Umul8_16@word_mpld
  8455  11B0  0873               	movf	??__Umul8_16+1,w
  8456  11B1  00F7               	movwf	__Umul8_16@word_mpld+1
  8457  11B2                     i1l2304:
  8458  11B2  1C78               	btfss	__Umul8_16@multiplier,0
  8459  11B3  29B5               	goto	u214_21
  8460  11B4  29B6               	goto	u214_20
  8461  11B5                     u214_21:
  8462  11B5  29BC               	goto	i1l810
  8463  11B6                     u214_20:
  8464  11B6                     i1l2306:
  8465  11B6  0876               	movf	__Umul8_16@word_mpld,w
  8466  11B7  07F4               	addwf	__Umul8_16@product,f
  8467  11B8  1803               	skipnc
  8468  11B9  0AF5               	incf	__Umul8_16@product+1,f
  8469  11BA  0877               	movf	__Umul8_16@word_mpld+1,w
  8470  11BB  07F5               	addwf	__Umul8_16@product+1,f
  8471  11BC                     i1l810:
  8472  11BC  3001               	movlw	1
  8473  11BD                     u215_25:
  8474  11BD  1003               	clrc
  8475  11BE  0DF6               	rlf	__Umul8_16@word_mpld,f
  8476  11BF  0DF7               	rlf	__Umul8_16@word_mpld+1,f
  8477  11C0  3EFF               	addlw	-1
  8478  11C1  1D03               	skipz
  8479  11C2  29BD               	goto	u215_25
  8480  11C3  1003               	clrc
  8481  11C4  0CF8               	rrf	__Umul8_16@multiplier,f
  8482  11C5                     i1l2308:
  8483  11C5  0878               	movf	__Umul8_16@multiplier,w
  8484  11C6  1D03               	btfss	3,2
  8485  11C7  29C9               	goto	u216_21
  8486  11C8  29CA               	goto	u216_20
  8487  11C9                     u216_21:
  8488  11C9  29B2               	goto	i1l2304
  8489  11CA                     u216_20:
  8490  11CA                     i1l2310:
  8491  11CA  0875               	movf	__Umul8_16@product+1,w
  8492  11CB  00F1               	movwf	?__Umul8_16+1
  8493  11CC  0874               	movf	__Umul8_16@product,w
  8494  11CD  00F0               	movwf	?__Umul8_16
  8495  11CE                     i1l812:
  8496  11CE  0008               	return
  8497  11CF                     __end_of__Umul8_16:
  8498                           
  8499                           	psect	text33
  8500  0A1C                     __ptext33:	
  8501 ;; *************** function ___xxtofl *****************
  8502 ;; Defined at:
  8503 ;;		line 10 in file "C:\Program Files\Microchip\xc8\v2.35\pic\sources\c90\common\xxtofl.c"
  8504 ;; Parameters:    Size  Location     Type
  8505 ;;  sign            1    wreg     unsigned char 
  8506 ;;  val             4    9[COMMON] long 
  8507 ;; Auto vars:     Size  Location     Type
  8508 ;;  sign            1    4[BANK0 ] unsigned char 
  8509 ;;  arg             4    6[BANK0 ] unsigned long 
  8510 ;;  exp             1    5[BANK0 ] unsigned char 
  8511 ;; Return value:  Size  Location     Type
  8512 ;;                  4    9[COMMON] unsigned char 
  8513 ;; Registers used:
  8514 ;;		wreg, status,2, status,0
  8515 ;; Tracked objects:
  8516 ;;		On entry : 0/0
  8517 ;;		On exit  : 0/0
  8518 ;;		Unchanged: 0/0
  8519 ;; Data sizes:     COMMON   BANK0   BANK1   BANK3   BANK2
  8520 ;;      Params:         4       0       0       0       0
  8521 ;;      Locals:         0       6       0       0       0
  8522 ;;      Temps:          0       4       0       0       0
  8523 ;;      Totals:         4      10       0       0       0
  8524 ;;Total ram usage:       14 bytes
  8525 ;; Hardware stack levels used: 1
  8526 ;; This function calls:
  8527 ;;		Nothing
  8528 ;; This function is called by:
  8529 ;;		_slave
  8530 ;;		_map
  8531 ;;		_log
  8532 ;; This function uses a non-reentrant model
  8533 ;;
  8534                           
  8535  0A1C                     ___xxtofl:	
  8536                           ;psect for function ___xxtofl
  8537                           
  8538                           
  8539                           ;incstack = 0
  8540                           ; Regs used in ___xxtofl: [wreg+status,2+status,0]
  8541                           ;___xxtofl@sign stored from wreg
  8542  0A1C  1283               	bcf	3,5	;RP0=0, select bank0
  8543  0A1D  1303               	bcf	3,6	;RP1=0, select bank0
  8544  0A1E  00A4               	movwf	___xxtofl@sign
  8545  0A1F                     i1l3026:
  8546  0A1F  0824               	movf	___xxtofl@sign,w
  8547  0A20  1903               	btfsc	3,2
  8548  0A21  2A23               	goto	u359_21
  8549  0A22  2A24               	goto	u359_20
  8550  0A23                     u359_21:
  8551  0A23  2A38               	goto	i1l3032
  8552  0A24                     u359_20:
  8553  0A24                     i1l3028:
  8554  0A24  1FFC               	btfss	___xxtofl@val+3,7
  8555  0A25  2A27               	goto	u360_21
  8556  0A26  2A28               	goto	u360_20
  8557  0A27                     u360_21:
  8558  0A27  2A38               	goto	i1l3032
  8559  0A28                     u360_20:
  8560  0A28                     i1l3030:
  8561  0A28  0979               	comf	___xxtofl@val,w
  8562  0A29  00A6               	movwf	___xxtofl@arg
  8563  0A2A  097A               	comf	___xxtofl@val+1,w
  8564  0A2B  00A7               	movwf	___xxtofl@arg+1
  8565  0A2C  097B               	comf	___xxtofl@val+2,w
  8566  0A2D  00A8               	movwf	___xxtofl@arg+2
  8567  0A2E  097C               	comf	___xxtofl@val+3,w
  8568  0A2F  00A9               	movwf	___xxtofl@arg+3
  8569  0A30  0AA6               	incf	___xxtofl@arg,f
  8570  0A31  1903               	skipnz
  8571  0A32  0AA7               	incf	___xxtofl@arg+1,f
  8572  0A33  1903               	skipnz
  8573  0A34  0AA8               	incf	___xxtofl@arg+2,f
  8574  0A35  1903               	skipnz
  8575  0A36  0AA9               	incf	___xxtofl@arg+3,f
  8576  0A37  2A40               	goto	i1l835
  8577  0A38                     i1l3032:
  8578  0A38  087C               	movf	___xxtofl@val+3,w
  8579  0A39  00A9               	movwf	___xxtofl@arg+3
  8580  0A3A  087B               	movf	___xxtofl@val+2,w
  8581  0A3B  00A8               	movwf	___xxtofl@arg+2
  8582  0A3C  087A               	movf	___xxtofl@val+1,w
  8583  0A3D  00A7               	movwf	___xxtofl@arg+1
  8584  0A3E  0879               	movf	___xxtofl@val,w
  8585  0A3F  00A6               	movwf	___xxtofl@arg
  8586  0A40                     i1l835:
  8587  0A40  087C               	movf	___xxtofl@val+3,w
  8588  0A41  047B               	iorwf	___xxtofl@val+2,w
  8589  0A42  047A               	iorwf	___xxtofl@val+1,w
  8590  0A43  0479               	iorwf	___xxtofl@val,w
  8591  0A44  1D03               	skipz
  8592  0A45  2A47               	goto	u361_21
  8593  0A46  2A48               	goto	u361_20
  8594  0A47                     u361_21:
  8595  0A47  2A51               	goto	i1l3038
  8596  0A48                     u361_20:
  8597  0A48                     i1l3034:
  8598  0A48  3000               	movlw	0
  8599  0A49  00FC               	movwf	?___xxtofl+3
  8600  0A4A  3000               	movlw	0
  8601  0A4B  00FB               	movwf	?___xxtofl+2
  8602  0A4C  3000               	movlw	0
  8603  0A4D  00FA               	movwf	?___xxtofl+1
  8604  0A4E  3000               	movlw	0
  8605  0A4F  00F9               	movwf	?___xxtofl
  8606  0A50  2AD7               	goto	i1l837
  8607  0A51                     i1l3038:
  8608  0A51  3096               	movlw	150
  8609  0A52  00A0               	movwf	??___xxtofl
  8610  0A53  0820               	movf	??___xxtofl,w
  8611  0A54  00A5               	movwf	___xxtofl@exp
  8612  0A55  2A63               	goto	i1l3042
  8613  0A56                     i1l3040:
  8614  0A56  3001               	movlw	1
  8615  0A57  00A0               	movwf	??___xxtofl
  8616  0A58  0820               	movf	??___xxtofl,w
  8617  0A59  07A5               	addwf	___xxtofl@exp,f
  8618  0A5A  3001               	movlw	1
  8619  0A5B                     u362_25:
  8620  0A5B  1003               	clrc
  8621  0A5C  0CA9               	rrf	___xxtofl@arg+3,f
  8622  0A5D  0CA8               	rrf	___xxtofl@arg+2,f
  8623  0A5E  0CA7               	rrf	___xxtofl@arg+1,f
  8624  0A5F  0CA6               	rrf	___xxtofl@arg,f
  8625  0A60  3EFF               	addlw	-1
  8626  0A61  1D03               	skipz
  8627  0A62  2A5B               	goto	u362_25
  8628  0A63                     i1l3042:
  8629  0A63  30FE               	movlw	254
  8630  0A64  0529               	andwf	___xxtofl@arg+3,w
  8631  0A65  1D03               	btfss	3,2
  8632  0A66  2A68               	goto	u363_21
  8633  0A67  2A69               	goto	u363_20
  8634  0A68                     u363_21:
  8635  0A68  2A56               	goto	i1l3040
  8636  0A69                     u363_20:
  8637  0A69  2A85               	goto	i1l841
  8638  0A6A                     i1l3044:
  8639  0A6A  3001               	movlw	1
  8640  0A6B  00A0               	movwf	??___xxtofl
  8641  0A6C  0820               	movf	??___xxtofl,w
  8642  0A6D  07A5               	addwf	___xxtofl@exp,f
  8643  0A6E                     i1l3046:
  8644  0A6E  3001               	movlw	1
  8645  0A6F  07A6               	addwf	___xxtofl@arg,f
  8646  0A70  3000               	movlw	0
  8647  0A71  1803               	skipnc
  8648  0A72  3001               	movlw	1
  8649  0A73  07A7               	addwf	___xxtofl@arg+1,f
  8650  0A74  3000               	movlw	0
  8651  0A75  1803               	skipnc
  8652  0A76  3001               	movlw	1
  8653  0A77  07A8               	addwf	___xxtofl@arg+2,f
  8654  0A78  3000               	movlw	0
  8655  0A79  1803               	skipnc
  8656  0A7A  3001               	movlw	1
  8657  0A7B  07A9               	addwf	___xxtofl@arg+3,f
  8658  0A7C                     i1l3048:
  8659  0A7C  3001               	movlw	1
  8660  0A7D                     u364_25:
  8661  0A7D  1003               	clrc
  8662  0A7E  0CA9               	rrf	___xxtofl@arg+3,f
  8663  0A7F  0CA8               	rrf	___xxtofl@arg+2,f
  8664  0A80  0CA7               	rrf	___xxtofl@arg+1,f
  8665  0A81  0CA6               	rrf	___xxtofl@arg,f
  8666  0A82  3EFF               	addlw	-1
  8667  0A83  1D03               	skipz
  8668  0A84  2A7D               	goto	u364_25
  8669  0A85                     i1l841:
  8670  0A85  30FF               	movlw	255
  8671  0A86  0529               	andwf	___xxtofl@arg+3,w
  8672  0A87  1D03               	btfss	3,2
  8673  0A88  2A8A               	goto	u365_21
  8674  0A89  2A8B               	goto	u365_20
  8675  0A8A                     u365_21:
  8676  0A8A  2A6A               	goto	i1l3044
  8677  0A8B                     u365_20:
  8678  0A8B  2A97               	goto	i1l3052
  8679  0A8C                     i1l3050:
  8680  0A8C  3001               	movlw	1
  8681  0A8D  02A5               	subwf	___xxtofl@exp,f
  8682  0A8E  3001               	movlw	1
  8683  0A8F  00A0               	movwf	??___xxtofl
  8684  0A90                     u366_25:
  8685  0A90  1003               	clrc
  8686  0A91  0DA6               	rlf	___xxtofl@arg,f
  8687  0A92  0DA7               	rlf	___xxtofl@arg+1,f
  8688  0A93  0DA8               	rlf	___xxtofl@arg+2,f
  8689  0A94  0DA9               	rlf	___xxtofl@arg+3,f
  8690  0A95  0BA0               	decfsz	??___xxtofl,f
  8691  0A96  2A90               	goto	u366_25
  8692  0A97                     i1l3052:
  8693  0A97  1BA8               	btfsc	___xxtofl@arg+2,7
  8694  0A98  2A9A               	goto	u367_21
  8695  0A99  2A9B               	goto	u367_20
  8696  0A9A                     u367_21:
  8697  0A9A  2AA1               	goto	i1l848
  8698  0A9B                     u367_20:
  8699  0A9B                     i1l3054:
  8700  0A9B  3002               	movlw	2
  8701  0A9C  0225               	subwf	___xxtofl@exp,w
  8702  0A9D  1803               	skipnc
  8703  0A9E  2AA0               	goto	u368_21
  8704  0A9F  2AA1               	goto	u368_20
  8705  0AA0                     u368_21:
  8706  0AA0  2A8C               	goto	i1l3050
  8707  0AA1                     u368_20:
  8708  0AA1                     i1l848:
  8709  0AA1  1825               	btfsc	___xxtofl@exp,0
  8710  0AA2  2AA4               	goto	u369_21
  8711  0AA3  2AA5               	goto	u369_20
  8712  0AA4                     u369_21:
  8713  0AA4  2AAD               	goto	i1l849
  8714  0AA5                     u369_20:
  8715  0AA5                     i1l3056:
  8716  0AA5  30FF               	movlw	255
  8717  0AA6  05A6               	andwf	___xxtofl@arg,f
  8718  0AA7  30FF               	movlw	255
  8719  0AA8  05A7               	andwf	___xxtofl@arg+1,f
  8720  0AA9  307F               	movlw	127
  8721  0AAA  05A8               	andwf	___xxtofl@arg+2,f
  8722  0AAB  30FF               	movlw	255
  8723  0AAC  05A9               	andwf	___xxtofl@arg+3,f
  8724  0AAD                     i1l849:
  8725  0AAD  1003               	clrc
  8726  0AAE  0CA5               	rrf	___xxtofl@exp,f
  8727  0AAF                     i1l3058:
  8728  0AAF  0825               	movf	___xxtofl@exp,w
  8729  0AB0  00A0               	movwf	??___xxtofl
  8730  0AB1  01A1               	clrf	??___xxtofl+1
  8731  0AB2  01A2               	clrf	??___xxtofl+2
  8732  0AB3  01A3               	clrf	??___xxtofl+3
  8733  0AB4  3018               	movlw	24
  8734  0AB5                     u370_25:
  8735  0AB5  1003               	clrc
  8736  0AB6  0DA0               	rlf	??___xxtofl,f
  8737  0AB7  0DA1               	rlf	??___xxtofl+1,f
  8738  0AB8  0DA2               	rlf	??___xxtofl+2,f
  8739  0AB9  0DA3               	rlf	??___xxtofl+3,f
  8740  0ABA                     u370_20:
  8741  0ABA  3EFF               	addlw	-1
  8742  0ABB  1D03               	skipz
  8743  0ABC  2AB5               	goto	u370_25
  8744  0ABD  0820               	movf	??___xxtofl,w
  8745  0ABE  04A6               	iorwf	___xxtofl@arg,f
  8746  0ABF  0821               	movf	??___xxtofl+1,w
  8747  0AC0  04A7               	iorwf	___xxtofl@arg+1,f
  8748  0AC1  0822               	movf	??___xxtofl+2,w
  8749  0AC2  04A8               	iorwf	___xxtofl@arg+2,f
  8750  0AC3  0823               	movf	??___xxtofl+3,w
  8751  0AC4  04A9               	iorwf	___xxtofl@arg+3,f
  8752  0AC5                     i1l3060:
  8753  0AC5  0824               	movf	___xxtofl@sign,w
  8754  0AC6  1903               	btfsc	3,2
  8755  0AC7  2AC9               	goto	u371_21
  8756  0AC8  2ACA               	goto	u371_20
  8757  0AC9                     u371_21:
  8758  0AC9  2ACF               	goto	i1l3066
  8759  0ACA                     u371_20:
  8760  0ACA                     i1l3062:
  8761  0ACA  1FFC               	btfss	___xxtofl@val+3,7
  8762  0ACB  2ACD               	goto	u372_21
  8763  0ACC  2ACE               	goto	u372_20
  8764  0ACD                     u372_21:
  8765  0ACD  2ACF               	goto	i1l3066
  8766  0ACE                     u372_20:
  8767  0ACE                     i1l3064:
  8768  0ACE  17A9               	bsf	___xxtofl@arg+3,7
  8769  0ACF                     i1l3066:
  8770  0ACF  0829               	movf	___xxtofl@arg+3,w
  8771  0AD0  00FC               	movwf	?___xxtofl+3
  8772  0AD1  0828               	movf	___xxtofl@arg+2,w
  8773  0AD2  00FB               	movwf	?___xxtofl+2
  8774  0AD3  0827               	movf	___xxtofl@arg+1,w
  8775  0AD4  00FA               	movwf	?___xxtofl+1
  8776  0AD5  0826               	movf	___xxtofl@arg,w
  8777  0AD6  00F9               	movwf	?___xxtofl
  8778  0AD7                     i1l837:
  8779  0AD7  0008               	return
  8780  0AD8                     __end_of___xxtofl:
  8781                           
  8782                           	psect	text34
  8783  080A                     __ptext34:	
  8784 ;; *************** function ___flge *****************
  8785 ;; Defined at:
  8786 ;;		line 4 in file "C:\Program Files\Microchip\xc8\v2.35\pic\sources\c90\common\flge.c"
  8787 ;; Parameters:    Size  Location     Type
  8788 ;;  ff1             4    0[COMMON] unsigned char 
  8789 ;;  ff2             4    4[COMMON] unsigned char 
  8790 ;; Auto vars:     Size  Location     Type
  8791 ;;		None
  8792 ;; Return value:  Size  Location     Type
  8793 ;;		None               void
  8794 ;; Registers used:
  8795 ;;		wreg, status,2, status,0
  8796 ;; Tracked objects:
  8797 ;;		On entry : 0/0
  8798 ;;		On exit  : 0/0
  8799 ;;		Unchanged: 0/0
  8800 ;; Data sizes:     COMMON   BANK0   BANK1   BANK3   BANK2
  8801 ;;      Params:         8       0       0       0       0
  8802 ;;      Locals:         0       0       0       0       0
  8803 ;;      Temps:          4       0       0       0       0
  8804 ;;      Totals:        12       0       0       0       0
  8805 ;;Total ram usage:       12 bytes
  8806 ;; Hardware stack levels used: 1
  8807 ;; This function calls:
  8808 ;;		Nothing
  8809 ;; This function is called by:
  8810 ;;		_log
  8811 ;; This function uses a non-reentrant model
  8812 ;;
  8813                           
  8814  080A                     ___flge:	
  8815                           ;psect for function ___flge
  8816                           
  8817  080A                     i1l2864:	
  8818                           ;incstack = 0
  8819                           ; Regs used in ___flge: [wreg+status,2+status,0]
  8820                           
  8821  080A  3000               	movlw	0
  8822  080B  0570               	andwf	___flge@ff1,w
  8823  080C  00F8               	movwf	??___flge
  8824  080D  3000               	movlw	0
  8825  080E  0571               	andwf	___flge@ff1+1,w
  8826  080F  00F9               	movwf	??___flge+1
  8827  0810  3080               	movlw	128
  8828  0811  0572               	andwf	___flge@ff1+2,w
  8829  0812  00FA               	movwf	??___flge+2
  8830  0813  307F               	movlw	127
  8831  0814  0573               	andwf	___flge@ff1+3,w
  8832  0815  00FB               	movwf	??___flge+3
  8833  0816  087B               	movf	??___flge+3,w
  8834  0817  047A               	iorwf	??___flge+2,w
  8835  0818  0479               	iorwf	??___flge+1,w
  8836  0819  0478               	iorwf	??___flge,w
  8837  081A  1D03               	skipz
  8838  081B  281D               	goto	u322_21
  8839  081C  281E               	goto	u322_20
  8840  081D                     u322_21:
  8841  081D  2826               	goto	i1l576
  8842  081E                     u322_20:
  8843  081E                     i1l2866:
  8844  081E  3000               	movlw	0
  8845  081F  00F3               	movwf	___flge@ff1+3
  8846  0820  3000               	movlw	0
  8847  0821  00F2               	movwf	___flge@ff1+2
  8848  0822  3000               	movlw	0
  8849  0823  00F1               	movwf	___flge@ff1+1
  8850  0824  3000               	movlw	0
  8851  0825  00F0               	movwf	___flge@ff1
  8852  0826                     i1l576:
  8853  0826  3000               	movlw	0
  8854  0827  0574               	andwf	___flge@ff2,w
  8855  0828  00F8               	movwf	??___flge
  8856  0829  3000               	movlw	0
  8857  082A  0575               	andwf	___flge@ff2+1,w
  8858  082B  00F9               	movwf	??___flge+1
  8859  082C  3080               	movlw	128
  8860  082D  0576               	andwf	___flge@ff2+2,w
  8861  082E  00FA               	movwf	??___flge+2
  8862  082F  307F               	movlw	127
  8863  0830  0577               	andwf	___flge@ff2+3,w
  8864  0831  00FB               	movwf	??___flge+3
  8865  0832  087B               	movf	??___flge+3,w
  8866  0833  047A               	iorwf	??___flge+2,w
  8867  0834  0479               	iorwf	??___flge+1,w
  8868  0835  0478               	iorwf	??___flge,w
  8869  0836  1D03               	skipz
  8870  0837  2839               	goto	u323_21
  8871  0838  283A               	goto	u323_20
  8872  0839                     u323_21:
  8873  0839  2842               	goto	i1l2870
  8874  083A                     u323_20:
  8875  083A                     i1l2868:
  8876  083A  3000               	movlw	0
  8877  083B  00F7               	movwf	___flge@ff2+3
  8878  083C  3000               	movlw	0
  8879  083D  00F6               	movwf	___flge@ff2+2
  8880  083E  3000               	movlw	0
  8881  083F  00F5               	movwf	___flge@ff2+1
  8882  0840  3000               	movlw	0
  8883  0841  00F4               	movwf	___flge@ff2
  8884  0842                     i1l2870:
  8885  0842  1FF3               	btfss	___flge@ff1+3,7
  8886  0843  2845               	goto	u324_21
  8887  0844  2846               	goto	u324_20
  8888  0845                     u324_21:
  8889  0845  286A               	goto	i1l2874
  8890  0846                     u324_20:
  8891  0846                     i1l2872:
  8892  0846  3000               	movlw	0
  8893  0847  00F8               	movwf	??___flge
  8894  0848  3000               	movlw	0
  8895  0849  00F9               	movwf	??___flge+1
  8896  084A  3000               	movlw	0
  8897  084B  00FA               	movwf	??___flge+2
  8898  084C  3080               	movlw	128
  8899  084D  00FB               	movwf	??___flge+3
  8900  084E  0870               	movf	___flge@ff1,w
  8901  084F  02F8               	subwf	??___flge,f
  8902  0850  0871               	movf	___flge@ff1+1,w
  8903  0851  1C03               	skipc
  8904  0852  0F71               	incfsz	___flge@ff1+1,w
  8905  0853  2855               	goto	u325_21
  8906  0854  2856               	goto	u325_22
  8907  0855                     u325_21:
  8908  0855  02F9               	subwf	??___flge+1,f
  8909  0856                     u325_22:
  8910  0856  0872               	movf	___flge@ff1+2,w
  8911  0857  1C03               	skipc
  8912  0858  0F72               	incfsz	___flge@ff1+2,w
  8913  0859  285B               	goto	u325_23
  8914  085A  285C               	goto	u325_24
  8915  085B                     u325_23:
  8916  085B  02FA               	subwf	??___flge+2,f
  8917  085C                     u325_24:
  8918  085C  0873               	movf	___flge@ff1+3,w
  8919  085D  1C03               	skipc
  8920  085E  0F73               	incfsz	___flge@ff1+3,w
  8921  085F  2861               	goto	u325_25
  8922  0860  2862               	goto	u325_26
  8923  0861                     u325_25:
  8924  0861  02FB               	subwf	??___flge+3,f
  8925  0862                     u325_26:
  8926  0862  087B               	movf	??___flge+3,w
  8927  0863  00F3               	movwf	___flge@ff1+3
  8928  0864  087A               	movf	??___flge+2,w
  8929  0865  00F2               	movwf	___flge@ff1+2
  8930  0866  0879               	movf	??___flge+1,w
  8931  0867  00F1               	movwf	___flge@ff1+1
  8932  0868  0878               	movf	??___flge,w
  8933  0869  00F0               	movwf	___flge@ff1
  8934  086A                     i1l2874:
  8935  086A  1FF7               	btfss	___flge@ff2+3,7
  8936  086B  286D               	goto	u326_21
  8937  086C  286E               	goto	u326_20
  8938  086D                     u326_21:
  8939  086D  2892               	goto	i1l579
  8940  086E                     u326_20:
  8941  086E                     i1l2876:
  8942  086E  3000               	movlw	0
  8943  086F  00F8               	movwf	??___flge
  8944  0870  3000               	movlw	0
  8945  0871  00F9               	movwf	??___flge+1
  8946  0872  3000               	movlw	0
  8947  0873  00FA               	movwf	??___flge+2
  8948  0874  3080               	movlw	128
  8949  0875  00FB               	movwf	??___flge+3
  8950  0876  0874               	movf	___flge@ff2,w
  8951  0877  02F8               	subwf	??___flge,f
  8952  0878  0875               	movf	___flge@ff2+1,w
  8953  0879  1C03               	skipc
  8954  087A  0F75               	incfsz	___flge@ff2+1,w
  8955  087B  287D               	goto	u327_21
  8956  087C  287E               	goto	u327_22
  8957  087D                     u327_21:
  8958  087D  02F9               	subwf	??___flge+1,f
  8959  087E                     u327_22:
  8960  087E  0876               	movf	___flge@ff2+2,w
  8961  087F  1C03               	skipc
  8962  0880  0F76               	incfsz	___flge@ff2+2,w
  8963  0881  2883               	goto	u327_23
  8964  0882  2884               	goto	u327_24
  8965  0883                     u327_23:
  8966  0883  02FA               	subwf	??___flge+2,f
  8967  0884                     u327_24:
  8968  0884  0877               	movf	___flge@ff2+3,w
  8969  0885  1C03               	skipc
  8970  0886  0F77               	incfsz	___flge@ff2+3,w
  8971  0887  2889               	goto	u327_25
  8972  0888  288A               	goto	u327_26
  8973  0889                     u327_25:
  8974  0889  02FB               	subwf	??___flge+3,f
  8975  088A                     u327_26:
  8976  088A  087B               	movf	??___flge+3,w
  8977  088B  00F7               	movwf	___flge@ff2+3
  8978  088C  087A               	movf	??___flge+2,w
  8979  088D  00F6               	movwf	___flge@ff2+2
  8980  088E  0879               	movf	??___flge+1,w
  8981  088F  00F5               	movwf	___flge@ff2+1
  8982  0890  0878               	movf	??___flge,w
  8983  0891  00F4               	movwf	___flge@ff2
  8984  0892                     i1l579:
  8985  0892  3080               	movlw	128
  8986  0893  06F3               	xorwf	___flge@ff1+3,f
  8987  0894  3080               	movlw	128
  8988  0895  06F7               	xorwf	___flge@ff2+3,f
  8989  0896  0877               	movf	___flge@ff2+3,w
  8990  0897  0273               	subwf	___flge@ff1+3,w
  8991  0898  1D03               	skipz
  8992  0899  28A4               	goto	u328_25
  8993  089A  0876               	movf	___flge@ff2+2,w
  8994  089B  0272               	subwf	___flge@ff1+2,w
  8995  089C  1D03               	skipz
  8996  089D  28A4               	goto	u328_25
  8997  089E  0875               	movf	___flge@ff2+1,w
  8998  089F  0271               	subwf	___flge@ff1+1,w
  8999  08A0  1D03               	skipz
  9000  08A1  28A4               	goto	u328_25
  9001  08A2  0874               	movf	___flge@ff2,w
  9002  08A3  0270               	subwf	___flge@ff1,w
  9003  08A4                     u328_25:
  9004  08A4  1803               	skipnc
  9005  08A5  28A7               	goto	u328_21
  9006  08A6  28A8               	goto	u328_20
  9007  08A7                     u328_21:
  9008  08A7  28AA               	goto	i1l2880
  9009  08A8                     u328_20:
  9010  08A8                     i1l2878:
  9011  08A8  1003               	clrc
  9012  08A9  28AB               	goto	i1l580
  9013  08AA                     i1l2880:
  9014  08AA  1403               	setc
  9015  08AB                     i1l580:
  9016  08AB  0008               	return
  9017  08AC                     __end_of___flge:
  9018                           
  9019                           	psect	text35
  9020  10DE                     __ptext35:	
  9021 ;; *************** function _adc_read *****************
  9022 ;; Defined at:
  9023 ;;		line 66 in file "adc.c"
  9024 ;; Parameters:    Size  Location     Type
  9025 ;;		None
  9026 ;; Auto vars:     Size  Location     Type
  9027 ;;		None
  9028 ;; Return value:  Size  Location     Type
  9029 ;;                  2    0[COMMON] unsigned int 
  9030 ;; Registers used:
  9031 ;;		wreg
  9032 ;; Tracked objects:
  9033 ;;		On entry : 0/0
  9034 ;;		On exit  : 0/0
  9035 ;;		Unchanged: 0/0
  9036 ;; Data sizes:     COMMON   BANK0   BANK1   BANK3   BANK2
  9037 ;;      Params:         2       0       0       0       0
  9038 ;;      Locals:         0       0       0       0       0
  9039 ;;      Temps:          0       0       0       0       0
  9040 ;;      Totals:         2       0       0       0       0
  9041 ;;Total ram usage:        2 bytes
  9042 ;; Hardware stack levels used: 1
  9043 ;; This function calls:
  9044 ;;		Nothing
  9045 ;; This function is called by:
  9046 ;;		_slave
  9047 ;; This function uses a non-reentrant model
  9048 ;;
  9049                           
  9050  10DE                     _adc_read:	
  9051                           ;psect for function _adc_read
  9052                           
  9053  10DE                     i1l3136:	
  9054                           ;incstack = 0
  9055                           ; Regs used in _adc_read: [wreg]
  9056                           
  9057                           
  9058                           ;adc.c: 67:     PIR1bits.ADIF = 0;
  9059  10DE  1283               	bcf	3,5	;RP0=0, select bank0
  9060  10DF  1303               	bcf	3,6	;RP1=0, select bank0
  9061  10E0  130C               	bcf	12,6	;volatile
  9062  10E1                     i1l3138:
  9063                           
  9064                           ;adc.c: 68:     return ((ADRESH << 8) + ADRESL);
  9065  10E1  081E               	movf	30,w	;volatile
  9066  10E2  00F1               	movwf	?_adc_read+1
  9067  10E3  1683               	bsf	3,5	;RP0=1, select bank1
  9068  10E4  1303               	bcf	3,6	;RP1=0, select bank1
  9069  10E5  081E               	movf	30,w	;volatile
  9070  10E6  00F0               	movwf	?_adc_read
  9071  10E7                     i1l224:
  9072  10E7  0008               	return
  9073  10E8                     __end_of_adc_read:
  9074                           
  9075                           	psect	text36
  9076  1320                     __ptext36:	
  9077 ;; *************** function ___lwdiv *****************
  9078 ;; Defined at:
  9079 ;;		line 5 in file "C:\Program Files\Microchip\xc8\v2.35\pic\sources\c90\common\lwdiv.c"
  9080 ;; Parameters:    Size  Location     Type
  9081 ;;  divisor         2    0[COMMON] unsigned int 
  9082 ;;  dividend        2    2[COMMON] unsigned int 
  9083 ;; Auto vars:     Size  Location     Type
  9084 ;;  quotient        2    5[COMMON] unsigned int 
  9085 ;;  counter         1    7[COMMON] unsigned char 
  9086 ;; Return value:  Size  Location     Type
  9087 ;;                  2    0[COMMON] unsigned int 
  9088 ;; Registers used:
  9089 ;;		wreg, status,2, status,0
  9090 ;; Tracked objects:
  9091 ;;		On entry : 0/0
  9092 ;;		On exit  : 0/0
  9093 ;;		Unchanged: 0/0
  9094 ;; Data sizes:     COMMON   BANK0   BANK1   BANK3   BANK2
  9095 ;;      Params:         4       0       0       0       0
  9096 ;;      Locals:         3       0       0       0       0
  9097 ;;      Temps:          1       0       0       0       0
  9098 ;;      Totals:         8       0       0       0       0
  9099 ;;Total ram usage:        8 bytes
  9100 ;; Hardware stack levels used: 1
  9101 ;; This function calls:
  9102 ;;		Nothing
  9103 ;; This function is called by:
  9104 ;;		_slave
  9105 ;; This function uses a non-reentrant model
  9106 ;;
  9107                           
  9108  1320                     ___lwdiv:	
  9109                           ;psect for function ___lwdiv
  9110                           
  9111  1320                     i1l3348:	
  9112                           ;incstack = 0
  9113                           ; Regs used in ___lwdiv: [wreg+status,2+status,0]
  9114                           
  9115  1320  01F5               	clrf	___lwdiv@quotient
  9116  1321  01F6               	clrf	___lwdiv@quotient+1
  9117  1322                     i1l3350:
  9118  1322  0870               	movf	___lwdiv@divisor,w
  9119  1323  0471               	iorwf	___lwdiv@divisor+1,w
  9120  1324  1903               	btfsc	3,2
  9121  1325  2B27               	goto	u415_21
  9122  1326  2B28               	goto	u415_20
  9123  1327                     u415_21:
  9124  1327  2B5F               	goto	i1l3370
  9125  1328                     u415_20:
  9126  1328                     i1l3352:
  9127  1328  01F7               	clrf	___lwdiv@counter
  9128  1329  0AF7               	incf	___lwdiv@counter,f
  9129  132A  2B36               	goto	i1l3358
  9130  132B                     i1l3354:
  9131  132B  3001               	movlw	1
  9132  132C                     u416_25:
  9133  132C  1003               	clrc
  9134  132D  0DF0               	rlf	___lwdiv@divisor,f
  9135  132E  0DF1               	rlf	___lwdiv@divisor+1,f
  9136  132F  3EFF               	addlw	-1
  9137  1330  1D03               	skipz
  9138  1331  2B2C               	goto	u416_25
  9139  1332                     i1l3356:
  9140  1332  3001               	movlw	1
  9141  1333  00F4               	movwf	??___lwdiv
  9142  1334  0874               	movf	??___lwdiv,w
  9143  1335  07F7               	addwf	___lwdiv@counter,f
  9144  1336                     i1l3358:
  9145  1336  1FF1               	btfss	___lwdiv@divisor+1,7
  9146  1337  2B39               	goto	u417_21
  9147  1338  2B3A               	goto	u417_20
  9148  1339                     u417_21:
  9149  1339  2B2B               	goto	i1l3354
  9150  133A                     u417_20:
  9151  133A                     i1l3360:
  9152  133A  3001               	movlw	1
  9153  133B                     u418_25:
  9154  133B  1003               	clrc
  9155  133C  0DF5               	rlf	___lwdiv@quotient,f
  9156  133D  0DF6               	rlf	___lwdiv@quotient+1,f
  9157  133E  3EFF               	addlw	-1
  9158  133F  1D03               	skipz
  9159  1340  2B3B               	goto	u418_25
  9160  1341  0871               	movf	___lwdiv@divisor+1,w
  9161  1342  0273               	subwf	___lwdiv@dividend+1,w
  9162  1343  1D03               	skipz
  9163  1344  2B47               	goto	u419_25
  9164  1345  0870               	movf	___lwdiv@divisor,w
  9165  1346  0272               	subwf	___lwdiv@dividend,w
  9166  1347                     u419_25:
  9167  1347  1C03               	skipc
  9168  1348  2B4A               	goto	u419_21
  9169  1349  2B4B               	goto	u419_20
  9170  134A                     u419_21:
  9171  134A  2B52               	goto	i1l3366
  9172  134B                     u419_20:
  9173  134B                     i1l3362:
  9174  134B  0870               	movf	___lwdiv@divisor,w
  9175  134C  02F2               	subwf	___lwdiv@dividend,f
  9176  134D  0871               	movf	___lwdiv@divisor+1,w
  9177  134E  1C03               	skipc
  9178  134F  03F3               	decf	___lwdiv@dividend+1,f
  9179  1350  02F3               	subwf	___lwdiv@dividend+1,f
  9180  1351                     i1l3364:
  9181  1351  1475               	bsf	___lwdiv@quotient,0
  9182  1352                     i1l3366:
  9183  1352  3001               	movlw	1
  9184  1353                     u420_25:
  9185  1353  1003               	clrc
  9186  1354  0CF1               	rrf	___lwdiv@divisor+1,f
  9187  1355  0CF0               	rrf	___lwdiv@divisor,f
  9188  1356  3EFF               	addlw	-1
  9189  1357  1D03               	skipz
  9190  1358  2B53               	goto	u420_25
  9191  1359                     i1l3368:
  9192  1359  3001               	movlw	1
  9193  135A  02F7               	subwf	___lwdiv@counter,f
  9194  135B  1D03               	btfss	3,2
  9195  135C  2B5E               	goto	u421_21
  9196  135D  2B5F               	goto	u421_20
  9197  135E                     u421_21:
  9198  135E  2B3A               	goto	i1l3360
  9199  135F                     u421_20:
  9200  135F                     i1l3370:
  9201  135F  0876               	movf	___lwdiv@quotient+1,w
  9202  1360  00F1               	movwf	?___lwdiv+1
  9203  1361  0875               	movf	___lwdiv@quotient,w
  9204  1362  00F0               	movwf	?___lwdiv
  9205  1363                     i1l674:
  9206  1363  0008               	return
  9207  1364                     __end_of___lwdiv:
  9208                           
  9209                           	psect	text37
  9210  1184                     __ptext37:	
  9211 ;; *************** function ___flsub *****************
  9212 ;; Defined at:
  9213 ;;		line 242 in file "C:\Program Files\Microchip\xc8\v2.35\pic\sources\c90\common\sprcadd.c"
  9214 ;; Parameters:    Size  Location     Type
  9215 ;;  a               4   69[BANK0 ] unsigned int 
  9216 ;;  b               4   73[BANK0 ] unsigned int 
  9217 ;; Auto vars:     Size  Location     Type
  9218 ;;		None
  9219 ;; Return value:  Size  Location     Type
  9220 ;;                  4   69[BANK0 ] unsigned int 
  9221 ;; Registers used:
  9222 ;;		wreg, status,2, status,0, btemp+1, pclath, cstack
  9223 ;; Tracked objects:
  9224 ;;		On entry : 0/0
  9225 ;;		On exit  : 0/0
  9226 ;;		Unchanged: 0/0
  9227 ;; Data sizes:     COMMON   BANK0   BANK1   BANK3   BANK2
  9228 ;;      Params:         0       8       0       0       0
  9229 ;;      Locals:         0       0       0       0       0
  9230 ;;      Temps:          0       0       0       0       0
  9231 ;;      Totals:         0       8       0       0       0
  9232 ;;Total ram usage:        8 bytes
  9233 ;; Hardware stack levels used: 1
  9234 ;; Hardware stack levels required when called: 1
  9235 ;; This function calls:
  9236 ;;		___fladd
  9237 ;; This function is called by:
  9238 ;;		_slave
  9239 ;; This function uses a non-reentrant model
  9240 ;;
  9241                           
  9242  1184                     ___flsub:	
  9243                           ;psect for function ___flsub
  9244                           
  9245  1184                     i1l3374:	
  9246                           ;incstack = 0
  9247                           ; Regs used in ___flsub: [wreg+status,2+status,0+btemp+1+pclath+cstack]
  9248                           
  9249  1184  3080               	movlw	128
  9250  1185  1283               	bcf	3,5	;RP0=0, select bank0
  9251  1186  1303               	bcf	3,6	;RP1=0, select bank0
  9252  1187  06E8               	xorwf	___flsub@a+3,f
  9253  1188                     i1l3376:
  9254  1188  086C               	movf	___flsub@b+3,w
  9255  1189  00AD               	movwf	___fladd@b+3
  9256  118A  086B               	movf	___flsub@b+2,w
  9257  118B  00AC               	movwf	___fladd@b+2
  9258  118C  086A               	movf	___flsub@b+1,w
  9259  118D  00AB               	movwf	___fladd@b+1
  9260  118E  0869               	movf	___flsub@b,w
  9261  118F  00AA               	movwf	___fladd@b
  9262  1190  0868               	movf	___flsub@a+3,w
  9263  1191  00B1               	movwf	___fladd@a+3
  9264  1192  0867               	movf	___flsub@a+2,w
  9265  1193  00B0               	movwf	___fladd@a+2
  9266  1194  0866               	movf	___flsub@a+1,w
  9267  1195  00AF               	movwf	___fladd@a+1
  9268  1196  0865               	movf	___flsub@a,w
  9269  1197  00AE               	movwf	___fladd@a
  9270  1198  120A  158A  22D8  160A  118A  	fcall	___fladd
  9271  119D  1283               	bcf	3,5	;RP0=0, select bank0
  9272  119E  1303               	bcf	3,6	;RP1=0, select bank0
  9273  119F  082D               	movf	?___fladd+3,w
  9274  11A0  00E8               	movwf	?___flsub+3
  9275  11A1  082C               	movf	?___fladd+2,w
  9276  11A2  00E7               	movwf	?___flsub+2
  9277  11A3  082B               	movf	?___fladd+1,w
  9278  11A4  00E6               	movwf	?___flsub+1
  9279  11A5  082A               	movf	?___fladd,w
  9280  11A6  00E5               	movwf	?___flsub
  9281  11A7                     i1l741:
  9282  11A7  0008               	return
  9283  11A8                     __end_of___flsub:
  9284                           
  9285                           	psect	text38
  9286  0AD8                     __ptext38:	
  9287 ;; *************** function ___fladd *****************
  9288 ;; Defined at:
  9289 ;;		line 10 in file "C:\Program Files\Microchip\xc8\v2.35\pic\sources\c90\common\sprcadd.c"
  9290 ;; Parameters:    Size  Location     Type
  9291 ;;  b               4   10[BANK0 ] unsigned int 
  9292 ;;  a               4   14[BANK0 ] unsigned int 
  9293 ;; Auto vars:     Size  Location     Type
  9294 ;;  grs             1   29[BANK0 ] unsigned char 
  9295 ;;  bexp            1   28[BANK0 ] unsigned char 
  9296 ;;  aexp            1   27[BANK0 ] unsigned char 
  9297 ;;  signs           1   26[BANK0 ] unsigned char 
  9298 ;; Return value:  Size  Location     Type
  9299 ;;                  4   10[BANK0 ] unsigned char 
  9300 ;; Registers used:
  9301 ;;		wreg, status,2, status,0, btemp+1
  9302 ;; Tracked objects:
  9303 ;;		On entry : 0/0
  9304 ;;		On exit  : 0/0
  9305 ;;		Unchanged: 0/0
  9306 ;; Data sizes:     COMMON   BANK0   BANK1   BANK3   BANK2
  9307 ;;      Params:         0       8       0       0       0
  9308 ;;      Locals:         0       4       0       0       0
  9309 ;;      Temps:          0       8       0       0       0
  9310 ;;      Totals:         0      20       0       0       0
  9311 ;;Total ram usage:       20 bytes
  9312 ;; Hardware stack levels used: 1
  9313 ;; This function calls:
  9314 ;;		Nothing
  9315 ;; This function is called by:
  9316 ;;		_slave
  9317 ;;		_map
  9318 ;;		___flsub
  9319 ;;		_log
  9320 ;;		_eval_poly
  9321 ;; This function uses a non-reentrant model
  9322 ;;
  9323                           
  9324  0AD8                     ___fladd:	
  9325                           ;psect for function ___fladd
  9326                           
  9327  0AD8                     i1l2368:	
  9328                           ;incstack = 0
  9329                           ; Regs used in ___fladd: [wreg+status,2+status,0+btemp+1]
  9330                           
  9331  0AD8  1283               	bcf	3,5	;RP0=0, select bank0
  9332  0AD9  1303               	bcf	3,6	;RP1=0, select bank0
  9333  0ADA  082D               	movf	___fladd@b+3,w
  9334  0ADB  3980               	andlw	128
  9335  0ADC  00B2               	movwf	??___fladd
  9336  0ADD  0832               	movf	??___fladd,w
  9337  0ADE  00BA               	movwf	___fladd@signs
  9338  0ADF                     i1l2370:
  9339  0ADF  082D               	movf	___fladd@b+3,w
  9340  0AE0  00B2               	movwf	??___fladd
  9341  0AE1  0732               	addwf	??___fladd,w
  9342  0AE2  00B3               	movwf	??___fladd+1
  9343  0AE3  0833               	movf	??___fladd+1,w
  9344  0AE4  00BC               	movwf	___fladd@bexp
  9345  0AE5                     i1l2372:
  9346  0AE5  1FAC               	btfss	___fladd@b+2,7
  9347  0AE6  2AE8               	goto	u231_21
  9348  0AE7  2AE9               	goto	u231_20
  9349  0AE8                     u231_21:
  9350  0AE8  2AEA               	goto	i1l2376
  9351  0AE9                     u231_20:
  9352  0AE9                     i1l2374:
  9353  0AE9  143C               	bsf	___fladd@bexp,0
  9354  0AEA                     i1l2376:
  9355  0AEA  083C               	movf	___fladd@bexp,w
  9356  0AEB  1903               	btfsc	3,2
  9357  0AEC  2AEE               	goto	u232_21
  9358  0AED  2AEF               	goto	u232_20
  9359  0AEE                     u232_21:
  9360  0AEE  2AFF               	goto	i1l2386
  9361  0AEF                     u232_20:
  9362  0AEF                     i1l2378:
  9363  0AEF  0A3C               	incf	___fladd@bexp,w
  9364  0AF0  1D03               	btfss	3,2
  9365  0AF1  2AF3               	goto	u233_21
  9366  0AF2  2AF4               	goto	u233_20
  9367  0AF3                     u233_21:
  9368  0AF3  2AFC               	goto	i1l2382
  9369  0AF4                     u233_20:
  9370  0AF4                     i1l2380:
  9371  0AF4  3000               	movlw	0
  9372  0AF5  00AD               	movwf	___fladd@b+3
  9373  0AF6  3000               	movlw	0
  9374  0AF7  00AC               	movwf	___fladd@b+2
  9375  0AF8  3000               	movlw	0
  9376  0AF9  00AB               	movwf	___fladd@b+1
  9377  0AFA  3000               	movlw	0
  9378  0AFB  00AA               	movwf	___fladd@b
  9379  0AFC                     i1l2382:
  9380  0AFC  17AC               	bsf	___fladd@b+2,7
  9381  0AFD                     i1l2384:
  9382  0AFD  01AD               	clrf	___fladd@b+3
  9383  0AFE  2B07               	goto	i1l2388
  9384  0AFF                     i1l2386:
  9385  0AFF  3000               	movlw	0
  9386  0B00  00AD               	movwf	___fladd@b+3
  9387  0B01  3000               	movlw	0
  9388  0B02  00AC               	movwf	___fladd@b+2
  9389  0B03  3000               	movlw	0
  9390  0B04  00AB               	movwf	___fladd@b+1
  9391  0B05  3000               	movlw	0
  9392  0B06  00AA               	movwf	___fladd@b
  9393  0B07                     i1l2388:
  9394  0B07  0831               	movf	___fladd@a+3,w
  9395  0B08  3980               	andlw	128
  9396  0B09  00B2               	movwf	??___fladd
  9397  0B0A  0832               	movf	??___fladd,w
  9398  0B0B  00BB               	movwf	___fladd@aexp
  9399  0B0C                     i1l2390:
  9400  0B0C  083B               	movf	___fladd@aexp,w
  9401  0B0D  063A               	xorwf	___fladd@signs,w
  9402  0B0E  1903               	skipnz
  9403  0B0F  2B11               	goto	u234_21
  9404  0B10  2B12               	goto	u234_20
  9405  0B11                     u234_21:
  9406  0B11  2B13               	goto	i1l2394
  9407  0B12                     u234_20:
  9408  0B12                     i1l2392:
  9409  0B12  173A               	bsf	___fladd@signs,6
  9410  0B13                     i1l2394:
  9411  0B13  0831               	movf	___fladd@a+3,w
  9412  0B14  00B2               	movwf	??___fladd
  9413  0B15  0732               	addwf	??___fladd,w
  9414  0B16  00B3               	movwf	??___fladd+1
  9415  0B17  0833               	movf	??___fladd+1,w
  9416  0B18  00BB               	movwf	___fladd@aexp
  9417  0B19                     i1l2396:
  9418  0B19  1FB0               	btfss	___fladd@a+2,7
  9419  0B1A  2B1C               	goto	u235_21
  9420  0B1B  2B1D               	goto	u235_20
  9421  0B1C                     u235_21:
  9422  0B1C  2B1E               	goto	i1l2400
  9423  0B1D                     u235_20:
  9424  0B1D                     i1l2398:
  9425  0B1D  143B               	bsf	___fladd@aexp,0
  9426  0B1E                     i1l2400:
  9427  0B1E  083B               	movf	___fladd@aexp,w
  9428  0B1F  1903               	btfsc	3,2
  9429  0B20  2B22               	goto	u236_21
  9430  0B21  2B23               	goto	u236_20
  9431  0B22                     u236_21:
  9432  0B22  2B33               	goto	i1l2410
  9433  0B23                     u236_20:
  9434  0B23                     i1l2402:
  9435  0B23  0A3B               	incf	___fladd@aexp,w
  9436  0B24  1D03               	btfss	3,2
  9437  0B25  2B27               	goto	u237_21
  9438  0B26  2B28               	goto	u237_20
  9439  0B27                     u237_21:
  9440  0B27  2B30               	goto	i1l2406
  9441  0B28                     u237_20:
  9442  0B28                     i1l2404:
  9443  0B28  3000               	movlw	0
  9444  0B29  00B1               	movwf	___fladd@a+3
  9445  0B2A  3000               	movlw	0
  9446  0B2B  00B0               	movwf	___fladd@a+2
  9447  0B2C  3000               	movlw	0
  9448  0B2D  00AF               	movwf	___fladd@a+1
  9449  0B2E  3000               	movlw	0
  9450  0B2F  00AE               	movwf	___fladd@a
  9451  0B30                     i1l2406:
  9452  0B30  17B0               	bsf	___fladd@a+2,7
  9453  0B31                     i1l2408:
  9454  0B31  01B1               	clrf	___fladd@a+3
  9455  0B32  2B3B               	goto	i1l695
  9456  0B33                     i1l2410:
  9457  0B33  3000               	movlw	0
  9458  0B34  00B1               	movwf	___fladd@a+3
  9459  0B35  3000               	movlw	0
  9460  0B36  00B0               	movwf	___fladd@a+2
  9461  0B37  3000               	movlw	0
  9462  0B38  00AF               	movwf	___fladd@a+1
  9463  0B39  3000               	movlw	0
  9464  0B3A  00AE               	movwf	___fladd@a
  9465  0B3B                     i1l695:
  9466  0B3B  083C               	movf	___fladd@bexp,w
  9467  0B3C  023B               	subwf	___fladd@aexp,w
  9468  0B3D  1803               	skipnc
  9469  0B3E  2B40               	goto	u238_21
  9470  0B3F  2B41               	goto	u238_20
  9471  0B40                     u238_21:
  9472  0B40  2B85               	goto	i1l2446
  9473  0B41                     u238_20:
  9474  0B41                     i1l2412:
  9475  0B41  1F3A               	btfss	___fladd@signs,6
  9476  0B42  2B44               	goto	u239_21
  9477  0B43  2B45               	goto	u239_20
  9478  0B44                     u239_21:
  9479  0B44  2B49               	goto	i1l2416
  9480  0B45                     u239_20:
  9481  0B45                     i1l2414:
  9482  0B45  3080               	movlw	128
  9483  0B46  00B2               	movwf	??___fladd
  9484  0B47  0832               	movf	??___fladd,w
  9485  0B48  06BA               	xorwf	___fladd@signs,f
  9486  0B49                     i1l2416:
  9487  0B49  083C               	movf	___fladd@bexp,w
  9488  0B4A  00B2               	movwf	??___fladd
  9489  0B4B  0832               	movf	??___fladd,w
  9490  0B4C  00BD               	movwf	___fladd@grs
  9491  0B4D                     i1l2418:
  9492  0B4D  083B               	movf	___fladd@aexp,w
  9493  0B4E  00B2               	movwf	??___fladd
  9494  0B4F  0832               	movf	??___fladd,w
  9495  0B50  00BC               	movwf	___fladd@bexp
  9496  0B51                     i1l2420:
  9497  0B51  083D               	movf	___fladd@grs,w
  9498  0B52  00B2               	movwf	??___fladd
  9499  0B53  0832               	movf	??___fladd,w
  9500  0B54  00BB               	movwf	___fladd@aexp
  9501  0B55                     i1l2422:
  9502  0B55  082A               	movf	___fladd@b,w
  9503  0B56  00B2               	movwf	??___fladd
  9504  0B57  0832               	movf	??___fladd,w
  9505  0B58  00BD               	movwf	___fladd@grs
  9506  0B59                     i1l2424:
  9507  0B59  082E               	movf	___fladd@a,w
  9508  0B5A  00B2               	movwf	??___fladd
  9509  0B5B  0832               	movf	??___fladd,w
  9510  0B5C  00AA               	movwf	___fladd@b
  9511  0B5D                     i1l2426:
  9512  0B5D  083D               	movf	___fladd@grs,w
  9513  0B5E  00B2               	movwf	??___fladd
  9514  0B5F  0832               	movf	??___fladd,w
  9515  0B60  00AE               	movwf	___fladd@a
  9516  0B61                     i1l2428:
  9517  0B61  082B               	movf	___fladd@b+1,w
  9518  0B62  00B2               	movwf	??___fladd
  9519  0B63  0832               	movf	??___fladd,w
  9520  0B64  00BD               	movwf	___fladd@grs
  9521  0B65                     i1l2430:
  9522  0B65  082F               	movf	___fladd@a+1,w
  9523  0B66  00B2               	movwf	??___fladd
  9524  0B67  0832               	movf	??___fladd,w
  9525  0B68  00AB               	movwf	___fladd@b+1
  9526  0B69                     i1l2432:
  9527  0B69  083D               	movf	___fladd@grs,w
  9528  0B6A  00B2               	movwf	??___fladd
  9529  0B6B  0832               	movf	??___fladd,w
  9530  0B6C  00AF               	movwf	___fladd@a+1
  9531  0B6D                     i1l2434:
  9532  0B6D  082C               	movf	___fladd@b+2,w
  9533  0B6E  00B2               	movwf	??___fladd
  9534  0B6F  0832               	movf	??___fladd,w
  9535  0B70  00BD               	movwf	___fladd@grs
  9536  0B71                     i1l2436:
  9537  0B71  0830               	movf	___fladd@a+2,w
  9538  0B72  00B2               	movwf	??___fladd
  9539  0B73  0832               	movf	??___fladd,w
  9540  0B74  00AC               	movwf	___fladd@b+2
  9541  0B75                     i1l2438:
  9542  0B75  083D               	movf	___fladd@grs,w
  9543  0B76  00B2               	movwf	??___fladd
  9544  0B77  0832               	movf	??___fladd,w
  9545  0B78  00B0               	movwf	___fladd@a+2
  9546  0B79                     i1l2440:
  9547  0B79  082D               	movf	___fladd@b+3,w
  9548  0B7A  00B2               	movwf	??___fladd
  9549  0B7B  0832               	movf	??___fladd,w
  9550  0B7C  00BD               	movwf	___fladd@grs
  9551  0B7D                     i1l2442:
  9552  0B7D  0831               	movf	___fladd@a+3,w
  9553  0B7E  00B2               	movwf	??___fladd
  9554  0B7F  0832               	movf	??___fladd,w
  9555  0B80  00AD               	movwf	___fladd@b+3
  9556  0B81                     i1l2444:
  9557  0B81  083D               	movf	___fladd@grs,w
  9558  0B82  00B2               	movwf	??___fladd
  9559  0B83  0832               	movf	??___fladd,w
  9560  0B84  00B1               	movwf	___fladd@a+3
  9561  0B85                     i1l2446:
  9562  0B85  01BD               	clrf	___fladd@grs
  9563  0B86                     i1l2448:
  9564  0B86  083B               	movf	___fladd@aexp,w
  9565  0B87  00B2               	movwf	??___fladd
  9566  0B88  01B3               	clrf	??___fladd+1
  9567  0B89  0833               	movf	??___fladd+1,w
  9568  0B8A  00B5               	movwf	??___fladd+3
  9569  0B8B  083C               	movf	___fladd@bexp,w
  9570  0B8C  0232               	subwf	??___fladd,w
  9571  0B8D  00B4               	movwf	??___fladd+2
  9572  0B8E  1C03               	skipc
  9573  0B8F  03B5               	decf	??___fladd+3,f
  9574  0B90  0835               	movf	??___fladd+3,w
  9575  0B91  3A80               	xorlw	128
  9576  0B92  00FF               	movwf	btemp+1
  9577  0B93  3080               	movlw	128
  9578  0B94  027F               	subwf	btemp+1,w
  9579  0B95  1D03               	skipz
  9580  0B96  2B99               	goto	u240_25
  9581  0B97  301A               	movlw	26
  9582  0B98  0234               	subwf	??___fladd+2,w
  9583  0B99                     u240_25:
  9584  0B99  1C03               	skipc
  9585  0B9A  2B9C               	goto	u240_21
  9586  0B9B  2B9D               	goto	u240_20
  9587  0B9C                     u240_21:
  9588  0B9C  2BDA               	goto	i1l2464
  9589  0B9D                     u240_20:
  9590  0B9D                     i1l2450:
  9591  0B9D  1283               	bcf	3,5	;RP0=0, select bank0
  9592  0B9E  1303               	bcf	3,6	;RP1=0, select bank0
  9593  0B9F  082D               	movf	___fladd@b+3,w
  9594  0BA0  042C               	iorwf	___fladd@b+2,w
  9595  0BA1  042B               	iorwf	___fladd@b+1,w
  9596  0BA2  042A               	iorwf	___fladd@b,w
  9597  0BA3  1D03               	skipz
  9598  0BA4  2BA6               	goto	u241_21
  9599  0BA5  2BA8               	goto	u241_20
  9600  0BA6                     u241_21:
  9601  0BA6  3001               	movlw	1
  9602  0BA7  2BA9               	goto	u242_20
  9603  0BA8                     u241_20:
  9604  0BA8  3000               	movlw	0
  9605  0BA9                     u242_20:
  9606  0BA9  00B2               	movwf	??___fladd
  9607  0BAA  0832               	movf	??___fladd,w
  9608  0BAB  00BD               	movwf	___fladd@grs
  9609  0BAC  3000               	movlw	0
  9610  0BAD  00AD               	movwf	___fladd@b+3
  9611  0BAE  3000               	movlw	0
  9612  0BAF  00AC               	movwf	___fladd@b+2
  9613  0BB0  3000               	movlw	0
  9614  0BB1  00AB               	movwf	___fladd@b+1
  9615  0BB2  3000               	movlw	0
  9616  0BB3  00AA               	movwf	___fladd@b
  9617  0BB4  083B               	movf	___fladd@aexp,w
  9618  0BB5  00B2               	movwf	??___fladd
  9619  0BB6  0832               	movf	??___fladd,w
  9620  0BB7  00BC               	movwf	___fladd@bexp
  9621  0BB8  2BE2               	goto	i1l699
  9622  0BB9                     i1l701:
  9623  0BB9  1C3D               	btfss	___fladd@grs,0
  9624  0BBA  2BBC               	goto	u243_21
  9625  0BBB  2BBD               	goto	u243_20
  9626  0BBC                     u243_21:
  9627  0BBC  2BC6               	goto	i1l2454
  9628  0BBD                     u243_20:
  9629  0BBD                     i1l2452:
  9630  0BBD  083D               	movf	___fladd@grs,w
  9631  0BBE  00B2               	movwf	??___fladd
  9632  0BBF  1003               	clrc
  9633  0BC0  0C32               	rrf	??___fladd,w
  9634  0BC1  3801               	iorlw	1
  9635  0BC2  00B3               	movwf	??___fladd+1
  9636  0BC3  0833               	movf	??___fladd+1,w
  9637  0BC4  00BD               	movwf	___fladd@grs
  9638  0BC5  2BC8               	goto	i1l2456
  9639  0BC6                     i1l2454:
  9640  0BC6  1003               	clrc
  9641  0BC7  0CBD               	rrf	___fladd@grs,f
  9642  0BC8                     i1l2456:
  9643  0BC8  1C2A               	btfss	___fladd@b,0
  9644  0BC9  2BCB               	goto	u244_21
  9645  0BCA  2BCC               	goto	u244_20
  9646  0BCB                     u244_21:
  9647  0BCB  2BCD               	goto	i1l2460
  9648  0BCC                     u244_20:
  9649  0BCC                     i1l2458:
  9650  0BCC  17BD               	bsf	___fladd@grs,7
  9651  0BCD                     i1l2460:
  9652  0BCD  3001               	movlw	1
  9653  0BCE  00B2               	movwf	??___fladd
  9654  0BCF                     u245_25:
  9655  0BCF  0D2D               	rlf	___fladd@b+3,w
  9656  0BD0  0CAD               	rrf	___fladd@b+3,f
  9657  0BD1  0CAC               	rrf	___fladd@b+2,f
  9658  0BD2  0CAB               	rrf	___fladd@b+1,f
  9659  0BD3  0CAA               	rrf	___fladd@b,f
  9660  0BD4  0BB2               	decfsz	??___fladd& (0+127),f
  9661  0BD5  2BCF               	goto	u245_25
  9662  0BD6                     i1l2462:
  9663  0BD6  3001               	movlw	1
  9664  0BD7  00B2               	movwf	??___fladd
  9665  0BD8  0832               	movf	??___fladd,w
  9666  0BD9  07BC               	addwf	___fladd@bexp,f
  9667  0BDA                     i1l2464:
  9668  0BDA  1283               	bcf	3,5	;RP0=0, select bank0
  9669  0BDB  1303               	bcf	3,6	;RP1=0, select bank0
  9670  0BDC  083B               	movf	___fladd@aexp,w
  9671  0BDD  023C               	subwf	___fladd@bexp,w
  9672  0BDE  1C03               	skipc
  9673  0BDF  2BE1               	goto	u246_21
  9674  0BE0  2BE2               	goto	u246_20
  9675  0BE1                     u246_21:
  9676  0BE1  2BB9               	goto	i1l701
  9677  0BE2                     u246_20:
  9678  0BE2                     i1l699:
  9679  0BE2  1B3A               	btfsc	___fladd@signs,6
  9680  0BE3  2BE5               	goto	u247_21
  9681  0BE4  2BE6               	goto	u247_20
  9682  0BE5                     u247_21:
  9683  0BE5  2C31               	goto	i1l2490
  9684  0BE6                     u247_20:
  9685  0BE6                     i1l2466:
  9686  0BE6  083C               	movf	___fladd@bexp,w
  9687  0BE7  1D03               	btfss	3,2
  9688  0BE8  2BEA               	goto	u248_21
  9689  0BE9  2BEB               	goto	u248_20
  9690  0BEA                     u248_21:
  9691  0BEA  2BF4               	goto	i1l2472
  9692  0BEB                     u248_20:
  9693  0BEB                     i1l2468:
  9694  0BEB  3000               	movlw	0
  9695  0BEC  00AD               	movwf	?___fladd+3
  9696  0BED  3000               	movlw	0
  9697  0BEE  00AC               	movwf	?___fladd+2
  9698  0BEF  3000               	movlw	0
  9699  0BF0  00AB               	movwf	?___fladd+1
  9700  0BF1  3000               	movlw	0
  9701  0BF2  00AA               	movwf	?___fladd
  9702  0BF3  2D5F               	goto	i1l708
  9703  0BF4                     i1l2472:
  9704  0BF4  082E               	movf	___fladd@a,w
  9705  0BF5  07AA               	addwf	___fladd@b,f
  9706  0BF6  082F               	movf	___fladd@a+1,w
  9707  0BF7  1103               	clrz
  9708  0BF8  1803               	skipnc
  9709  0BF9  3E01               	addlw	1
  9710  0BFA  1903               	skipnz
  9711  0BFB  2BFD               	goto	u249_21
  9712  0BFC  07AB               	addwf	___fladd@b+1,f
  9713  0BFD                     u249_21:
  9714  0BFD  0830               	movf	___fladd@a+2,w
  9715  0BFE  1103               	clrz
  9716  0BFF  1803               	skipnc
  9717  0C00  3E01               	addlw	1
  9718  0C01  1903               	skipnz
  9719  0C02  2C04               	goto	u249_22
  9720  0C03  07AC               	addwf	___fladd@b+2,f
  9721  0C04                     u249_22:
  9722  0C04  0831               	movf	___fladd@a+3,w
  9723  0C05  1103               	clrz
  9724  0C06  1803               	skipnc
  9725  0C07  3E01               	addlw	1
  9726  0C08  1903               	skipnz
  9727  0C09  2C0B               	goto	u249_23
  9728  0C0A  07AD               	addwf	___fladd@b+3,f
  9729  0C0B                     u249_23:
  9730  0C0B                     i1l2474:
  9731  0C0B  1C2D               	btfss	___fladd@b+3,0
  9732  0C0C  2C0E               	goto	u250_21
  9733  0C0D  2C0F               	goto	u250_20
  9734  0C0E                     u250_21:
  9735  0C0E  2CE5               	goto	i1l2524
  9736  0C0F                     u250_20:
  9737  0C0F                     i1l2476:
  9738  0C0F  1C3D               	btfss	___fladd@grs,0
  9739  0C10  2C12               	goto	u251_21
  9740  0C11  2C13               	goto	u251_20
  9741  0C12                     u251_21:
  9742  0C12  2C1C               	goto	i1l2480
  9743  0C13                     u251_20:
  9744  0C13                     i1l2478:
  9745  0C13  083D               	movf	___fladd@grs,w
  9746  0C14  00B2               	movwf	??___fladd
  9747  0C15  1003               	clrc
  9748  0C16  0C32               	rrf	??___fladd,w
  9749  0C17  3801               	iorlw	1
  9750  0C18  00B3               	movwf	??___fladd+1
  9751  0C19  0833               	movf	??___fladd+1,w
  9752  0C1A  00BD               	movwf	___fladd@grs
  9753  0C1B  2C1E               	goto	i1l2482
  9754  0C1C                     i1l2480:
  9755  0C1C  1003               	clrc
  9756  0C1D  0CBD               	rrf	___fladd@grs,f
  9757  0C1E                     i1l2482:
  9758  0C1E  1C2A               	btfss	___fladd@b,0
  9759  0C1F  2C21               	goto	u252_21
  9760  0C20  2C22               	goto	u252_20
  9761  0C21                     u252_21:
  9762  0C21  2C23               	goto	i1l2486
  9763  0C22                     u252_20:
  9764  0C22                     i1l2484:
  9765  0C22  17BD               	bsf	___fladd@grs,7
  9766  0C23                     i1l2486:
  9767  0C23  3001               	movlw	1
  9768  0C24  00B2               	movwf	??___fladd
  9769  0C25                     u253_25:
  9770  0C25  0D2D               	rlf	___fladd@b+3,w
  9771  0C26  0CAD               	rrf	___fladd@b+3,f
  9772  0C27  0CAC               	rrf	___fladd@b+2,f
  9773  0C28  0CAB               	rrf	___fladd@b+1,f
  9774  0C29  0CAA               	rrf	___fladd@b,f
  9775  0C2A  0BB2               	decfsz	??___fladd& (0+127),f
  9776  0C2B  2C25               	goto	u253_25
  9777  0C2C                     i1l2488:
  9778  0C2C  3001               	movlw	1
  9779  0C2D  00B2               	movwf	??___fladd
  9780  0C2E  0832               	movf	??___fladd,w
  9781  0C2F  07BC               	addwf	___fladd@bexp,f
  9782  0C30  2CE5               	goto	i1l2524
  9783  0C31                     i1l2490:
  9784  0C31  082D               	movf	___fladd@b+3,w
  9785  0C32  3A80               	xorlw	128
  9786  0C33  00FF               	movwf	btemp+1
  9787  0C34  0831               	movf	___fladd@a+3,w
  9788  0C35  3A80               	xorlw	128
  9789  0C36  027F               	subwf	btemp+1,w
  9790  0C37  1D03               	skipz
  9791  0C38  2C43               	goto	u254_23
  9792  0C39  0830               	movf	___fladd@a+2,w
  9793  0C3A  022C               	subwf	___fladd@b+2,w
  9794  0C3B  1D03               	skipz
  9795  0C3C  2C43               	goto	u254_23
  9796  0C3D  082F               	movf	___fladd@a+1,w
  9797  0C3E  022B               	subwf	___fladd@b+1,w
  9798  0C3F  1D03               	skipz
  9799  0C40  2C43               	goto	u254_23
  9800  0C41  082E               	movf	___fladd@a,w
  9801  0C42  022A               	subwf	___fladd@b,w
  9802  0C43                     u254_23:
  9803  0C43  1803               	skipnc
  9804  0C44  2C46               	goto	u254_21
  9805  0C45  2C47               	goto	u254_20
  9806  0C46                     u254_21:
  9807  0C46  2C9F               	goto	i1l2500
  9808  0C47                     u254_20:
  9809  0C47                     i1l2492:
  9810  0C47  30FF               	movlw	255
  9811  0C48  00B2               	movwf	??___fladd
  9812  0C49  30FF               	movlw	255
  9813  0C4A  00B3               	movwf	??___fladd+1
  9814  0C4B  30FF               	movlw	255
  9815  0C4C  00B4               	movwf	??___fladd+2
  9816  0C4D  30FF               	movlw	255
  9817  0C4E  00B5               	movwf	??___fladd+3
  9818  0C4F  082E               	movf	___fladd@a,w
  9819  0C50  00B6               	movwf	??___fladd+4
  9820  0C51  082F               	movf	___fladd@a+1,w
  9821  0C52  00B7               	movwf	??___fladd+5
  9822  0C53  0830               	movf	___fladd@a+2,w
  9823  0C54  00B8               	movwf	??___fladd+6
  9824  0C55  0831               	movf	___fladd@a+3,w
  9825  0C56  00B9               	movwf	??___fladd+7
  9826  0C57  082A               	movf	___fladd@b,w
  9827  0C58  02B6               	subwf	??___fladd+4,f
  9828  0C59  082B               	movf	___fladd@b+1,w
  9829  0C5A  1C03               	skipc
  9830  0C5B  0F2B               	incfsz	___fladd@b+1,w
  9831  0C5C  2C5E               	goto	u255_21
  9832  0C5D  2C5F               	goto	u255_22
  9833  0C5E                     u255_21:
  9834  0C5E  02B7               	subwf	??___fladd+5,f
  9835  0C5F                     u255_22:
  9836  0C5F  082C               	movf	___fladd@b+2,w
  9837  0C60  1C03               	skipc
  9838  0C61  0F2C               	incfsz	___fladd@b+2,w
  9839  0C62  2C64               	goto	u255_23
  9840  0C63  2C65               	goto	u255_24
  9841  0C64                     u255_23:
  9842  0C64  02B8               	subwf	??___fladd+6,f
  9843  0C65                     u255_24:
  9844  0C65  082D               	movf	___fladd@b+3,w
  9845  0C66  1C03               	skipc
  9846  0C67  0F2D               	incfsz	___fladd@b+3,w
  9847  0C68  2C6A               	goto	u255_25
  9848  0C69  2C6B               	goto	u255_26
  9849  0C6A                     u255_25:
  9850  0C6A  02B9               	subwf	??___fladd+7,f
  9851  0C6B                     u255_26:
  9852  0C6B  0836               	movf	??___fladd+4,w
  9853  0C6C  07B2               	addwf	??___fladd,f
  9854  0C6D  0837               	movf	??___fladd+5,w
  9855  0C6E  1803               	skipnc
  9856  0C6F  0F37               	incfsz	??___fladd+5,w
  9857  0C70  2C72               	goto	u256_20
  9858  0C71  2C73               	goto	u256_21
  9859  0C72                     u256_20:
  9860  0C72  07B3               	addwf	??___fladd+1,f
  9861  0C73                     u256_21:
  9862  0C73  0838               	movf	??___fladd+6,w
  9863  0C74  1803               	skipnc
  9864  0C75  0F38               	incfsz	??___fladd+6,w
  9865  0C76  2C78               	goto	u256_22
  9866  0C77  2C79               	goto	u256_23
  9867  0C78                     u256_22:
  9868  0C78  07B4               	addwf	??___fladd+2,f
  9869  0C79                     u256_23:
  9870  0C79  0839               	movf	??___fladd+7,w
  9871  0C7A  1803               	skipnc
  9872  0C7B  0A39               	incf	??___fladd+7,w
  9873  0C7C  07B5               	addwf	??___fladd+3,f
  9874  0C7D  0835               	movf	??___fladd+3,w
  9875  0C7E  00AD               	movwf	___fladd@b+3
  9876  0C7F  0834               	movf	??___fladd+2,w
  9877  0C80  00AC               	movwf	___fladd@b+2
  9878  0C81  0833               	movf	??___fladd+1,w
  9879  0C82  00AB               	movwf	___fladd@b+1
  9880  0C83  0832               	movf	??___fladd,w
  9881  0C84  00AA               	movwf	___fladd@b
  9882  0C85                     i1l2494:
  9883  0C85  3080               	movlw	128
  9884  0C86  00B2               	movwf	??___fladd
  9885  0C87  0832               	movf	??___fladd,w
  9886  0C88  06BA               	xorwf	___fladd@signs,f
  9887  0C89  09BD               	comf	___fladd@grs,f
  9888  0C8A  0ABD               	incf	___fladd@grs,f
  9889  0C8B                     i1l2496:
  9890  0C8B  083D               	movf	___fladd@grs,w
  9891  0C8C  1D03               	btfss	3,2
  9892  0C8D  2C8F               	goto	u257_21
  9893  0C8E  2C90               	goto	u257_20
  9894  0C8F                     u257_21:
  9895  0C8F  2CAD               	goto	i1l716
  9896  0C90                     u257_20:
  9897  0C90                     i1l2498:
  9898  0C90  3001               	movlw	1
  9899  0C91  07AA               	addwf	___fladd@b,f
  9900  0C92  3000               	movlw	0
  9901  0C93  1803               	skipnc
  9902  0C94  3001               	movlw	1
  9903  0C95  07AB               	addwf	___fladd@b+1,f
  9904  0C96  3000               	movlw	0
  9905  0C97  1803               	skipnc
  9906  0C98  3001               	movlw	1
  9907  0C99  07AC               	addwf	___fladd@b+2,f
  9908  0C9A  3000               	movlw	0
  9909  0C9B  1803               	skipnc
  9910  0C9C  3001               	movlw	1
  9911  0C9D  07AD               	addwf	___fladd@b+3,f
  9912  0C9E  2CAD               	goto	i1l716
  9913  0C9F                     i1l2500:
  9914  0C9F  082E               	movf	___fladd@a,w
  9915  0CA0  02AA               	subwf	___fladd@b,f
  9916  0CA1  082F               	movf	___fladd@a+1,w
  9917  0CA2  1C03               	skipc
  9918  0CA3  0F2F               	incfsz	___fladd@a+1,w
  9919  0CA4  02AB               	subwf	___fladd@b+1,f
  9920  0CA5  0830               	movf	___fladd@a+2,w
  9921  0CA6  1C03               	skipc
  9922  0CA7  0F30               	incfsz	___fladd@a+2,w
  9923  0CA8  02AC               	subwf	___fladd@b+2,f
  9924  0CA9  0831               	movf	___fladd@a+3,w
  9925  0CAA  1C03               	skipc
  9926  0CAB  0F31               	incfsz	___fladd@a+3,w
  9927  0CAC  02AD               	subwf	___fladd@b+3,f
  9928  0CAD                     i1l716:
  9929  0CAD  082D               	movf	___fladd@b+3,w
  9930  0CAE  042C               	iorwf	___fladd@b+2,w
  9931  0CAF  042B               	iorwf	___fladd@b+1,w
  9932  0CB0  042A               	iorwf	___fladd@b,w
  9933  0CB1  1D03               	skipz
  9934  0CB2  2CB4               	goto	u258_21
  9935  0CB3  2CB5               	goto	u258_20
  9936  0CB4                     u258_21:
  9937  0CB4  2CE1               	goto	i1l2522
  9938  0CB5                     u258_20:
  9939  0CB5                     i1l2502:
  9940  0CB5  083D               	movf	___fladd@grs,w
  9941  0CB6  1D03               	btfss	3,2
  9942  0CB7  2CB9               	goto	u259_21
  9943  0CB8  2CBA               	goto	u259_20
  9944  0CB9                     u259_21:
  9945  0CB9  2CE1               	goto	i1l2522
  9946  0CBA                     u259_20:
  9947  0CBA                     i1l2504:
  9948  0CBA  3000               	movlw	0
  9949  0CBB  00AD               	movwf	?___fladd+3
  9950  0CBC  3000               	movlw	0
  9951  0CBD  00AC               	movwf	?___fladd+2
  9952  0CBE  3000               	movlw	0
  9953  0CBF  00AB               	movwf	?___fladd+1
  9954  0CC0  3000               	movlw	0
  9955  0CC1  00AA               	movwf	?___fladd
  9956  0CC2  2D5F               	goto	i1l708
  9957  0CC3                     i1l2508:
  9958  0CC3  3001               	movlw	1
  9959  0CC4  00B2               	movwf	??___fladd
  9960  0CC5                     u260_25:
  9961  0CC5  1003               	clrc
  9962  0CC6  0DAA               	rlf	___fladd@b,f
  9963  0CC7  0DAB               	rlf	___fladd@b+1,f
  9964  0CC8  0DAC               	rlf	___fladd@b+2,f
  9965  0CC9  0DAD               	rlf	___fladd@b+3,f
  9966  0CCA  0BB2               	decfsz	??___fladd,f
  9967  0CCB  2CC5               	goto	u260_25
  9968  0CCC                     i1l2510:
  9969  0CCC  1FBD               	btfss	___fladd@grs,7
  9970  0CCD  2CCF               	goto	u261_21
  9971  0CCE  2CD0               	goto	u261_20
  9972  0CCF                     u261_21:
  9973  0CCF  2CD1               	goto	i1l720
  9974  0CD0                     u261_20:
  9975  0CD0                     i1l2512:
  9976  0CD0  142A               	bsf	___fladd@b,0
  9977  0CD1                     i1l720:
  9978  0CD1  1C3D               	btfss	___fladd@grs,0
  9979  0CD2  2CD4               	goto	u262_21
  9980  0CD3  2CD5               	goto	u262_20
  9981  0CD4                     u262_21:
  9982  0CD4  2CD8               	goto	i1l2516
  9983  0CD5                     u262_20:
  9984  0CD5                     i1l2514:
  9985  0CD5  1403               	setc
  9986  0CD6  0DBD               	rlf	___fladd@grs,f
  9987  0CD7  2CDA               	goto	i1l2518
  9988  0CD8                     i1l2516:
  9989  0CD8  1003               	clrc
  9990  0CD9  0DBD               	rlf	___fladd@grs,f
  9991  0CDA                     i1l2518:
  9992  0CDA  083C               	movf	___fladd@bexp,w
  9993  0CDB  1903               	btfsc	3,2
  9994  0CDC  2CDE               	goto	u263_21
  9995  0CDD  2CDF               	goto	u263_20
  9996  0CDE                     u263_21:
  9997  0CDE  2CE1               	goto	i1l2522
  9998  0CDF                     u263_20:
  9999  0CDF                     i1l2520:
 10000  0CDF  3001               	movlw	1
 10001  0CE0  02BC               	subwf	___fladd@bexp,f
 10002  0CE1                     i1l2522:
 10003  0CE1  1FAC               	btfss	___fladd@b+2,7
 10004  0CE2  2CE4               	goto	u264_21
 10005  0CE3  2CE5               	goto	u264_20
 10006  0CE4                     u264_21:
 10007  0CE4  2CC3               	goto	i1l2508
 10008  0CE5                     u264_20:
 10009  0CE5                     i1l2524:
 10010  0CE5  01BB               	clrf	___fladd@aexp
 10011  0CE6                     i1l2526:
 10012  0CE6  1FBD               	btfss	___fladd@grs,7
 10013  0CE7  2CE9               	goto	u265_21
 10014  0CE8  2CEA               	goto	u265_20
 10015  0CE9                     u265_21:
 10016  0CE9  2CF8               	goto	i1l2534
 10017  0CEA                     u265_20:
 10018  0CEA                     i1l2528:
 10019  0CEA  083D               	movf	___fladd@grs,w
 10020  0CEB  397F               	andlw	127
 10021  0CEC  1903               	btfsc	3,2
 10022  0CED  2CEF               	goto	u266_21
 10023  0CEE  2CF0               	goto	u266_20
 10024  0CEF                     u266_21:
 10025  0CEF  2CF3               	goto	i1l726
 10026  0CF0                     u266_20:
 10027  0CF0                     i1l2530:
 10028  0CF0  01BB               	clrf	___fladd@aexp
 10029  0CF1  0ABB               	incf	___fladd@aexp,f
 10030  0CF2  2CF8               	goto	i1l2534
 10031  0CF3                     i1l726:
 10032  0CF3  1C2A               	btfss	___fladd@b,0
 10033  0CF4  2CF6               	goto	u267_21
 10034  0CF5  2CF7               	goto	u267_20
 10035  0CF6                     u267_21:
 10036  0CF6  2CF8               	goto	i1l2534
 10037  0CF7                     u267_20:
 10038  0CF7  2CF0               	goto	i1l2530
 10039  0CF8                     i1l2534:
 10040  0CF8  083B               	movf	___fladd@aexp,w
 10041  0CF9  1903               	btfsc	3,2
 10042  0CFA  2CFC               	goto	u268_21
 10043  0CFB  2CFD               	goto	u268_20
 10044  0CFC                     u268_21:
 10045  0CFC  2D31               	goto	i1l729
 10046  0CFD                     u268_20:
 10047  0CFD                     i1l2536:
 10048  0CFD  3001               	movlw	1
 10049  0CFE  07AA               	addwf	___fladd@b,f
 10050  0CFF  3000               	movlw	0
 10051  0D00  1803               	skipnc
 10052  0D01  3001               	movlw	1
 10053  0D02  07AB               	addwf	___fladd@b+1,f
 10054  0D03  3000               	movlw	0
 10055  0D04  1803               	skipnc
 10056  0D05  3001               	movlw	1
 10057  0D06  07AC               	addwf	___fladd@b+2,f
 10058  0D07  3000               	movlw	0
 10059  0D08  1803               	skipnc
 10060  0D09  3001               	movlw	1
 10061  0D0A  07AD               	addwf	___fladd@b+3,f
 10062  0D0B                     i1l2538:
 10063  0D0B  1C2D               	btfss	___fladd@b+3,0
 10064  0D0C  2D0E               	goto	u269_21
 10065  0D0D  2D0F               	goto	u269_20
 10066  0D0E                     u269_21:
 10067  0D0E  2D31               	goto	i1l729
 10068  0D0F                     u269_20:
 10069  0D0F                     i1l2540:
 10070  0D0F  082A               	movf	___fladd@b,w
 10071  0D10  00B2               	movwf	??___fladd
 10072  0D11  082B               	movf	___fladd@b+1,w
 10073  0D12  00B3               	movwf	??___fladd+1
 10074  0D13  082C               	movf	___fladd@b+2,w
 10075  0D14  00B4               	movwf	??___fladd+2
 10076  0D15  082D               	movf	___fladd@b+3,w
 10077  0D16  00B5               	movwf	??___fladd+3
 10078  0D17  3001               	movlw	1
 10079  0D18  00B6               	movwf	??___fladd+4
 10080  0D19                     u270_25:
 10081  0D19  0D35               	rlf	??___fladd+3,w
 10082  0D1A  0CB5               	rrf	??___fladd+3,f
 10083  0D1B  0CB4               	rrf	??___fladd+2,f
 10084  0D1C  0CB3               	rrf	??___fladd+1,f
 10085  0D1D  0CB2               	rrf	??___fladd,f
 10086  0D1E                     u270_20:
 10087  0D1E  0BB6               	decfsz	??___fladd+4,f
 10088  0D1F  2D19               	goto	u270_25
 10089  0D20  0835               	movf	??___fladd+3,w
 10090  0D21  00AD               	movwf	___fladd@b+3
 10091  0D22  0834               	movf	??___fladd+2,w
 10092  0D23  00AC               	movwf	___fladd@b+2
 10093  0D24  0833               	movf	??___fladd+1,w
 10094  0D25  00AB               	movwf	___fladd@b+1
 10095  0D26  0832               	movf	??___fladd,w
 10096  0D27  00AA               	movwf	___fladd@b
 10097  0D28  0A3C               	incf	___fladd@bexp,w
 10098  0D29  1903               	btfsc	3,2
 10099  0D2A  2D2C               	goto	u271_21
 10100  0D2B  2D2D               	goto	u271_20
 10101  0D2C                     u271_21:
 10102  0D2C  2D31               	goto	i1l729
 10103  0D2D                     u271_20:
 10104  0D2D                     i1l2542:
 10105  0D2D  3001               	movlw	1
 10106  0D2E  00B2               	movwf	??___fladd
 10107  0D2F  0832               	movf	??___fladd,w
 10108  0D30  07BC               	addwf	___fladd@bexp,f
 10109  0D31                     i1l729:
 10110  0D31  0A3C               	incf	___fladd@bexp,w
 10111  0D32  1903               	btfsc	3,2
 10112  0D33  2D35               	goto	u272_21
 10113  0D34  2D36               	goto	u272_20
 10114  0D35                     u272_21:
 10115  0D35  2D3B               	goto	i1l2546
 10116  0D36                     u272_20:
 10117  0D36                     i1l2544:
 10118  0D36  083C               	movf	___fladd@bexp,w
 10119  0D37  1D03               	btfss	3,2
 10120  0D38  2D3A               	goto	u273_21
 10121  0D39  2D3B               	goto	u273_20
 10122  0D3A                     u273_21:
 10123  0D3A  2D49               	goto	i1l2552
 10124  0D3B                     u273_20:
 10125  0D3B                     i1l2546:
 10126  0D3B  3000               	movlw	0
 10127  0D3C  00AD               	movwf	___fladd@b+3
 10128  0D3D  3000               	movlw	0
 10129  0D3E  00AC               	movwf	___fladd@b+2
 10130  0D3F  3000               	movlw	0
 10131  0D40  00AB               	movwf	___fladd@b+1
 10132  0D41  3000               	movlw	0
 10133  0D42  00AA               	movwf	___fladd@b
 10134  0D43                     i1l2548:
 10135  0D43  083C               	movf	___fladd@bexp,w
 10136  0D44  1D03               	btfss	3,2
 10137  0D45  2D47               	goto	u274_21
 10138  0D46  2D48               	goto	u274_20
 10139  0D47                     u274_21:
 10140  0D47  2D49               	goto	i1l2552
 10141  0D48                     u274_20:
 10142  0D48                     i1l2550:
 10143  0D48  01BA               	clrf	___fladd@signs
 10144  0D49                     i1l2552:
 10145  0D49  1C3C               	btfss	___fladd@bexp,0
 10146  0D4A  2D4C               	goto	u275_21
 10147  0D4B  2D4D               	goto	u275_20
 10148  0D4C                     u275_21:
 10149  0D4C  2D4F               	goto	i1l2556
 10150  0D4D                     u275_20:
 10151  0D4D                     i1l2554:
 10152  0D4D  17AC               	bsf	___fladd@b+2,7
 10153  0D4E  2D53               	goto	i1l737
 10154  0D4F                     i1l2556:
 10155  0D4F  307F               	movlw	127
 10156  0D50  00B2               	movwf	??___fladd
 10157  0D51  0832               	movf	??___fladd,w
 10158  0D52  05AC               	andwf	___fladd@b+2,f
 10159  0D53                     i1l737:
 10160  0D53  083C               	movf	___fladd@bexp,w
 10161  0D54  00B2               	movwf	??___fladd
 10162  0D55  1003               	clrc
 10163  0D56  0C32               	rrf	??___fladd,w
 10164  0D57  00B3               	movwf	??___fladd+1
 10165  0D58  0833               	movf	??___fladd+1,w
 10166  0D59  00AD               	movwf	___fladd@b+3
 10167  0D5A                     i1l2558:
 10168  0D5A  1FBA               	btfss	___fladd@signs,7
 10169  0D5B  2D5D               	goto	u276_21
 10170  0D5C  2D5E               	goto	u276_20
 10171  0D5D                     u276_21:
 10172  0D5D  2D5F               	goto	i1l738
 10173  0D5E                     u276_20:
 10174  0D5E                     i1l2560:
 10175  0D5E  17AD               	bsf	___fladd@b+3,7
 10176  0D5F                     i1l738:
 10177  0D5F                     i1l708:
 10178  0D5F  0008               	return
 10179  0D60                     __end_of___fladd:
 10180  007E                     btemp	set	126	;btemp
 10181  007E                     wtemp0	set	126
 10182                           
 10183                           	psect	idloc
 10184                           
 10185                           ;Config register IDLOC0 @ 0x2000
 10186                           ;	unspecified, using default values
 10187  2000                     	org	8192
 10188  2000  3FFF               	dw	16383
 10189                           
 10190                           ;Config register IDLOC1 @ 0x2001
 10191                           ;	unspecified, using default values
 10192  2001                     	org	8193
 10193  2001  3FFF               	dw	16383
 10194                           
 10195                           ;Config register IDLOC2 @ 0x2002
 10196                           ;	unspecified, using default values
 10197  2002                     	org	8194
 10198  2002  3FFF               	dw	16383
 10199                           
 10200                           ;Config register IDLOC3 @ 0x2003
 10201                           ;	unspecified, using default values
 10202  2003                     	org	8195
 10203  2003  3FFF               	dw	16383
 10204                           
 10205                           	psect	config
 10206                           
 10207                           ;Config register CONFIG1 @ 0x2007
 10208                           ;	Oscillator Selection bits
 10209                           ;	FOSC = INTRC_NOCLKOUT, INTOSCIO oscillator: I/O function on RA6/OSC2/CLKOUT pin, I/O f
      +                          unction on RA7/OSC1/CLKIN
 10210                           ;	Watchdog Timer Enable bit
 10211                           ;	WDTE = OFF, WDT disabled and can be enabled by SWDTEN bit of the WDTCON register
 10212                           ;	Power-up Timer Enable bit
 10213                           ;	PWRTE = OFF, PWRT disabled
 10214                           ;	RE3/MCLR pin function select bit
 10215                           ;	MCLRE = OFF, RE3/MCLR pin function is digital input, MCLR internally tied to VDD
 10216                           ;	Code Protection bit
 10217                           ;	CP = OFF, Program memory code protection is disabled
 10218                           ;	Data Code Protection bit
 10219                           ;	CPD = OFF, Data memory code protection is disabled
 10220                           ;	Brown Out Reset Selection bits
 10221                           ;	BOREN = OFF, BOR disabled
 10222                           ;	Internal External Switchover bit
 10223                           ;	IESO = OFF, Internal/External Switchover mode is disabled
 10224                           ;	Fail-Safe Clock Monitor Enabled bit
 10225                           ;	FCMEN = OFF, Fail-Safe Clock Monitor is disabled
 10226                           ;	Low Voltage Programming Enable bit
 10227                           ;	LVP = OFF, RB3 pin has digital I/O, HV on MCLR must be used for programming
 10228                           ;	In-Circuit Debugger Mode bit
 10229                           ;	DEBUG = 0x1, unprogrammed default
 10230  2007                     	org	8199
 10231  2007  20D4               	dw	8404
 10232                           
 10233                           ;Config register CONFIG2 @ 0x2008
 10234                           ;	Brown-out Reset Selection bit
 10235                           ;	BOR4V = BOR21V, Brown-out Reset set to 2.1V
 10236                           ;	Flash Program Memory Self Write Enable bits
 10237                           ;	WRT = OFF, Write protection off
 10238  2008                     	org	8200
 10239  2008  3EFF               	dw	16127

Data Sizes:
    Strings     0
    Constant    36
    Data        22
    BSS         20
    Persistent  0
    Stack       0

Auto Spaces:
    Space          Size  Autos    Used
    COMMON           14     14      14
    BANK0            80     79      79
    BANK1            80     56      80
    BANK3            96     30      48
    BANK2            96      0       0

Pointer List with Targets:

    frexp@eptr	PTR int  size(1) Largest target is 2
		 -> log@exponent(BANK0[2]), 

    eval_poly@d	PTR const  size(1) Largest target is 36
		 -> log@coeff(CODE[36]), 


Critical Paths under _main in COMMON

    None.

Critical Paths under _slave in COMMON

    _log->_frexp
    _frexp->___fleq
    ___flmul->_frexp
    ___xxtofl->__Umul8_16
    ___fladd->_frexp

Critical Paths under _main in BANK0

    None.

Critical Paths under _slave in BANK0

    _slave->_log
    _slave->i1___fltol
    _map->i1___fltol
    i1___fltol->___flsub
    ___fldiv->___flmul
    _log->_eval_poly
    _eval_poly->___flmul
    ___flmul->___fladd
    ___flsub->___fldiv
    ___fladd->___xxtofl

Critical Paths under _main in BANK1

    None.

Critical Paths under _slave in BANK1

    _slave->_map
    _map->i1___fltol
    i1___fltol->___fldiv
    ___flsub->___fldiv

Critical Paths under _main in BANK3

    _setup->_USART_set
    _USART_set->___lldiv
    _I2C_Master_Init->___lldiv
    _servo->_pwm_duty_cycle
    _motor_dc->___fltol
    _RTC_read->_bcd_dec
    _bcd_dec->___bmul

Critical Paths under _slave in BANK3

    None.

Critical Paths under _main in BANK2

    None.

Critical Paths under _slave in BANK2

    None.

Call Graph Tables:

 ---------------------------------------------------------------------------------
 (Depth) Function   	        Calls       Base Space   Used Autos Params    Refs
 ---------------------------------------------------------------------------------
 (0) _main                                                 0     0      0    3164
                           _RTC_read
                            ___fltol
                      _adc_ch_switch
                           _motor_dc
                              _servo
                              _setup
 ---------------------------------------------------------------------------------
 (1) _setup                                                0     0      0    1412
                    _I2C_Master_Init
                          _USART_set
                           _adc_init
                        _int_osc_MHz
                           _pwm_init
 ---------------------------------------------------------------------------------
 (2) _pwm_init                                             3     3      0      22
                                              0 BANK3      3     3      0
 ---------------------------------------------------------------------------------
 (2) _int_osc_MHz                                          3     3      0      22
                                              0 BANK3      3     3      0
 ---------------------------------------------------------------------------------
 (2) _adc_init                                             5     3      2     218
                                              0 BANK3      5     3      2
 ---------------------------------------------------------------------------------
 (2) _USART_set                                           16    12      4     586
                                             14 BANK3     16    12      4
                            ___lldiv
 ---------------------------------------------------------------------------------
 (2) _I2C_Master_Init                                      8     4      4     564
                                             14 BANK3      8     4      4
                            ___lldiv
 ---------------------------------------------------------------------------------
 (3) ___lldiv                                             14     6      8     466
                                              0 BANK3     14     6      8
 ---------------------------------------------------------------------------------
 (1) _servo                                                2     0      2     382
                                              4 BANK3      2     0      2
                         _USART_send
                     _pwm_duty_cycle
 ---------------------------------------------------------------------------------
 (2) _pwm_duty_cycle                                       4     2      2     196
                                              0 BANK3      4     2      2
 ---------------------------------------------------------------------------------
 (1) _motor_dc                                             2     0      2     186
                                             11 BANK3      2     0      2
                         _USART_send
                            ___fltol (ARG)
 ---------------------------------------------------------------------------------
 (1) _adc_ch_switch                                        3     3      0      22
                                              0 BANK3      3     3      0
 ---------------------------------------------------------------------------------
 (1) ___fltol                                             11     7      4     405
                                              0 BANK3     11     7      4
 ---------------------------------------------------------------------------------
 (1) _RTC_read                                             2     2      0     757
                                              8 BANK3      2     2      0
                    _I2C_Master_Read
           _I2C_Master_RepeatedStart
                   _I2C_Master_Start
                    _I2C_Master_Stop
                   _I2C_Master_Write
                         _USART_send
                            _bcd_dec
 ---------------------------------------------------------------------------------
 (2) _bcd_dec                                              4     4      0     212
                                              4 BANK3      4     4      0
                             ___bmul
 ---------------------------------------------------------------------------------
 (3) ___bmul                                               4     3      1     168
                                              0 BANK3      4     3      1
 ---------------------------------------------------------------------------------
 (2) _USART_send                                           1     1      0      22
                                              0 BANK3      1     1      0
 ---------------------------------------------------------------------------------
 (2) _I2C_Master_Write                                     2     0      2     250
                                              0 BANK3      2     0      2
                    _I2C_Master_Wait
 ---------------------------------------------------------------------------------
 (2) _I2C_Master_Stop                                      0     0      0       0
                    _I2C_Master_Wait
 ---------------------------------------------------------------------------------
 (2) _I2C_Master_Start                                     0     0      0       0
                    _I2C_Master_Wait
 ---------------------------------------------------------------------------------
 (2) _I2C_Master_RepeatedStart                             0     0      0       0
                    _I2C_Master_Wait
 ---------------------------------------------------------------------------------
 (2) _I2C_Master_Read                                      6     4      2     273
                                              0 BANK3      6     4      2
                    _I2C_Master_Wait
 ---------------------------------------------------------------------------------
 (3) _I2C_Master_Wait                                      0     0      0       0
 ---------------------------------------------------------------------------------
 Estimated maximum stack depth 3
 ---------------------------------------------------------------------------------
 (Depth) Function   	        Calls       Base Space   Used Autos Params    Refs
 ---------------------------------------------------------------------------------
 (4) _slave                                               24    24      0   40733
                                             32 BANK1     24    24      0
                            ___fladd
                            ___fldiv
                            ___flmul
                            ___flsub
                            ___lwdiv
                           ___xxtofl
                           _adc_read
                                _log
                                _map
                          i1___fltol
 ---------------------------------------------------------------------------------
 (5) _map                                                 10     0     10   10053
                                             22 BANK1     10     0     10
                            ___fladd
                            ___fldiv
                            ___flmul
                           ___xxtofl
                           _adc_read (ARG)
                          i1___fltol
 ---------------------------------------------------------------------------------
 (5) i1___fltol                                           11     7      4     281
                                             77 BANK0      2     2      0
                                             13 BANK1      9     5      4
                            ___fladd (ARG)
                            ___fldiv (ARG)
                            ___flmul (ARG)
                            ___flsub (ARG)
                           ___xxtofl (ARG)
 ---------------------------------------------------------------------------------
 (6) ___fldiv                                             26    18      8    1425
                                             56 BANK0     13     5      8
                                              0 BANK1     13    13      0
                            ___fladd (ARG)
                            ___flmul (ARG)
                           ___xxtofl (ARG)
 ---------------------------------------------------------------------------------
 (5) _log                                                  7     3      4   17358
                                             72 BANK0      7     3      4
                            ___fladd
                             ___fleq
                             ___flge
                            ___flmul
                           ___xxtofl
                          _eval_poly
                              _frexp
 ---------------------------------------------------------------------------------
 (6) _frexp                                                7     2      5     896
                                             12 COMMON     2     2      0
                                              0 BANK0      5     0      5
                             ___fleq
 ---------------------------------------------------------------------------------
 (7) ___fleq                                              12     4      8     520
                                              0 COMMON    12     4      8
 ---------------------------------------------------------------------------------
 (6) _eval_poly                                           16     9      7    7365
                                             56 BANK0     16     9      7
                            ___fladd
                            ___flmul
 ---------------------------------------------------------------------------------
 (6) ___flmul                                             26    18      8    3759
                                             30 BANK0     26    18      8
                          __Umul8_16
                            ___fladd (ARG)
                            ___lwdiv (ARG)
                           ___xxtofl (ARG)
                              _frexp (ARG)
 ---------------------------------------------------------------------------------
 (7) __Umul8_16                                            9     7      2     799
                                              0 COMMON     9     7      2
 ---------------------------------------------------------------------------------
 (6) ___xxtofl                                            14    10      4     854
                                              9 COMMON     4     0      4
                                              0 BANK0     10    10      0
                          __Umul8_16 (ARG)
                            ___lwdiv (ARG)
 ---------------------------------------------------------------------------------
 (6) ___flge                                              12     4      8     460
                                              0 COMMON    12     4      8
 ---------------------------------------------------------------------------------
 (5) _adc_read                                             2     0      2       0
                                              0 COMMON     2     0      2
 ---------------------------------------------------------------------------------
 (5) ___lwdiv                                              8     4      4     314
                                              0 COMMON     8     4      4
 ---------------------------------------------------------------------------------
 (5) ___flsub                                              8     0      8    3397
                                             69 BANK0      8     0      8
                            ___fladd
                            ___fldiv (ARG)
                            ___flmul (ARG)
                           ___xxtofl (ARG)
 ---------------------------------------------------------------------------------
 (6) ___fladd                                             20    12      8    3200
                                             10 BANK0     20    12      8
                          __Umul8_16 (ARG)
                            ___lwdiv (ARG)
                           ___xxtofl (ARG)
                              _frexp (ARG)
 ---------------------------------------------------------------------------------
 Estimated maximum stack depth 7
 ---------------------------------------------------------------------------------

 Call Graph Graphs:

 _main (ROOT)
   _RTC_read
     _I2C_Master_Read
       _I2C_Master_Wait
     _I2C_Master_RepeatedStart
       _I2C_Master_Wait
     _I2C_Master_Start
       _I2C_Master_Wait
     _I2C_Master_Stop
       _I2C_Master_Wait
     _I2C_Master_Write
       _I2C_Master_Wait
     _USART_send
     _bcd_dec
       ___bmul
   ___fltol
   _adc_ch_switch
   _motor_dc
     _USART_send
     ___fltol (ARG)
   _servo
     _USART_send
     _pwm_duty_cycle
   _setup
     _I2C_Master_Init
       ___lldiv
     _USART_set
       ___lldiv
     _adc_init
     _int_osc_MHz
     _pwm_init

 _slave (ROOT)
   ___fladd
     __Umul8_16 (ARG)
     ___lwdiv (ARG)
     ___xxtofl (ARG)
       __Umul8_16 (ARG)
       ___lwdiv (ARG)
     _frexp (ARG)
       ___fleq
   ___fldiv
     ___fladd (ARG)
     ___flmul (ARG)
       __Umul8_16
       ___fladd (ARG)
       ___lwdiv (ARG)
       ___xxtofl (ARG)
       _frexp (ARG)
     ___xxtofl (ARG)
   ___flmul
   ___flsub
     ___fladd
     ___fldiv (ARG)
     ___flmul (ARG)
     ___xxtofl (ARG)
   ___lwdiv
   ___xxtofl
   _adc_read
   _log
     ___fladd
     ___fleq
     ___flge
     ___flmul
     ___xxtofl
     _eval_poly
       ___fladd
       ___flmul
     _frexp
   _map
     ___fladd
     ___fldiv
     ___flmul
     ___xxtofl
     _adc_read (ARG)
     i1___fltol (ARG)
       ___fladd (ARG)
       ___fldiv (ARG)
       ___flmul (ARG)
       ___flsub (ARG)
       ___xxtofl (ARG)
   i1___fltol

 Address spaces:
Name               Size   Autos  Total    Cost      Usage
BANK3               60     1E      30       9       50.0%
BITBANK3            60      0       0       8        0.0%
SFR3                 0      0       0       4        0.0%
BITSFR3              0      0       0       4        0.0%
BANK2               60      0       0      11        0.0%
BITBANK2            60      0       0      10        0.0%
SFR2                 0      0       0       5        0.0%
BITSFR2              0      0       0       5        0.0%
BANK1               50     38      50       7      100.0%
BITBANK1            50      0       0       6        0.0%
SFR1                 0      0       0       2        0.0%
BITSFR1              0      0       0       2        0.0%
BANK0               50     4F      4F       5       98.8%
BITBANK0            50      0       0       4        0.0%
SFR0                 0      0       0       1        0.0%
BITSFR0              0      0       0       1        0.0%
COMMON               E      E       E       1      100.0%
BITCOMMON            E      0       0       0        0.0%
CODE                 0      0       0       0        0.0%
DATA                 0      0      DD      12        0.0%
ABS                  0      0      DD       3        0.0%
NULL                 0      0       0       0        0.0%
STACK                0      0       0       2        0.0%
EEDATA             100      0       0       0        0.0%


Microchip Technology PIC Macro Assembler V2.35 build 20211206165544 
Symbol Table                                                                                   Mon Sep 19 12:06:27 2022

                               _A 00E4                                 _B 00EC                                 _C 01AE  
                    ___fldiv@aexp 00AC                      ___fldiv@bexp 00AB                                 pc 0002  
                    ___fldiv@sign 00A4                    ___bmul@product 0192                                _R1 00E8  
                              _R2 00D8                                _TC 01B8                                fsr 0004  
             __Umul8_16@word_mpld 0076                               l210 15F5                               l211 15F9  
                             l115 1237                               l124 11E2                               l141 1161  
                             l133 12A4                               l213 160F                               l302 10D4  
                             l214 162D                               l311 10F3                               l231 08C3  
                             l127 11FD                               l215 1613                               l151 07FB  
                             l216 1617                               l208 15F1                               l144 140A  
                             l305 10CB                               l217 1637                               l314 1227  
                             l138 1761                               l315 122A                               l171 153B  
                             l316 1231                               l308 10DD                               l236 08FF  
                             l244 0962                               l228 08B0                               l156 07FC  
                             l174 1110                               l270 1317                               l272 131B  
                             l177 111B                               l273 131F                               l266 12E3  
                             l428 1145                               l276 1183                               l268 12F0  
                             l293 12DE                               l438 14CE                               l296 1100  
                             l299 110C                               l595 15A2                               l588 15B7  
                             l598 15B7                               _PR2 0092                               _map 0963  
                             _min 01BF                               _log 06B0                               _hrs 01BE  
                             fsr0 0004                               indf 0000                      i1___fltol@f1 00AD  
                    ___flmul@aexp 0050                      ___flmul@bexp 0051                      ___flmul@sign 004B  
                    ___flmul@temp 0056                      ___flmul@prod 0052                      ___fltol@exp1 019A  
                            l2320 1133                              l3200 1403             adc_ch_switch@channels 0192  
                            l2314 1100                              l2322 1137                              l3202 1404  
                            l2316 1106                              l2324 113B                              l3300 1744  
                            l3220 08C9                              l3212 08AF                              l2340 148D  
                            l2332 1467                              l3204 1405                              l2326 113D  
                            l2318 1132                              l3302 1748                              l3222 08D4  
                            l3214 08B6                              l2350 14C0                              l2342 1496  
                            l2334 1479                              l3206 1406                              l2328 1144  
                            l3304 174E                              l3320 1567                              l3312 153C  
                            l3240 0916                              l3232 08F4                              l3224 08DA  
                            l3216 08B8                              l2344 14A8                              l2336 147C  
                            l2352 14C6                              l3208 1409                              l3306 1756  
                            l3322 1568                              l3314 1549                              l3250 093F  
                            l3242 091E                              l3234 08FB                              l3226 08E2  
                            l3218 08BF                              l2346 14B6                              l2338 1489  
                            l3170 13B8                              l3308 175A                              l3324 1570  
                            l3244 092B                              l3236 0905                              l3228 08EF  
                            l3260 094F                              l2348 14B7                              l3180 13C4  
                            l3172 13BC                              l3412 1232                              l2710 10D1  
                            l2702 1110                              l3342 1597                              l3334 157E  
                            l3326 1572                              l3318 1552                              l3254 0944  
                            l3238 0910                              l3270 11DE                              l3190 13D5  
                            l3182 13C7                              l3174 13BD                              l3414 123D  
                            l2720 11FE                              l2712 10E8                              l2704 1115  
                            l3344 15A7                              l3328 1576                              l3336 1590  
                            l3256 094B                              l3248 0932                              l3272 11E5  
                            l3280 126B                              l2800 14D8                              l3192 13E4  
                            l3184 13CA                              l3176 13C0                              l3168 13B2  
                            l3416 1257                              l2730 1223                              l2722 1203  
                            l2714 10ED                              l3346 15AC                              l3274 11F1  
                            l2706 1162                              l3290 1296                              l3282 1273  
                            l2802 1533                              l2810 15BB                              l3610 07ED  
                            l3194 13EE                              l3186 13CD                              l3178 13C1  
                            l3418 1262                              l2732 122B                              l2724 120B  
                            l2716 10C3                              l2708 10CC                              l2740 10D5  
                            l3276 11F5                              l3268 11CF                              l3284 127D  
                            l2804 1534                              l3612 15E3                              l2820 15D4  
                            l2812 15BC                              l3196 13FD                              l3188 13CF  
                            l2726 1216                              l2718 10C8                              l2742 10DA  
                            l3294 16CA                              l3286 1286                              l2806 1537  
                            l3614 1607                              l2814 15C1                              l2750 07D2  
                            l3198 1400                              l2728 121B                              l2736 1149  
                            l3296 1731                              l3288 1292                              l2808 153A  
                            l3616 1625                              l2832 161B                              l2816 15C8  
                            l2824 15DB                              l2752 07D9                              l2744 07C3  
                            l3608 1303                              l3298 173C                              l3618 0957  
                            l2818 15CF                              l2754 07DE                              l2746 07C4  
                            l2770 12E9                              l2860 12DC                              l2852 12A5  
                            l2828 15FD                              l2748 07CB                              l2772 12EB  
                            l2780 12FB                              l2862 12DD                              l2854 12A9  
                            l2758 07E5                              l2774 12F3                              l2782 130B  
                            l2766 12E2                              ?_map 00B6                              l2856 12AC  
                            l2784 130F                              l2776 12F6                              l2768 12E6  
                            l2858 12DB                              l2786 1313                              l2796 14CF  
                            l2788 1316                              l2798 14D5                              ?_log 0068  
                            u2200 1144                              u2201 1143                              u2210 1479  
                            u2211 1478                              u2230 148D                              u2231 148C  
                            u4000 1292                              u4001 1291                              u2225 147E  
                            u3201 1513                              u2170 1106                              u4010 129D  
                            u2250 14A8                              u3210 12BC                              u3202 1514  
                            u2171 1105                              u4011 129B                              u2251 14A7  
                            u3203 1519                              u2180 110C                              u3140 1115  
                            u4100 158F                              u4020 129E                              u3204 151A  
                            u2181 110B                              u3141 1114                              u4101 158E  
                            u4005 128E                              u2245 148F                              u3205 151F  
                            u3150 1223                              u2190 1137                              u4030 1744  
                            u4110 1596                              u2270 14C6                              u3206 1520  
                            u3151 1222                              u2191 1136                              u4031 1743  
                            u4111 1595                              u2271 14C5                              u2255 14A4  
                            u3215 12B7                              u4040 1756                              u4041 1755  
                            u2265 14B8                              u4130 15A7                              u4050 1549  
                            u3170 131B                              u4131 15A6                              u4051 1548  
                            u3171 131A                              u4140 15AC                              u4060 1560  
                            u3180 14E8                              u3165 1153                              u4141 15AB  
                            u4125 1599                              u4070 1576                              u3190 1501  
                            u4071 1575                              u4080 157D                              u4081 157C  
                            u4065 155B                              u3185 14E3                              u4307 091A  
                            u3195 14FC                              u4317 0948                              u4327 1737  
                            u4095 157F                              u3900 08C9                              u3901 08C8  
                            u4277 08BC                              u3910 08D4                              u4287 08DE  
                            u3911 08D3                              u3920 08EF                              u4297 08F8  
                            u3921 08EE                              u3930 0905                              u3931 0904  
                            u3940 0910                              u3941 090F                              u3950 092B  
                            u3951 092A                              u3960 093F                              u3961 093E  
                            u3890 08B6                              u3970 11DE                              u3891 08B5  
                            u3971 11DD                              u3980 11F1                              u3981 11F0  
                            u3990 1273                              u3975 11DA                              u3991 1272  
                            u3985 11ED  __end_of_I2C_Master_RepeatedStart 10CC                              _main 1232  
                            map@x 00B6                              btemp 007E                              log@x 0068  
                            start 0012                   ___fldiv@new_exp 00A5                 ___bmul@multiplier 0193  
                  _pwm_duty_cycle 1162                             ??_map 007E                             ??_log 006C  
                ?_I2C_Master_Init 019E                  ?_I2C_Master_Read 0190                  ?_I2C_Master_Wait 0070  
                ?_I2C_Master_Stop 0070                     ___fltol@sign1 0199                   __end_of___fladd 0D60  
                           ?_main 0070                   __end_of___fldiv 1000                   __end_of___flmul 03AE  
                 __end_of___flsub 11A8                   __end_of___fltol 15B8                             _ANSEL 0188  
                 __end_of___lldiv 14CF                   __end_of_bcd_dec 1162                   __end_of___lwdiv 1364  
                           i1l110 06A3                             i1l121 0A1B                             i1l224 10E7  
                           i1l701 0BB9                             i1l720 0CD1                             i1l810 11BC  
                           i1l803 03A1                             i1l571 1380                             i1l716 0CAD  
                           i1l708 0D5F                             i1l580 08AB                             i1l812 11CE  
                           i1l572 139C                             i1l741 11A7                             i1l573 13B1  
                           i1l726 0CF3                             i1l751 0DDE                             i1l576 0826  
                           i1l737 0D53                             i1l729 0D31                             i1l841 0A85  
                           i1l753 0FFF                             i1l738 0D5F                             i1l674 1363  
                           i1l579 0892                             i1l835 0A40                             i1l595 16B2  
                           i1l588 16C9                             i1l837 0AD7                             i1l773 0FD3  
                           i1l862 07BF                             i1l598 16C9                             i1l695 0B3B  
                           i1l791 03AD                             i1l775 0FEB                             i1l767 0F53  
                           i1l848 0AA1                             i1l880 1466                             i1l849 0AAD  
                           i1l874 17FF                             i1l699 0BE2                             i1l797 0319  
                           _SPBRG 0099                             _PORTD 0008                             _TRISD 0088  
                           _TXREG 0019                adc_init@vref_minus 0191                   int_osc_MHz@freq 0192  
                           _logR2 00DC                             _frexp 140B                             _errno 00E0  
                           _slave 03AE                             map@x0 00B8                             map@x1 00BA  
                           map@y0 00BC                             map@y1 00BE                             _servo 126B  
                           _setup 13B2                      ?_int_osc_MHz 0070                             pclath 000A  
                __end_of_RTC_read 1762                    i1___fltol@exp1 006E                             status 0003  
                           wtemp0 007E            __end_of_pwm_duty_cycle 1184                   __initialization 0015  
                     ?_USART_send 0070                       log@exponent 006D                      __end_of_main 126B  
                    _switch_servo 01BC                            ??_main 01AE                     _adc_ch_switch 08AC  
               ?_I2C_Master_Start 0070                 ?_I2C_Master_Write 0190                ??_I2C_Master_Start 0190  
              ??_I2C_Master_Write 0192                            ?_frexp 0020                            _ADRESH 001E  
                          _ADRESL 009E                            _CCPR1L 0015                            ?_slave 0070  
                          ?_servo 0194                            ?_setup 0070                            _ANSELH 0189  
                __end_of_adc_init 1638                  __end_of_adc_read 10E8                            i1l3000 0F73  
                          i1l3010 0FC2                            i1l3002 0F8C                            i1l2300 11A9  
                          i1l3020 0FE5                            i1l3012 0FC6                            i1l3004 0F94  
                          i1l3100 1638                            i1l3030 0A28                            i1l2310 11CA  
                          i1l2302 11AB                            i1l3014 0FD0                            i1l3006 0FA3  
                          i1l3110 166E                            i1l3102 1647                            i1l2400 0B1E  
                          i1l3040 0A56                            i1l3032 0A38                            i1l2304 11B2  
                          i1l3016 0FDD                            i1l3008 0FB3                            i1l3112 1676  
                          i1l2402 0B23                            i1l2410 0B33                            i1l3050 0A8C  
                          i1l3042 0A63                            i1l3034 0A48                            i1l3026 0A1F  
                          i1l2306 11B6                            i1l3018 0FE1                            i1l3130 16A3  
                          i1l3122 1686                            i1l3114 167A                            i1l3106 1652  
                          i1l2500 0C9F                            i1l2420 0B51                            i1l2412 0B41  
                          i1l2404 0B28                            i1l3060 0AC5                            i1l3052 0A97  
                          i1l3044 0A6A                            i1l3028 0A24                            i1l2308 11C5  
                          i1l3132 16B7                            i1l3116 167E                            i1l3124 169C  
                          i1l3108 166B                            i1l2510 0CCC                            i1l2502 0CB5  
                          i1l2430 0B65                            i1l2422 0B55                            i1l2414 0B45  
                          i1l2406 0B30                            i1l3062 0ACA                            i1l3054 0A9B  
                          i1l3046 0A6E                            i1l3038 0A51                            i1l3070 140B  
                          i1l3134 16BC                            i1l3142 0963                            i1l2520 0CDF  
                          i1l2512 0CD0                            i1l2504 0CBA                            i1l2440 0B79  
                          i1l2432 0B69                            i1l2424 0B59                            i1l2416 0B49  
                          i1l2408 0B31                            i1l3136 10DE                            i1l3064 0ACE  
                          i1l3056 0AA5                            i1l3048 0A7C                            i1l2600 00AC  
                          i1l2360 1394                            i1l3080 1454                            i1l3072 1426  
                          i1l3160 0753                            i1l3152 06DC                            i1l3400 04F3  
                          i1l2530 0CF0                            i1l2514 0CD5                            i1l2522 0CE1  
                          i1l2450 0B9D                            i1l2442 0B7D                            i1l2434 0B6D  
                          i1l2426 0B5D                            i1l2418 0B4D                            i1l2370 0ADF  
                          i1l3138 10E1                            i1l3066 0ACF                            i1l3058 0AAF  
                          i1l2610 00D7                            i1l2602 00B1                            i1l3090 1762  
                          i1l2362 13AE                            i1l3082 1461                            i1l3074 142E  
                          i1l3162 0759                            i1l3154 06F7                            i1l3146 06B0  
                          i1l3402 053E                            i1l2540 0D0F                            i1l2516 0CD8  
                          i1l2508 0CC3                            i1l2524 0CE5                            i1l2460 0BCD  
                          i1l2452 0BBD                            i1l2444 0B81                            i1l2436 0B71  
                          i1l2428 0B61                            i1l2380 0AF4                            i1l2372 0AE5  
                          i1l2620 0174                            i1l2612 00F4                            i1l3092 1791  
                          i1l2364 13B0                            i1l2356 1364                            i1l3084 1465  
                          i1l3164 0778                            i1l3148 06CB                            i1l3404 05B0  
                          i1l2550 0D48                            i1l2542 0D2D                            i1l2534 0CF8  
                          i1l2526 0CE6                            i1l2518 0CDA                            i1l2462 0BD6  
                          i1l2454 0BC6                            i1l2438 0B75                            i1l2446 0B85  
                          i1l2390 0B0C                            i1l2382 0AFC                            i1l2374 0AE9  
                          i1l3350 1322                            i1l2630 01D7                            i1l2622 017D  
                          i1l2614 0110                            i1l2606 00BA                            i1l3094 17F1  
                          i1l2358 1378                            i1l3086 1466                            i1l3078 1437  
                          i1l3158 0708                            i1l3406 063D                            i1l2560 0D5E  
                          i1l2552 0D49                            i1l2544 0D36                            i1l2536 0CFD  
                          i1l2528 0CEA                            i1l2480 0C1C                            i1l2472 0BF4  
                          i1l2456 0BC8                            i1l2464 0BDA                            i1l2448 0B86  
                          i1l2392 0B12                            i1l2384 0AFD                            i1l2376 0AEA  
                          i1l2368 0AD8                            i1l3360 133A                            i1l3352 1328  
                          i1l2640 0277                            i1l2632 01F0                            i1l2624 018D  
                          i1l2616 013C                            i1l2608 00CA                            i1l3096 17F7  
                          i1l3408 06A0                            i1l2554 0D4D                            i1l2546 0D3B  
                          i1l2538 0D0B                            i1l2482 0C1E                            i1l2474 0C0B  
                          i1l2466 0BE6                            i1l2490 0C31                            i1l2458 0BCC  
                          i1l2394 0B13                            i1l2378 0AEF                            i1l2386 0AFF  
                          i1l3362 134B                            i1l3354 132B                            i1l3370 135F  
                          i1l2650 02E5                            i1l2642 029D                            i1l2634 020D  
                          i1l2626 01AA                            i1l2618 0158                            i1l2570 005F  
                          i1l2562 004D                            i1l2556 0D4F                            i1l2548 0D43  
                          i1l2492 0C47                            i1l2484 0C22                            i1l2476 0C0F  
                          i1l2468 0BEB                            i1l2396 0B19                            i1l2388 0B07  
                          i1l3364 1351                            i1l3356 1332                            i1l3348 1320  
                          i1l2660 02FD                            i1l2652 02E9                            i1l2644 02C5  
                          i1l2636 023A                            i1l2628 01BA                            i1l2580 007B  
                          i1l2572 0064                            i1l2564 0054                            i1l2900 0D94  
                          i1l3380 03AE                            i1l2558 0D5A                            i1l2494 0C85  
                          i1l2486 0C23                            i1l2478 0C13                            i1l2398 0B1D  
                          i1l3374 1184                            i1l3366 1352                            i1l3358 1336  
                          i1l2670 031E                            i1l2662 02FE                            i1l2654 02EA  
                          i1l2646 02CE                            i1l2638 024A                            i1l2590 0090  
                          i1l2582 0080                            i1l2574 0069                            i1l2566 005A  
                          i1l2910 0DB7                            i1l2902 0D96                            i1l3382 03B2  
                          i1l3390 03C4                            i1l2496 0C8B                            i1l2488 0C2C  
                          i1l3376 1188                            i1l3368 1359                            i1l2672 0323  
                          i1l2680 0354                            i1l2664 0302                            i1l2656 02F3  
                          i1l2648 02DC                            i1l2592 0095                            i1l2584 0086  
                          i1l2576 0071                            i1l2568 005E                            i1l2920 0DD2  
                          i1l2912 0DBA                            i1l2904 0DA0                            i1l3392 03CA  
                          i1l3384 03B8                            i1l2498 0C90                            i1l2690 0387  
                          i1l2682 0361                            i1l2674 0331                            i1l2666 0316  
                          i1l2658 02F9                            i1l2594 009D                            i1l2586 008A  
                          i1l2578 0073                            i1l2914 0DC1                            i1l2922 0DD4  
                          i1l2906 0DA7                            i1l3394 03D5                            i1l3386 03BF  
                          i1l2692 0395                            i1l2684 036C                            i1l2676 0335  
                          i1l2596 009F                            i1l2588 008B                            i1l2940 0E33  
                          i1l2924 0DE6                            i1l2932 0E03                            i1l2916 0DC6  
                          i1l2908 0DB1                            i1l3396 0473                            i1l3388 03C3  
                          i1l2870 0842                            i1l2694 0399                            i1l2686 037B  
                          i1l2678 034E                            i1l2598 00A7                            i1l2950 0E66  
                          i1l2942 0E4B                            i1l2934 0E0A                            i1l2926 0DF2  
                          i1l2918 0DD0                            i1l3398 04A6                            i1l2880 08AA  
                          i1l2872 0846                            i1l2864 080A                            i1l2696 039A  
                          i1l2688 0385                            i1l2960 0EB6                            i1l2952 0E7E  
                          i1l2944 0E55                            i1l2928 0DFA                            i1l2874 086A  
                          i1l2866 081E                            i1l2698 03A5                            i1l2970 0EF5  
                          i1l2962 0EB7                            i1l2954 0E84                            i1l2946 0E5F  
                          i1l2938 0E15                            i1l2890 0D79                            i1l2876 086E  
                          i1l2868 083A                            i1l2980 0F17                            i1l2972 0EF7  
                          i1l2964 0EDF                            i1l2956 0E87                            i1l2948 0E61  
                          i1l2892 0D7C                            i1l2884 0D60                            u300_25 02C7  
                          i1l2878 08A8                            i1l2990 0F4E                            i1l2974 0F00  
                          i1l2982 0F1F                            i1l2958 0E95                            i1l2966 0EE7  
                          i1l2894 0D83                            i1l2886 0D69                            i1l2984 0F25  
                          i1l2976 0F06                            i1l2968 0EED                            i1l2896 0D88  
                          i1l2888 0D73                            i1l2994 0F58                            i1l2986 0F28  
                          i1l2978 0F09                            i1l2898 0D92                            i1l2996 0F5F  
                          i1l2988 0F2C                            u301_25 02DE                            i1l2998 0F6F  
                          u214_20 11B6                            u310_20 0344                            u302_20 02E9  
                          u230_20 13AE                            u214_21 11B5                            u302_21 02E8  
                          u230_21 13AD                            u310_25 033F                            u230_25 13AA  
                          u231_20 0AE9                            u311_20 0361                            u231_21 0AE8  
                          u311_21 0360                            u215_25 11BD                            u311_25 035D  
                          u303_25 02EC                            u240_20 0B9D                            u232_20 0AEF  
                          u216_20 11CA                            u312_20 037B                            u304_20 02FD  
                          u240_21 0B9C                            u232_21 0AEE                            u216_21 11C9  
                          u312_21 037A                            u304_21 02FC                            u240_25 0B99  
                          u312_25 0377                            u241_20 0BA8                            u233_20 0AF4  
                          u313_20 0399                            u305_20 0302                            u241_21 0BA6  
                          u233_21 0AF3                            u313_21 0398                            u305_21 0301  
                          u250_20 0C0F                            u242_20 0BA9                            u234_20 0B12  
                          u322_20 081E                            u306_20 0316                            u330_20 0D83  
                          u250_21 0C0E                            u234_21 0B11                            u322_21 081D  
                          u306_21 0315                            u330_21 0D82                            u251_20 0C13  
                          u243_20 0BBD                            u235_20 0B1D                            u323_20 083A  
                          u307_20 031D                            u331_20 0D88                            u251_21 0C12  
                          u243_21 0BBC                            u235_21 0B1C                            u323_21 0839  
                          u307_21 031C                            u331_21 0D87                            u252_20 0C22  
                          u244_20 0BCC                            u236_20 0B23                            u324_20 0846  
                          u308_20 0323                            u228_20 1378                            u340_20 0E84  
                          u332_20 0DB7                            u252_21 0C21                            u244_21 0BCB  
                          u236_21 0B22                            u324_21 0845                            u308_21 0322  
                          u228_21 1377                            u340_21 0E83                            u332_21 0DB6  
                          u260_25 0CC5                            u420_25 1353                            u261_20 0CD0  
                          u237_20 0B28                            u421_20 135F                            u309_20 0335  
                          u229_20 1394                            u333_20 0DC1                            u261_21 0CCF  
                          u237_21 0B27                            u421_21 135E                            u325_21 0855  
                          u309_21 0334                            u229_21 1393                            u333_21 0DC0  
                          u325_22 0856                            u325_23 085B                            u325_24 085C  
                          u253_25 0C25                            u245_25 0BCF                            u325_25 0861  
                          u341_25 0E8A                            u325_26 0862                            u270_20 0D1E  
                          u262_20 0CD5                            u254_20 0C47                            u246_20 0BE2  
                          u238_20 0B41                            u326_20 086E                            u350_20 0F2C  
                          u342_20 0EB6                            u334_20 0DC6                            u422_20 03B2  
                          u262_21 0CD4                            u254_21 0C46                            u246_21 0BE1  
                          u238_21 0B40                            u326_21 086D                            u350_21 0F2B  
                          u342_21 0EB5                            u334_21 0DC5                            u422_21 03B1  
                          u254_23 0C43                            u270_25 0D19                            u342_25 0EB2  
                          u271_20 0D2D                            u263_20 0CDF                            u247_20 0BE6  
                          u239_20 0B45                            u415_20 1328                            u351_20 0F4E  
                          u343_20 0EDB                            u335_20 0DE6                            u423_20 03B8  
                          u271_21 0D2C                            u263_21 0CDE                            u255_21 0C5E  
                          u247_21 0BE5                            u239_21 0B44                            u415_21 1327  
                          u327_21 087D                            u351_21 0F4D                            u335_21 0DE5  
                          u423_21 03B7                            u255_22 0C5F                            u327_22 087E  
                          u255_23 0C64                            u327_23 0883                            u255_24 0C65  
                          u327_24 0884                            u255_25 0C6A                            u327_25 0889  
                          u343_25 0EC4                            u255_26 0C6B                            u327_26 088A  
                          u343_26 0EC7                            u343_27 0ECE                            u272_20 0D36  
                          u264_20 0CE5                            u256_20 0C72                            u248_20 0BEB  
                          u328_20 08A8                            u360_20 0A28                            u280_20 008A  
                          u352_20 0F57                            u344_20 0EED                            u343_28 0ED1  
                          u336_20 0E0A                            u424_20 03CA                            u272_21 0D35  
                          u264_21 0CE4                            u256_21 0C73                            u248_21 0BEA  
                          u328_21 08A7                            u360_21 0A27                            u280_21 0089  
                          u352_21 0F56                            u344_21 0EEC                            u343_29 0ED8  
                          u336_21 0E09                            u424_21 03C9                            u256_22 0C78  
                          u256_23 0C79                            u416_25 132C                            u328_25 08A4  
                          u273_20 0D3B                            u265_20 0CEA                            u257_20 0C90  
                          u417_20 133A                            u361_20 0A48                            u281_20 0090  
                          u353_20 0F5F                            u345_20 0EF5                            u337_20 0E66  
                          u329_20 0D79                            u425_20 03D5                            u273_21 0D3A  
                          u265_21 0CE9                            u257_21 0C8F                            u249_21 0BFD  
                          u417_21 1339                            u361_21 0A47                            u281_21 008F  
                          u353_21 0F5E                            u345_21 0EF4                            u337_21 0E65  
                          u329_21 0D78                            u425_21 03D4                            u249_22 0C04  
                          u249_23 0C0B                            u274_20 0D48                            u266_20 0CF0  
                          u258_20 0CB5                            u370_20 0ABA                            u282_20 0095  
                          u354_20 0F73                            u274_21 0D47                            u266_21 0CEF  
                          u258_21 0CB4                            u290_21 019C                            u282_21 0094  
                          u354_21 0F72                            u290_22 01A3                            u290_23 01AA  
                          u418_25 133B                            u370_25 0AB5                            u362_25 0A5B  
                          u346_25 0EF9                            u338_25 0E6A                            u275_20 0D4D  
                          u267_20 0CF7                            u259_20 0CBA                            u419_20 134B  
                          u371_20 0ACA                            u363_20 0A69                            u283_20 00AC  
                          u355_20 0F82                            u347_20 0F06                            u275_21 0D4C  
                          u267_21 0CF6                            u259_21 0CB9                            u419_21 134A  
                          u371_21 0AC9                            u363_21 0A68                            u291_21 01C9  
                          u283_21 00AB                            u347_21 0F05                            u291_22 01D0  
                          u291_23 01D7                            u419_25 1347                            u355_25 0F7D  
                          u339_25 0E77                            u276_20 0D5E                            u268_20 0CFD  
                          u372_20 0ACE                            u284_20 00B1                            u356_20 0FA3  
                          u380_20 1685                            u276_21 0D5D                            u268_21 0CFC  
                          u372_21 0ACD                            u284_21 00B0                            u356_21 0FA2  
                          u380_21 1684                            u364_25 0A7D                            u292_25 01D9  
                          u356_25 0F9F                            u348_25 0F0C                            u269_20 0D0F  
                          u365_20 0A8B                            u277_20 005E                            u373_20 1426  
                          u357_20 0FC2                            u349_20 0F25                            u269_21 0D0E  
                          u365_21 0A8A                            u293_21 01FF                            u285_21 0102  
                          u277_21 005D                            u373_21 1425                            u357_21 0FC1  
                          u349_21 0F24                            u293_22 0206                            u285_22 0109  
                          u293_23 020D                            u285_23 0110                            u357_25 0FBE  
                          u381_25 1687                            u278_20 0064                            u358_20 0FE1  
                          u382_20 169B                            u294_21 022C                            u286_21 011E  
                          u278_21 0063                            u358_21 0FE0                            u382_21 169A  
                          u294_22 0233                            u286_22 0125                            u294_23 023A  
                          u286_23 012C                            u366_25 0A90                            u374_25 1767  
                          u367_20 0A9B                            u359_20 0A24                            u279_20 0069  
                          u383_20 16A2                            u367_21 0A9A                            u359_21 0A23  
                          u295_21 0259                            u287_21 014A                            u279_21 0068  
                          u383_21 16A1                            u295_22 0260                            u287_22 0151  
                          u295_23 0267                            u287_23 0158                            u375_25 179A  
                          u368_20 0AA1                            u296_20 0283                            u376_20 17F7  
                          u368_21 0AA0                            u288_21 0166                            u376_21 17F6  
                          u288_22 016D                            u288_23 0174                            u296_25 027E  
                          u384_25 16A7                            u369_20 0AA5                            u385_20 16B7  
                          u377_20 1647                            u369_21 0AA4                            u297_21 028F  
                          u385_21 16B6                            u377_21 1646                            u297_22 0296  
                          u297_23 029D                            u289_25 0176                            u298_20 02AB  
                          u386_20 16BC                            u378_20 1662                            u386_21 16BB  
                          u298_25 02A6                            u378_25 165D                            u387_20 06CB  
                          u379_20 167E                            u299_21 02B7                            u387_21 06CA  
                          u379_21 167D                            u299_22 02BE                            u299_23 02C5  
                          u388_20 06F7                            u388_21 06F6                            _SPBRGH 009A  
                          _SSPADD 0093                            _SSPCON 0014                            _SSPBUF 0013  
                __end_of___xxtofl 0AD8                   ?_pwm_duty_cycle 0190          _I2C_Master_RepeatedStart 10C3  
                          ___flge 080A                            ___bmul 112F                            ___fleq 1364  
                       ??___fladd 0032                         ??___fldiv 0060                         ??___flmul 0046  
                       ??___flsub 007E                         ??___fltol 0194                         ??___lldiv 0198  
                       ??_bcd_dec 0194                         ??___lwdiv 0074                    ?_adc_ch_switch 0070  
               __end_of_USART_set 153C                 __end_ofi1___fltol 16CA                  __end_of_motor_dc 11FE  
                          saved_w 007E                   i1___fltol@sign1 006D                  __end_of_pwm_init 1320  
                 pwm_init@channel 0192                        ___flge@ff1 0070                        ___flge@ff2 0074  
                    ___xxtofl@arg 0026                      ___xxtofl@exp 0025                      ___xxtofl@val 0079  
                      ___fleq@ff1 0070                        ___fleq@ff2 0074                  __end_oflog@coeff 102A  
         __end_of__initialization 0049                      eval_poly@res 0064                        ___fltol@f1 0190  
             ___bmul@multiplicand 0190                    __pcstackCOMMON 0070                      __pidataBANK1 10F4  
                    __pidataBANK3 0800                     __end_of_frexp 1467                     __end_of_slave 06B0  
                   __end_of_servo 12A5                     __end_of_setup 140B                         ?_RTC_read 0070  
                  _OPTION_REGbits 0081                    adc_init@adc_cs 0194                           ??_frexp 007C  
                         ??_slave 00C0                           ??_servo 0196                           ??_setup 01AE  
                      __pbssBANK1 00D8                        __pbssBANK3 01B8                 __end_of__Umul8_16 11CF  
                      __pmaintext 1232                           ?___flge 0070                           ?___bmul 0190  
                         ?___fleq 0070                        __pintentry 0004                           _CCP1CON 0017  
                         _CCP2CON 001D                   ??_adc_ch_switch 0190                         ?_adc_init 0190  
                       ?_adc_read 0070                        ??_RTC_read 0198                         ?___xxtofl 0079  
                         _SSPCON2 0091                           _SSPSTAT 0094                        __stringtab 1000  
                    ??_USART_send 0190                         ?_motor_dc 019B                           ___fladd 0AD8  
                         ___fldiv 0D60                           ___flmul 004D                           ___flsub 1184  
                         ___fltol 153C                           ___lldiv 1467                         ?_pwm_init 0070  
                         _bcd_dec 1146                           ___lwdiv 1320                 __end_of_eval_poly 1800  
                      ??_adc_init 0192                        ??_adc_read 0072                           __ptext1 13B2  
                         __ptext2 12DF                           __ptext3 07C0                           __ptext4 15B8  
                         __ptext5 14CF                           __ptext6 12A5                           __ptext7 1467  
                         __ptext8 126B                           __ptext9 1162                         _T2CONbits 0012  
                      ??___xxtofl 0020                __end_of_USART_send 111C              end_of_initialization 0049  
                      _slave$1600 00C8                        _slave$1601 00CC                        _slave$1602 00D0  
                      _slave$1603 00D4        ??_I2C_Master_RepeatedStart 0190                  ??_pwm_duty_cycle 0192  
                 ___lldiv@divisor 0190                   ___lldiv@counter 019D                        ??_motor_dc 019D  
                       _RCSTAbits 0018                  I2C_Master_Init@c 019E                  I2C_Master_Read@a 0190  
                      ??_pwm_init 0190                         _PORTBbits 0006                       ___fladd@grs 003D  
                   ___xxtofl@sign 0024                         _TRISAbits 0085                         _TRISBbits 0086  
                       _TRISCbits 0087                         _USART_set 14CF                       ___fldiv@grs 00A7  
                       i1___fltol 1638                       ___fldiv@rem 00A0                       ___flmul@grs 004C  
                     _CCP1CONbits 0017                       _CCP2CONbits 001D                         _TXSTAbits 0098  
                  __end_of___flge 08AC                    __end_of___bmul 1146                    __end_of___fleq 13B2  
               adc_init@vref_plus 0190                       _BAUDCTLbits 0187               start_initialization 0015  
                      eval_poly@d 005C                        eval_poly@n 005D                        eval_poly@x 0058  
                      ?_USART_set 019E                       __end_of_map 0A1C                       __end_of_log 07C0  
                      ?i1___fltol 00AD                    USART_send@data 0190                        frexp@value 0020  
               ??_I2C_Master_Init 01A2                 ??_I2C_Master_Read 0192                 ??_I2C_Master_Wait 0190  
               ??_I2C_Master_Stop 0190                 USART_set@baudrate 019E                          ??___flge 0078  
                        ??___bmul 0191                          ??___fleq 0078                        init_fetch0 111C  
                       __Umul8_16 11A8                       __pdataBANK1 00E4                       __pdataBANK3 01AE  
                       ___fladd@a 002E                         ___fladd@b 002A                         ___fldiv@a 0058  
                       ___fldiv@b 005C                         ___flmul@a 0042                         ___flmul@b 003E  
                       ___flsub@a 0065                         ___flsub@b 0069                         ___latbits 0002  
                   __pcstackBANK0 0020                     __pcstackBANK1 00A0                     __pcstackBANK3 0190  
                   ??_int_osc_MHz 0190                  _I2C_Master_Start 10CC                  _I2C_Master_Write 10E8  
                       bcd_dec@no 0197                  ___lwdiv@dividend 0072          pwm_duty_cycle@duty_cycle 0190  
                        ?___fladd 002A                          ?___fldiv 0058                          ?___flmul 003E  
                        ?___flsub 0065                          ?___fltol 0190                          ?___lldiv 0190  
                        ?_bcd_dec 0070                        ?__Umul8_16 0070                          ?___lwdiv 0070  
                       __pstrings 1000             __end_of_adc_ch_switch 0963                         _eval_poly 1762  
                     ??_USART_set 01A2                       ??i1___fltol 00B1                  ___lwdiv@quotient 0075  
               interrupt_function 0004                          _IOCBbits 0096                          _PIE1bits 008C  
             __end_of_int_osc_MHz 07FD                          _OLD_TEMP 01B2                          _PIR1bits 000C  
                        _TEMP_POT 00E2                        _ADCON0bits 001F                       __stringbase 1005  
                      _ADCON1bits 009F                          _RTC_read 16CA                          _WPUBbits 0095  
                      ?_eval_poly 0058               I2C_Master_Read@temp 0194                         frexp@eptr 0024  
                     ??__Umul8_16 0072         ?_I2C_Master_RepeatedStart 0070                __end_of__stringtab 1006  
                        _adc_init 15B8                          _adc_read 10DE                   _I2C_Master_Init 12A5  
                 _I2C_Master_Read 11FE                          ___xxtofl 0A1C                   _I2C_Master_Wait 1100  
                 _I2C_Master_Stop 10D5                   ___lwdiv@divisor 0070                   ___lwdiv@counter 0077  
                        __ptext10 11CF                          __ptext11 08AC                          __ptext20 10C3  
                        __ptext12 153C                          __ptext21 11FE                          __ptext13 16CA  
                        __ptext30 1762                          __ptext22 1100                          __ptext14 1146  
                        __ptext31 004D                          __ptext23 03AE                          __ptext15 112F  
                        __ptext32 11A8                          __ptext24 0963                          __ptext16 110D  
                        __ptext33 0A1C                          __ptext25 1638                          __ptext17 10E8  
                        __ptext34 080A                          __ptext26 0D60                          __ptext18 10D5  
                        __ptext35 10DE                          __ptext27 06B0                          __ptext19 10CC  
                        __ptext36 1320                          __ptext28 140B                          __ptext37 1184  
                        __ptext29 1364                          __ptext38 0AD8                       _int_osc_MHz 07C0  
                        _last_min 01B7                          _last_hrs 01B6                          _last_mov 01B4  
                        _motor_dc 11CF                          _pwm_init 12DF                          log@coeff 1006  
        __end_of_I2C_Master_Start 10D5          __end_of_I2C_Master_Write 10F4                        _INTCONbits 000B  
                     ??_eval_poly 005F                          init_ram0 1120                          intlevel1 0000  
                ___lldiv@dividend 0194                         stringcode 1000                      motor_dc@temp 019B  
                      _OSCCONbits 008F                          servo@mov 0194           __end_of_I2C_Master_Init 12DF  
         __end_of_I2C_Master_Read 1232           __end_of_I2C_Master_Wait 110D           __end_of_I2C_Master_Stop 10DE  
          __Umul8_16@multiplicand 0070                  ___lldiv@quotient 0199                 I2C_Master_Write@d 0190  
                        stringdir 1000                          stringtab 1000                       _SSPCON2bits 0091  
                   ___fladd@signs 003A                      ___fladd@aexp 003B                      ___fladd@bexp 003C  
            __Umul8_16@multiplier 0078                 __Umul8_16@product 0074                        _USART_send 110D  
